 BugSplat64

 Timestamp is 63d2d2ed (Thu Jan 26 19:22:21 2023)

 Preferred load address is 0000000180000000

 Start         Length     Name                   Class
 0001:00000000 000002d0H .text$di                CODE
 0001:000002d0 00072ec0H .text$mn                CODE
 0001:00073190 00000040H .text$mn$00             CODE
 0001:000731d0 00001560H .text$x                 CODE
 0001:00074730 00000220H .text$yd                CODE
 0002:00000000 000005a0H .idata$5                DATA
 0002:000005a0 00000028H .00cfg                  DATA
 0002:000005c8 00000008H .CRT$XCA                DATA
 0002:000005d0 00000008H .CRT$XCL                DATA
 0002:000005d8 00000050H .CRT$XCU                DATA
 0002:00000628 00000008H .CRT$XCZ                DATA
 0002:00000630 00000008H .CRT$XIA                DATA
 0002:00000638 00000030H .CRT$XIC                DATA
 0002:00000668 00000008H .CRT$XIZ                DATA
 0002:00000670 00000008H .CRT$XLA                DATA
 0002:00000678 00000008H .CRT$XLZ                DATA
 0002:00000680 00000008H .CRT$XPA                DATA
 0002:00000688 00000010H .CRT$XPX                DATA
 0002:00000698 00000008H .CRT$XPXA               DATA
 0002:000006a0 00000008H .CRT$XPZ                DATA
 0002:000006a8 00000008H .CRT$XTA                DATA
 0002:000006b0 00000010H .CRT$XTZ                DATA
 0002:000006b8 00000000H .gehcont$y              DATA
 0002:000006b8 00000000H .gfids$y                DATA
 0002:000006c0 0000e0c0H .rdata                  DATA
 0002:0000e780 00000008H .rdata$CastGuardVftablesA DATA
 0002:0000e788 00000008H .rdata$CastGuardVftablesC DATA
 0002:0000e790 00000028H .rdata$T                DATA
 0002:0000e7b8 00001024H .rdata$r                DATA
 0002:0000f7dc 000001e4H .rdata$voltmd           DATA
 0002:0000f9c0 00000490H .rdata$zzzdbg           DATA
 0002:0000fe50 00000008H .rtc$IAA                DATA
 0002:0000fe58 00000008H .rtc$IZZ                DATA
 0002:0000fe60 00000008H .rtc$TAA                DATA
 0002:0000fe68 00000008H .rtc$TZZ                DATA
 0002:0000fe70 00000008H .tls                    DATA
 0002:0000fe78 00000014H .tls$                   DATA
 0002:0000fe8c 00000004H .tls$ZZZ                DATA
 0002:0000fe90 00008500H .xdata                  DATA
 0002:00018390 000004f0H .xdata$x                DATA
 0002:00018880 00000008H ATL$__a                 DATA
 0002:00018888 00000008H ATL$__z                 DATA
 0002:00018890 000009ccH .edata                  DATA
 0002:0001925c 000000a0H .idata$2                DATA
 0002:000192fc 00000014H .idata$3                DATA
 0002:00019310 000005a0H .idata$4                DATA
 0002:000198b0 00000c84H .idata$6                DATA
 0003:00000000 00000c48H .data                   DATA
 0003:00000c48 00000240H .data$r                 DATA
 0003:00000e88 00000358H .data$rs                DATA
 0003:000011e0 0000527cH .bss                    DATA
 0004:00000000 00006030H .pdata                  DATA
 0005:00000000 000000f4H _RDATA                  DATA
 0006:00000000 00000120H .rsrc$01                DATA
 0006:00000120 00000b30H .rsrc$02                DATA

  Address         Publics by Value              Rva+Base               Lib:Object

 0000:00000000       ___safe_se_handler_count   0000000000000000     <absolute>
 0000:00000000       __guard_iat_table          0000000000000000     <absolute>
 0000:00000000       __hybrid_auxiliary_iat     0000000000000000     <absolute>
 0000:00000000       __hybrid_code_map_count    0000000000000000     <absolute>
 0000:00000000       __x64_code_ranges_to_entry_points 0000000000000000     <absolute>
 0000:00000000       ___safe_se_handler_table   0000000000000000     <absolute>
 0000:00000000       __arm64x_native_entrypoint 0000000000000000     <absolute>
 0000:00000000       __guard_eh_cont_count      0000000000000000     <absolute>
 0000:00000000       __guard_eh_cont_table      0000000000000000     <absolute>
 0000:00000000       __dynamic_value_reloc_table 0000000000000000     <absolute>
 0000:00000000       __guard_check_icall_a64n_fptr 0000000000000000     <absolute>
 0000:00000000       __enclave_config           0000000000000000     <absolute>
 0000:00000000       __arm64x_redirection_metadata 0000000000000000     <absolute>
 0000:00000000       __arm64x_redirection_metadata_count 0000000000000000     <absolute>
 0000:00000000       __guard_longjmp_table      0000000000000000     <absolute>
 0000:00000000       __arm64x_extra_rfe_table   0000000000000000     <absolute>
 0000:00000000       __hybrid_code_map          0000000000000000     <absolute>
 0000:00000000       __x64_code_ranges_to_entry_points_count 0000000000000000     <absolute>
 0000:00000000       __AbsoluteZero             0000000000000000     <absolute>
 0000:00000000       __guard_longjmp_count      0000000000000000     <absolute>
 0000:00000000       __guard_fids_table         0000000000000000     <absolute>
 0000:00000000       __guard_iat_count          0000000000000000     <absolute>
 0000:00000000       __guard_fids_count         0000000000000000     <absolute>
 0000:00000000       __arm64x_extra_rfe_table_size 0000000000000000     <absolute>
 0000:00000000       __hybrid_auxiliary_iat_copy 0000000000000000     <absolute>
 0000:00000100       __guard_flags              0000000000000100     <absolute>
 0000:00000000       __ImageBase                0000000180000000     <linker-defined>
 0001:000002d0       ??$_Allocate_manually_vector_aligned@U_Default_allocate_traits@std@@@std@@YAPEAX_K@Z 00000001800012d0 f i GenericHTTPClient.obj
 0001:0000030c       ??$_Copy_memmove@PEAU__GENERIC_HTTP_ARGUMENT@GenericHTTPClient@@PEAU12@@std@@YAPEAU__GENERIC_HTTP_ARGUMENT@GenericHTTPClient@@PEAU12@00@Z 000000018000130c f i GenericHTTPClient.obj
 0001:0000033c       ??$_Emplace_reallocate@AEBU__GENERIC_HTTP_ARGUMENT@GenericHTTPClient@@@?$vector@U__GENERIC_HTTP_ARGUMENT@GenericHTTPClient@@V?$allocator@U__GENERIC_HTTP_ARGUMENT@GenericHTTPClient@@@std@@@std@@QEAAPEAU__GENERIC_HTTP_ARGUMENT@GenericHTTPClient@@QEAU23@AEBU23@@Z 000000018000133c f i GenericHTTPClient.obj
 0001:000004c4       ??0?$CStringT@_WV?$StrTraitATL@_WV?$ChTraitsCRT@_W@ATL@@@ATL@@@ATL@@QEAA@PEBD@Z 00000001800014c4 f i GenericHTTPClient.obj
 0001:00000548       ??0?$CStringT@_WV?$StrTraitATL@_WV?$ChTraitsCRT@_W@ATL@@@ATL@@@ATL@@QEAA@PEB_W@Z 0000000180001548 f i GenericHTTPClient.obj
 0001:000005dc       ??0CAtlComModule@ATL@@QEAA@XZ 00000001800015dc f i GenericHTTPClient.obj
 0001:00000664       ??0CAtlException@ATL@@QEAA@J@Z 0000000180001664 f i GenericHTTPClient.obj
 0001:0000066c       ??0CAtlWinModule@ATL@@QEAA@XZ 000000018000166c f i GenericHTTPClient.obj
 0001:000006e4       ??0GenericHTTPClient@@QEAA@XZ 00000001800016e4 f   GenericHTTPClient.obj
 0001:00000718       ??0bad_alloc@std@@QEAA@AEBV01@@Z 0000000180001718 f i GenericHTTPClient.obj
 0001:00000754       ??0bad_array_new_length@std@@QEAA@AEBV01@@Z 0000000180001754 f i GenericHTTPClient.obj
 0001:00000790       ??0bad_array_new_length@std@@QEAA@XZ 0000000180001790 f i GenericHTTPClient.obj
 0001:000007b0       ??0exception@std@@QEAA@AEBV01@@Z 00000001800017b0 f i GenericHTTPClient.obj
 0001:000007e4       ??1?$CSimpleStringT@_W$0A@@ATL@@QEAA@XZ 00000001800017e4 f i GenericHTTPClient.obj
 0001:0000080c       ??1?$CStringT@_WV?$StrTraitATL@_WV?$ChTraitsCRT@_W@ATL@@@ATL@@@ATL@@QEAA@XZ 000000018000180c f i GenericHTTPClient.obj
 0001:00000834       ??1CAtlStringMgr@ATL@@UEAA@XZ 0000000180001834 f i GenericHTTPClient.obj
 0001:00000848       ??1CWin32Heap@ATL@@UEAA@XZ 0000000180001848 f i GenericHTTPClient.obj
 0001:00000870       ??1GenericHTTPClient@@UEAA@XZ 0000000180001870 f   GenericHTTPClient.obj
 0001:0000089c       ??1bad_array_new_length@std@@UEAA@XZ 000000018000189c f i GenericHTTPClient.obj
 0001:000008b0       ??1exception@std@@UEAA@XZ  00000001800018b0 f i GenericHTTPClient.obj
 0001:000008c4       ??4?$CStringT@_WV?$StrTraitATL@_WV?$ChTraitsCRT@_W@ATL@@@ATL@@@ATL@@QEAAAEAV01@PEBD@Z 00000001800018c4 f i GenericHTTPClient.obj
 0001:00000984       ??_GCAtlStringMgr@ATL@@UEAAPEAXI@Z 0000000180001984 f i GenericHTTPClient.obj
 0001:00000984       ??_ECAtlStringMgr@ATL@@UEAAPEAXI@Z 0000000180001984 f i GenericHTTPClient.obj
 0001:000009b8       ??_GCWin32Heap@ATL@@UEAAPEAXI@Z 00000001800019b8 f i GenericHTTPClient.obj
 0001:000009b8       ??_ECWin32Heap@ATL@@UEAAPEAXI@Z 00000001800019b8 f i GenericHTTPClient.obj
 0001:00000a08       ??_GGenericHTTPClient@@UEAAPEAXI@Z 0000000180001a08 f i GenericHTTPClient.obj
 0001:00000a08       ??_EGenericHTTPClient@@UEAAPEAXI@Z 0000000180001a08 f i GenericHTTPClient.obj
 0001:00000a3c       ??_Ebad_alloc@std@@UEAAPEAXI@Z 0000000180001a3c f i GenericHTTPClient.obj
 0001:00000a3c       ??_Gbad_alloc@std@@UEAAPEAXI@Z 0000000180001a3c f i GenericHTTPClient.obj
 0001:00000a80       ??_Ebad_array_new_length@std@@UEAAPEAXI@Z 0000000180001a80 f i GenericHTTPClient.obj
 0001:00000a80       ??_Gbad_array_new_length@std@@UEAAPEAXI@Z 0000000180001a80 f i GenericHTTPClient.obj
 0001:00000ac4       ??_Eexception@std@@UEAAPEAXI@Z 0000000180001ac4 f i GenericHTTPClient.obj
 0001:00000ac4       ??_Gexception@std@@UEAAPEAXI@Z 0000000180001ac4 f i GenericHTTPClient.obj
 0001:00000b08       ?AddPutPostArguments@GenericHTTPClient@@QEAAXPEB_W0H@Z 0000000180001b08 f   GenericHTTPClient.obj
 0001:00000bcc       ?AddPutPostArguments@GenericHTTPClient@@QEAAXPEB_WK@Z 0000000180001bcc f   GenericHTTPClient.obj
 0001:00000c94       ?Allocate@CAtlStringMgr@ATL@@UEAAPEAUCStringData@2@HH@Z 0000000180001c94 f i GenericHTTPClient.obj
 0001:00000d18       ?Allocate@CWin32Heap@ATL@@UEAAPEAX_K@Z 0000000180001d18 f i GenericHTTPClient.obj
 0001:00000d28       ?AtlFindStringResourceInstance@ATL@@YAPEAUHINSTANCE__@@IG@Z 0000000180001d28 f i GenericHTTPClient.obj
 0001:00000ddc       ?AtlThrowImpl@ATL@@YAXJ@Z  0000000180001ddc f i GenericHTTPClient.obj
 0001:00000e00       ?AtlWinModuleTerm@ATL@@YAJPEAU_ATL_WIN_MODULE70@1@PEAUHINSTANCE__@@@Z 0000000180001e00 f i GenericHTTPClient.obj
 0001:00000eb0       ?Clone@CAtlStringMgr@ATL@@UEAAPEAUIAtlStringMgr@2@XZ 0000000180001eb0 f i GenericHTTPClient.obj
 0001:00000eb4       ?CloneData@?$CSimpleStringT@_W$0A@@ATL@@CAPEAUCStringData@2@PEAU32@@Z 0000000180001eb4 f i GenericHTTPClient.obj
 0001:00000f4c       ?Close@GenericHTTPClient@@QEAAHXZ 0000000180001f4c f   GenericHTTPClient.obj
 0001:00000f98       ?Connect@GenericHTTPClient@@QEAAHV?$CStringT@_WV?$StrTraitATL@_WV?$ChTraitsCRT@_W@ATL@@@ATL@@@ATL@@0G00@Z 0000000180001f98 f   GenericHTTPClient.obj
 0001:00001378       ?ConvertToBaseType@?$ChTraitsCRT@_W@ATL@@SAXPEA_WHPEB_WH@Z 0000000180002378 f i GenericHTTPClient.obj
 0001:00001408       ?CopyWideToMultibyte@GenericHTTPClient@@QEAAHV?$CStringT@_WV?$StrTraitATL@_WV?$ChTraitsCRT@_W@ATL@@@ATL@@@ATL@@PEADKK@Z 0000000180002408 f   GenericHTTPClient.obj
 0001:00001500       ?DebuggerConsoleMessage@GenericHTTPClient@@QEAAXXZ 0000000180002500 f   GenericHTTPClient.obj
 0001:0000151c       ?Empty@?$CSimpleStringT@_W$0A@@ATL@@QEAAXXZ 000000018000251c f i GenericHTTPClient.obj
 0001:0000158c       ?EncodeSpecialCharacters@GenericHTTPClient@@QEAA?AV?$CStringT@_WV?$StrTraitATL@_WV?$ChTraitsCRT@_W@ATL@@@ATL@@@ATL@@V23@@Z 000000018000258c f   GenericHTTPClient.obj
 0001:00001620       ?EnsureLinked@CAtlStringMgrStaticInitializer@ATLImplementationDetails@ATL@@QEAAPEAXXZ 0000000180002620 f i GenericHTTPClient.obj
 0001:00001624       ?Fork@?$CSimpleStringT@_W$0A@@ATL@@AEAAXH@Z 0000000180002624 f i GenericHTTPClient.obj
 0001:00001700       ?Free@CAtlStringMgr@ATL@@UEAAXPEAUCStringData@2@@Z 0000000180002700 f i GenericHTTPClient.obj
 0001:0000170c       ?Free@CWin32Heap@ATL@@UEAAXPEAX@Z 000000018000270c f i GenericHTTPClient.obj
 0001:0000172c       ?GetContentType@GenericHTTPClient@@QEAAPEB_WPEB_W@Z 000000018000272c f   GenericHTTPClient.obj
 0001:00001838       ?GetInstance@CAtlStringMgr@ATL@@SAPEAUIAtlStringMgr@2@XZ 0000000180002838 f i GenericHTTPClient.obj
 0001:00001958       ?GetNilString@CAtlStringMgr@ATL@@UEAAPEAUCStringData@2@XZ 0000000180002958 f i GenericHTTPClient.obj
 0001:00001964       ?GetPostArguments@GenericHTTPClient@@QEAAKPEADK@Z 0000000180002964 f   GenericHTTPClient.obj
 0001:00001c08       ?GetSize@CWin32Heap@ATL@@UEAA_KPEAX@Z 0000000180002c08 f i GenericHTTPClient.obj
 0001:00001c18       ?InitilizePutPostArguments@GenericHTTPClient@@QEAAXXZ 0000000180002c18 f   GenericHTTPClient.obj
 0001:00001c24       ?LoadStringW@?$CStringT@_WV?$StrTraitATL@_WV?$ChTraitsCRT@_W@ATL@@@ATL@@@ATL@@QEAAHPEAUHINSTANCE__@@I@Z 0000000180002c24 f i GenericHTTPClient.obj
 0001:00001d00       ?ParseURLW@GenericHTTPClient@@QEAAXPEB_WPEA_WH1H@Z 0000000180002d00 f   GenericHTTPClient.obj
 0001:00001e58       ?PrepareWrite2@?$CSimpleStringT@_W$0A@@ATL@@AEAAXH@Z 0000000180002e58 f i GenericHTTPClient.obj
 0001:00001eb8       ?QueryHTTPResponse@GenericHTTPClient@@QEAAPEB_WXZ 0000000180002eb8 f   GenericHTTPClient.obj
 0001:00001ec0       ?QueryHTTPResponseHeader@GenericHTTPClient@@QEAAPEB_WXZ 0000000180002ec0 f   GenericHTTPClient.obj
 0001:00001ec8       ?Reallocate@?$CSimpleStringT@_W$0A@@ATL@@AEAAXH@Z 0000000180002ec8 f i GenericHTTPClient.obj
 0001:00001f10       ?Reallocate@CAtlStringMgr@ATL@@UEAAPEAUCStringData@2@PEAU32@HH@Z 0000000180002f10 f i GenericHTTPClient.obj
 0001:00001f78       ?Reallocate@CWin32Heap@ATL@@UEAAPEAXPEAX_K@Z 0000000180002f78 f i GenericHTTPClient.obj
 0001:00001fb8       ?Reconnect@GenericHTTPClient@@QEAAHXZ 0000000180002fb8 f   GenericHTTPClient.obj
 0001:00002090       ?Replace@?$CStringT@_WV?$StrTraitATL@_WV?$ChTraitsCRT@_W@ATL@@@ATL@@@ATL@@QEAAHPEB_W0@Z 0000000180003090 f i GenericHTTPClient.obj
 0001:00002334       ?Request@GenericHTTPClient@@QEAAHPEB_WH0@Z 0000000180003334 f   GenericHTTPClient.obj
 0001:000024d0       ?RequestGet@GenericHTTPClient@@QEAAHPEB_W@Z 00000001800034d0 f   GenericHTTPClient.obj
 0001:000025a4       ?RequestOfURI@GenericHTTPClient@@QEAAHPEB_WH@Z 00000001800035a4 f   GenericHTTPClient.obj
 0001:000025e4       ?RequestPost@GenericHTTPClient@@QEAAHPEB_W@Z 00000001800035e4 f   GenericHTTPClient.obj
 0001:00002718       ?RequestPut@GenericHTTPClient@@QEAAHPEB_W@Z 0000000180003718 f   GenericHTTPClient.obj
 0001:000027a0       ?Response@GenericHTTPClient@@QEAAHPEA_WK0KAEAK@Z 00000001800037a0 f   GenericHTTPClient.obj
 0001:00002950       ?ResponseOfBytes@GenericHTTPClient@@QEAAKPEAEK@Z 0000000180003950 f   GenericHTTPClient.obj
 0001:000029c0       ?SendPutFileData@GenericHTTPClient@@QEAAKXZ 00000001800039c0 f   GenericHTTPClient.obj
 0001:00002ad4       ?SetString@?$CSimpleStringT@_W$0A@@ATL@@QEAAXPEB_WH@Z 0000000180003ad4 f i GenericHTTPClient.obj
 0001:00002c00       ?Term@CAtlComModule@ATL@@QEAAXXZ 0000000180003c00 f i GenericHTTPClient.obj
 0001:00002c70       ?ThrowMemoryException@?$CSimpleStringT@_W$0A@@ATL@@KAXXZ 0000000180003c70 f i GenericHTTPClient.obj
 0001:00002c80       ?_AtlGetStringResourceImage@ATL@@YAPEBUATLSTRINGRESOURCEIMAGE@1@PEAUHINSTANCE__@@PEAUHRSRC__@@I@Z 0000000180003c80 f i GenericHTTPClient.obj
 0001:00002d1c       ?_AtlInitializeCriticalSectionEx@ATL@@YAHPEAU_RTL_CRITICAL_SECTION@@KK@Z 0000000180003d1c f i GenericHTTPClient.obj
 0001:00002d24       ?_AtlRaiseException@ATL@@YAXKK@Z 0000000180003d24 f i GenericHTTPClient.obj
 0001:00002d34       ?_Change_array@?$vector@U__GENERIC_HTTP_ARGUMENT@GenericHTTPClient@@V?$allocator@U__GENERIC_HTTP_ARGUMENT@GenericHTTPClient@@@std@@@std@@AEAAXQEAU__GENERIC_HTTP_ARGUMENT@GenericHTTPClient@@_K1@Z 0000000180003d34 f i GenericHTTPClient.obj
 0001:00002de8       ?_Throw_bad_array_new_length@std@@YAXXZ 0000000180003de8 f i GenericHTTPClient.obj
 0001:00002e08       ?_Tidy@?$vector@U__GENERIC_HTTP_ARGUMENT@GenericHTTPClient@@V?$allocator@U__GENERIC_HTTP_ARGUMENT@GenericHTTPClient@@@std@@@std@@AEAAXXZ 0000000180003e08 f i GenericHTTPClient.obj
 0001:00002e84       ?_Xlength@?$vector@U__GENERIC_HTTP_ARGUMENT@GenericHTTPClient@@V?$allocator@U__GENERIC_HTTP_ARGUMENT@GenericHTTPClient@@@std@@@std@@CAXXZ 0000000180003e84 f i GenericHTTPClient.obj
 0001:00002e98       ?deallocate@?$allocator@U__GENERIC_HTTP_ARGUMENT@GenericHTTPClient@@@std@@QEAAXQEAU__GENERIC_HTTP_ARGUMENT@GenericHTTPClient@@_K@Z 0000000180003e98 f i GenericHTTPClient.obj
 0001:00002edc       ?what@exception@std@@UEBAPEBDXZ 0000000180003edc f i GenericHTTPClient.obj
 0001:00002ef0       __local_stdio_printf_options 0000000180003ef0 f i GenericHTTPClient.obj
 0001:00002ef8       swprintf_s                 0000000180003ef8 f i GenericHTTPClient.obj
 0001:00002f4c       ??0?$CSimpleStringT@_W$0A@@ATL@@QEAA@PEB_WHPEAUIAtlStringMgr@1@@Z 0000000180003f4c f i BugSplatImp.obj
 0001:00003024       ??0BugSplatImp@@QEAA@XZ    0000000180004024 f   BugSplatImp.obj
 0001:0000304c       ??0MiniDmpSender@@QEAA@AEBV0@@Z 000000018000404c f i BugSplatImp.obj
 0001:00003064       ??4?$CSimpleStringT@_W$0A@@ATL@@QEAAAEAV01@AEBV01@@Z 0000000180004064 f i BugSplatImp.obj
 0001:000030e4       ??4BugSplatImp@@QEAAAEAV0@$$QEAV0@@Z 00000001800040e4 f i BugSplatImp.obj
 0001:00003154       ??4BugSplatImp@@QEAAAEAV0@AEBV0@@Z 0000000180004154 f i BugSplatImp.obj
 0001:00003174       ??4MiniDmpSender@@QEAAAEAV0@AEBV0@@Z 0000000180004174 f i BugSplatImp.obj
 0001:00003180       ??HATL@@YA?AV?$CStringT@_WV?$StrTraitATL@_WV?$ChTraitsCRT@_W@ATL@@@ATL@@@0@AEBV10@0@Z 0000000180004180 f i BugSplatImp.obj
 0001:00003220       ??_EMiniDmpSender@@UEAAPEAXI@Z 0000000180004220 f i BugSplatImp.obj
 0001:0000329c       ??_GMiniDmpSender@@UEAAPEAXI@Z 000000018000429c f i BugSplatImp.obj
 0001:000032d0       ?Append@?$CSimpleStringT@_W$0A@@ATL@@QEAAXPEB_WH@Z 00000001800042d0 f i BugSplatImp.obj
 0001:000033e4       ?AppendChar@?$CSimpleStringT@_W$0A@@ATL@@QEAAX_W@Z 00000001800043e4 f i BugSplatImp.obj
 0001:00003474       ?Concatenate@?$CSimpleStringT@_W$0A@@ATL@@KAXAEAV12@PEB_WH1H@Z 0000000180004474 f i BugSplatImp.obj
 0001:0000357c       ?CreateMiniDump@BugSplatImp@@QEAAHPEAUHINSTANCE__@@KPEAXKPEAU_EXCEPTION_POINTERS@@W4_BS_MINIDUMP_TYPE@MiniDmpSender@@PEB_WPEA_WK@Z 000000018000457c f   BugSplatImp.obj
 0001:000037f4       ?GetReducedGuid@BugSplatImp@@QEAAXPEA_WK@Z 00000001800047f4 f   BugSplatImp.obj
 0001:00003a1c       ?Left@?$CStringT@_WV?$StrTraitATL@_WV?$ChTraitsCRT@_W@ATL@@@ATL@@@ATL@@QEBA?AV12@H@Z 0000000180004a1c f i BugSplatImp.obj
 0001:00003a9c       ?MakeUpper@?$CStringT@_WV?$StrTraitATL@_WV?$ChTraitsCRT@_W@ATL@@@ATL@@@ATL@@QEAAAEAV12@XZ 0000000180004a9c f i BugSplatImp.obj
 0001:00003b14       ?Mid@?$CStringT@_WV?$StrTraitATL@_WV?$ChTraitsCRT@_W@ATL@@@ATL@@@ATL@@QEBA?AV12@HH@Z 0000000180004b14 f i BugSplatImp.obj
 0001:00003bf0       ?ReduceGuidString@BugSplatImp@@QEAAXPEA_WK@Z 0000000180004bf0 f   BugSplatImp.obj
 0001:00003f68       ?ResumeSuspendedThreads@BugSplatImp@@QEAAXXZ 0000000180004f68 f   BugSplatImp.obj
 0001:00003fcc       ?SuspendAllThreadsInProcess@BugSplatImp@@QEAAXPEAX@Z 0000000180004fcc f   BugSplatImp.obj
 0001:000040a0       ?SuspendThreadsInCurrentProcess@BugSplatImp@@QEAAXXZ 00000001800050a0 f   BugSplatImp.obj
 0001:00004194       ?UINTtoWchar_t@@YA_WI@Z    0000000180005194 f   BugSplatImp.obj
 0001:000041b4       ?Wchar_tToUINT@@YAI_W@Z    00000001800051b4 f   BugSplatImp.obj
 0001:000041e4       ?combine1_4@@YAIII@Z       00000001800051e4 f   BugSplatImp.obj
 0001:000041f0       ?combine2_3@@YAIII@Z       00000001800051f0 f   BugSplatImp.obj
 0001:00004200       ?combine3_2@@YAIII@Z       0000000180005200 f   BugSplatImp.obj
 0001:00004210       ?combine4_1@@YAIII@Z       0000000180005210 f   BugSplatImp.obj
 0001:0000421c       ?combineLast3@@YAII@Z      000000018000521c f   BugSplatImp.obj
 0001:00004224       ?createReportAndExit@MiniDmpSender@@QEAAXXZ 0000000180005224 f i BugSplatImp.obj
 0001:00004258       ??$?8V?$MemoryPoolAllocator@VCrtAllocator@rapidjson@@@rapidjson@@@?$GenericValue@U?$UTF16@_W@rapidjson@@V?$MemoryPoolAllocator@VCrtAllocator@rapidjson@@@2@@rapidjson@@QEBA_NAEBV01@@Z 0000000180005258 f i mdump.obj
 0001:0000449c       ??$?A$$CB_W@?$GenericValue@U?$UTF16@_W@rapidjson@@V?$MemoryPoolAllocator@VCrtAllocator@rapidjson@@@2@@rapidjson@@QEAAAEAV01@PEB_W@Z 000000018000549c f i mdump.obj
 0001:00004568       ??$DoFindMember@V?$MemoryPoolAllocator@VCrtAllocator@rapidjson@@@rapidjson@@@?$GenericValue@U?$UTF16@_W@rapidjson@@V?$MemoryPoolAllocator@VCrtAllocator@rapidjson@@@2@@rapidjson@@AEAA?AV?$GenericMemberIterator@$0A@U?$UTF16@_W@rapidjson@@V?$MemoryPoolAllocator@VCrtAllocator@rapidjson@@@2@@1@AEBV01@@Z 0000000180005568 f i mdump.obj
 0001:000045e8       ??$Encode@V?$StackStream@_W@?$GenericReader@U?$UTF16@_W@rapidjson@@U12@VCrtAllocator@2@@rapidjson@@@?$UTF16@_W@rapidjson@@SAXAEAV?$StackStream@_W@?$GenericReader@U?$UTF16@_W@rapidjson@@U12@VCrtAllocator@2@@1@I@Z 00000001800055e8 f i mdump.obj
 0001:000046c0       ??$Expand@V?$GenericValue@U?$UTF16@_W@rapidjson@@V?$MemoryPoolAllocator@VCrtAllocator@rapidjson@@@2@@rapidjson@@@?$Stack@VCrtAllocator@rapidjson@@@internal@rapidjson@@AEAAX_K@Z 00000001800056c0 f i mdump.obj
 0001:00004770       ??$Expand@_W@?$Stack@VCrtAllocator@rapidjson@@@internal@rapidjson@@AEAAX_K@Z 0000000180005770 f i mdump.obj
 0001:00004820       ??$Parse@$0A@U?$GenericStringStream@U?$UTF16@_W@rapidjson@@@rapidjson@@V?$GenericDocument@U?$UTF16@_W@rapidjson@@V?$MemoryPoolAllocator@VCrtAllocator@rapidjson@@@2@VCrtAllocator@2@@2@@?$GenericReader@U?$UTF16@_W@rapidjson@@U12@VCrtAllocator@2@@rapidjson@@QEAA?AUParseResult@1@AEAU?$GenericStringStream@U?$UTF16@_W@rapidjson@@@1@AEAV?$GenericDocument@U?$UTF16@_W@rapidjson@@V?$MemoryPoolAllocator@VCrtAllocator@rapidjson@@@2@VCrtAllocator@2@@1@@Z 0000000180005820 f i mdump.obj
 0001:00004c0c       ??$ParseArray@$0A@U?$GenericStringStream@U?$UTF16@_W@rapidjson@@@rapidjson@@V?$GenericDocument@U?$UTF16@_W@rapidjson@@V?$MemoryPoolAllocator@VCrtAllocator@rapidjson@@@2@VCrtAllocator@2@@2@@?$GenericReader@U?$UTF16@_W@rapidjson@@U12@VCrtAllocator@2@@rapidjson@@AEAAXAEAU?$GenericStringStream@U?$UTF16@_W@rapidjson@@@1@AEAV?$GenericDocument@U?$UTF16@_W@rapidjson@@V?$MemoryPoolAllocator@VCrtAllocator@rapidjson@@@2@VCrtAllocator@2@@1@@Z 0000000180005c0c f i mdump.obj
 0001:00004d60       ??$ParseFalse@$0A@U?$GenericStringStream@U?$UTF16@_W@rapidjson@@@rapidjson@@V?$GenericDocument@U?$UTF16@_W@rapidjson@@V?$MemoryPoolAllocator@VCrtAllocator@rapidjson@@@2@VCrtAllocator@2@@2@@?$GenericReader@U?$UTF16@_W@rapidjson@@U12@VCrtAllocator@2@@rapidjson@@AEAAXAEAU?$GenericStringStream@U?$UTF16@_W@rapidjson@@@1@AEAV?$GenericDocument@U?$UTF16@_W@rapidjson@@V?$MemoryPoolAllocator@VCrtAllocator@rapidjson@@@2@VCrtAllocator@2@@1@@Z 0000000180005d60 f i mdump.obj
 0001:00004dfc       ??$ParseNull@$0A@U?$GenericStringStream@U?$UTF16@_W@rapidjson@@@rapidjson@@V?$GenericDocument@U?$UTF16@_W@rapidjson@@V?$MemoryPoolAllocator@VCrtAllocator@rapidjson@@@2@VCrtAllocator@2@@2@@?$GenericReader@U?$UTF16@_W@rapidjson@@U12@VCrtAllocator@2@@rapidjson@@AEAAXAEAU?$GenericStringStream@U?$UTF16@_W@rapidjson@@@1@AEAV?$GenericDocument@U?$UTF16@_W@rapidjson@@V?$MemoryPoolAllocator@VCrtAllocator@rapidjson@@@2@VCrtAllocator@2@@1@@Z 0000000180005dfc f i mdump.obj
 0001:00004e84       ??$ParseNumber@$0A@U?$GenericStringStream@U?$UTF16@_W@rapidjson@@@rapidjson@@V?$GenericDocument@U?$UTF16@_W@rapidjson@@V?$MemoryPoolAllocator@VCrtAllocator@rapidjson@@@2@VCrtAllocator@2@@2@@?$GenericReader@U?$UTF16@_W@rapidjson@@U12@VCrtAllocator@2@@rapidjson@@AEAAXAEAU?$GenericStringStream@U?$UTF16@_W@rapidjson@@@1@AEAV?$GenericDocument@U?$UTF16@_W@rapidjson@@V?$MemoryPoolAllocator@VCrtAllocator@rapidjson@@@2@VCrtAllocator@2@@1@@Z 0000000180005e84 f i mdump.obj
 0001:00005600       ??$ParseObject@$0A@U?$GenericStringStream@U?$UTF16@_W@rapidjson@@@rapidjson@@V?$GenericDocument@U?$UTF16@_W@rapidjson@@V?$MemoryPoolAllocator@VCrtAllocator@rapidjson@@@2@VCrtAllocator@2@@2@@?$GenericReader@U?$UTF16@_W@rapidjson@@U12@VCrtAllocator@2@@rapidjson@@AEAAXAEAU?$GenericStringStream@U?$UTF16@_W@rapidjson@@@1@AEAV?$GenericDocument@U?$UTF16@_W@rapidjson@@V?$MemoryPoolAllocator@VCrtAllocator@rapidjson@@@2@VCrtAllocator@2@@1@@Z 0000000180006600 f i mdump.obj
 0001:000057c4       ??$ParseStream@$0A@U?$UTF16@_W@rapidjson@@U?$GenericStringStream@U?$UTF16@_W@rapidjson@@@2@@?$GenericDocument@U?$UTF16@_W@rapidjson@@V?$MemoryPoolAllocator@VCrtAllocator@rapidjson@@@2@VCrtAllocator@2@@rapidjson@@QEAAAEAV01@AEAU?$GenericStringStream@U?$UTF16@_W@rapidjson@@@1@@Z 00000001800067c4 f i mdump.obj
 0001:00005898       ??$ParseString@$0A@U?$GenericStringStream@U?$UTF16@_W@rapidjson@@@rapidjson@@V?$GenericDocument@U?$UTF16@_W@rapidjson@@V?$MemoryPoolAllocator@VCrtAllocator@rapidjson@@@2@VCrtAllocator@2@@2@@?$GenericReader@U?$UTF16@_W@rapidjson@@U12@VCrtAllocator@2@@rapidjson@@AEAAXAEAU?$GenericStringStream@U?$UTF16@_W@rapidjson@@@1@AEAV?$GenericDocument@U?$UTF16@_W@rapidjson@@V?$MemoryPoolAllocator@VCrtAllocator@rapidjson@@@2@VCrtAllocator@2@@1@_N@Z 0000000180006898 f i mdump.obj
 0001:00005bec       ??$ParseTrue@$0A@U?$GenericStringStream@U?$UTF16@_W@rapidjson@@@rapidjson@@V?$GenericDocument@U?$UTF16@_W@rapidjson@@V?$MemoryPoolAllocator@VCrtAllocator@rapidjson@@@2@VCrtAllocator@2@@2@@?$GenericReader@U?$UTF16@_W@rapidjson@@U12@VCrtAllocator@2@@rapidjson@@AEAAXAEAU?$GenericStringStream@U?$UTF16@_W@rapidjson@@@1@AEAV?$GenericDocument@U?$UTF16@_W@rapidjson@@V?$MemoryPoolAllocator@VCrtAllocator@rapidjson@@@2@VCrtAllocator@2@@1@@Z 0000000180006bec f i mdump.obj
 0001:00005c7c       ??$ParseValue@$0A@U?$GenericStringStream@U?$UTF16@_W@rapidjson@@@rapidjson@@V?$GenericDocument@U?$UTF16@_W@rapidjson@@V?$MemoryPoolAllocator@VCrtAllocator@rapidjson@@@2@VCrtAllocator@2@@2@@?$GenericReader@U?$UTF16@_W@rapidjson@@U12@VCrtAllocator@2@@rapidjson@@AEAAXAEAU?$GenericStringStream@U?$UTF16@_W@rapidjson@@@1@AEAV?$GenericDocument@U?$UTF16@_W@rapidjson@@V?$MemoryPoolAllocator@VCrtAllocator@rapidjson@@@2@VCrtAllocator@2@@1@@Z 0000000180006c7c f i mdump.obj
 0001:00005cc8       ??$SkipWhitespace@U?$GenericStringStream@U?$UTF16@_W@rapidjson@@@rapidjson@@@rapidjson@@YAXAEAU?$GenericStringStream@U?$UTF16@_W@rapidjson@@@0@@Z 0000000180006cc8 f i mdump.obj
 0001:00005d08       ??$StringEqual@V?$MemoryPoolAllocator@VCrtAllocator@rapidjson@@@rapidjson@@@?$GenericValue@U?$UTF16@_W@rapidjson@@V?$MemoryPoolAllocator@VCrtAllocator@rapidjson@@@2@@rapidjson@@AEBA_NAEBV01@@Z 0000000180006d08 f i mdump.obj
 0001:00005d94       ??$_Emplace_reallocate@V?$CStringT@_WV?$StrTraitATL@_WV?$ChTraitsCRT@_W@ATL@@@ATL@@@ATL@@@?$vector@V?$CStringT@_WV?$StrTraitATL@_WV?$ChTraitsCRT@_W@ATL@@@ATL@@@ATL@@V?$allocator@V?$CStringT@_WV?$StrTraitATL@_WV?$ChTraitsCRT@_W@ATL@@@ATL@@@ATL@@@std@@@std@@QEAAPEAV?$CStringT@_WV?$StrTraitATL@_WV?$ChTraitsCRT@_W@ATL@@@ATL@@@ATL@@QEAV23@$$QEAV23@@Z 0000000180006d94 f i mdump.obj
 0001:00005f8c       ??0?$CStringT@_WV?$StrTraitATL@_WV?$ChTraitsCRT@_W@ATL@@@ATL@@@ATL@@QEAA@PEB_WPEAUIAtlStringMgr@1@@Z 0000000180006f8c f i mdump.obj
 0001:0000601c       ??0?$GenericDocument@U?$UTF16@_W@rapidjson@@V?$MemoryPoolAllocator@VCrtAllocator@rapidjson@@@2@VCrtAllocator@2@@rapidjson@@QEAA@PEAV?$MemoryPoolAllocator@VCrtAllocator@rapidjson@@@1@_KPEAVCrtAllocator@1@@Z 000000018000701c f i mdump.obj
 0001:000060a4       ??0?$MemoryPoolAllocator@VCrtAllocator@rapidjson@@@rapidjson@@QEAA@_KPEAVCrtAllocator@1@@Z 00000001800070a4 f i mdump.obj
 0001:00006144       ??0MiniDumper@@QEAA@XZ     0000000180007144 f   mdump.obj
 0001:00006490       ??0TotalUptimeAndCrashCalculator@@QEAA@PEB_W00@Z 0000000180007490 f i mdump.obj
 0001:000066ac       ??1?$CHeapPtr@_WVCLocalAllocator@ATL@@@ATL@@QEAA@XZ 00000001800076ac f i mdump.obj
 0001:000066c8       ??1?$GenericDocument@U?$UTF16@_W@rapidjson@@V?$MemoryPoolAllocator@VCrtAllocator@rapidjson@@@2@VCrtAllocator@2@@rapidjson@@QEAA@XZ 00000001800076c8 f i mdump.obj
 0001:0000671c       ??1?$GenericReader@U?$UTF16@_W@rapidjson@@U12@VCrtAllocator@2@@rapidjson@@QEAA@XZ 000000018000771c f i mdump.obj
 0001:00006744       ??1?$GenericValue@U?$UTF16@_W@rapidjson@@V?$MemoryPoolAllocator@VCrtAllocator@rapidjson@@@2@@rapidjson@@QEAA@XZ 0000000180007744 f i mdump.obj
 0001:00006748       ??1?$MemoryPoolAllocator@VCrtAllocator@rapidjson@@@rapidjson@@QEAA@XZ 0000000180007748 f i mdump.obj
 0001:000067b8       ??1?$Stack@VCrtAllocator@rapidjson@@@internal@rapidjson@@QEAA@XZ 00000001800077b8 f i mdump.obj
 0001:000067e0       ??1?$StreamLocalCopy@U?$GenericStringStream@U?$UTF16@_W@rapidjson@@@rapidjson@@$00@internal@rapidjson@@QEAA@XZ 00000001800077e0 f i mdump.obj
 0001:000067ec       ??1?$_Uninitialized_backout_al@V?$allocator@V?$CStringT@_WV?$StrTraitATL@_WV?$ChTraitsCRT@_W@ATL@@@ATL@@@ATL@@@std@@@std@@QEAA@XZ 00000001800077ec f i mdump.obj
 0001:00006830       ??1?$vector@V?$CStringT@_WV?$StrTraitATL@_WV?$ChTraitsCRT@_W@ATL@@@ATL@@@ATL@@V?$allocator@V?$CStringT@_WV?$StrTraitATL@_WV?$ChTraitsCRT@_W@ATL@@@ATL@@@ATL@@@std@@@std@@QEAA@XZ 0000000180007830 f i mdump.obj
 0001:00006838       ??1ClearStackOnExit@?$GenericDocument@U?$UTF16@_W@rapidjson@@V?$MemoryPoolAllocator@VCrtAllocator@rapidjson@@@2@VCrtAllocator@2@@rapidjson@@QEAA@XZ 0000000180007838 f i mdump.obj
 0001:0000684c       ??1ClearStackOnExit@?$GenericReader@U?$UTF16@_W@rapidjson@@U12@VCrtAllocator@2@@rapidjson@@QEAA@XZ 000000018000784c f i mdump.obj
 0001:00006858       ??1DumpData@@QEAA@XZ       0000000180007858 f i mdump.obj
 0001:00006880       ??1MiniDumper@@UEAA@XZ     0000000180007880 f   mdump.obj
 0001:00006a14       ??1ResourceSwitch@@QEAA@XZ 0000000180007a14 f i mdump.obj
 0001:00006a2c       ??1TotalUptimeAndCrashCalculator@@QEAA@XZ 0000000180007a2c f i mdump.obj
 0001:00006b20       ??8?$GenericValue@U?$UTF16@_W@rapidjson@@V?$MemoryPoolAllocator@VCrtAllocator@rapidjson@@@2@@rapidjson@@QEBA_NPEB_W@Z 0000000180007b20 f i mdump.obj
 0001:00006ba0       ??B?$CSimpleStringT@_W$0A@@ATL@@QEBAPEB_WXZ 0000000180007ba0 f i mdump.obj
 0001:00006ba4       ??HATL@@YA?AV?$CStringT@_WV?$StrTraitATL@_WV?$ChTraitsCRT@_W@ATL@@@ATL@@@0@AEBV10@PEB_W@Z 0000000180007ba4 f i mdump.obj
 0001:00006c5c       ??HATL@@YA?AV?$CStringT@_WV?$StrTraitATL@_WV?$ChTraitsCRT@_W@ATL@@@ATL@@@0@PEB_WAEBV10@@Z 0000000180007c5c f i mdump.obj
 0001:00006d14       ??_EMiniDumper@@UEAAPEAXI@Z 0000000180007d14 f i mdump.obj
 0001:00006d14       ??_GMiniDumper@@UEAAPEAXI@Z 0000000180007d14 f i mdump.obj
 0001:00006d48       ?AddChunk@?$MemoryPoolAllocator@VCrtAllocator@rapidjson@@@rapidjson@@AEAA_N_K@Z 0000000180007d48 f i mdump.obj
 0001:00006db4       ?AllocGuardMemory@MiniDumper@@QEAA_NXZ 0000000180007db4 f   mdump.obj
 0001:00006df4       ?AtlMessageBox@WTL@@YAHPEAUHWND__@@V_U_STRINGorID@ATL@@1I@Z 0000000180007df4 f i mdump.obj
 0001:00006fcc       ?CreateReportThreaded@MiniDumper@@SAIPEAX@Z 0000000180007fcc f   mdump.obj
 0001:00007454       ?Delete@?$CStringT@_WV?$StrTraitATL@_WV?$ChTraitsCRT@_W@ATL@@@ATL@@@ATL@@QEAAHHH@Z 0000000180008454 f i mdump.obj
 0001:00007560       ?ExceptionHandler@MiniDumper@@SAJPEAU_EXCEPTION_POINTERS@@K@Z 0000000180008560 f   mdump.obj
 0001:0000792c       ?FindMember@?$GenericValue@U?$UTF16@_W@rapidjson@@V?$MemoryPoolAllocator@VCrtAllocator@rapidjson@@@2@@rapidjson@@QEAA?AV?$GenericMemberIterator@$0A@U?$UTF16@_W@rapidjson@@V?$MemoryPoolAllocator@VCrtAllocator@rapidjson@@@2@@2@PEB_W@Z 000000018000892c f i mdump.obj
 0001:000079ac       ?Format@?$CStringT@_WV?$StrTraitATL@_WV?$ChTraitsCRT@_W@ATL@@@ATL@@@ATL@@QEAAXPEB_WZZ 00000001800089ac f i mdump.obj
 0001:000079d0       ?FormatMessageV@?$CStringT@_WV?$StrTraitATL@_WV?$ChTraitsCRT@_W@ATL@@@ATL@@@ATL@@QEAAXPEB_WPEAPEAD@Z 00000001800089d0 f i mdump.obj
 0001:00007b70       ?FormatMessageW@?$CStringT@_WV?$StrTraitATL@_WV?$ChTraitsCRT@_W@ATL@@@ATL@@@ATL@@QEAAXIZZ 0000000180008b70 f i mdump.obj
 0001:00007c60       ?FormatV@?$CStringT@_WV?$StrTraitATL@_WV?$ChTraitsCRT@_W@ATL@@@ATL@@@ATL@@QEAAXPEB_WPEAD@Z 0000000180008c60 f i mdump.obj
 0001:00007dac       ?FreeGuardMemory@MiniDumper@@QEAA_NXZ 0000000180008dac f   mdump.obj
 0001:00007ddc       ?GetFullDumpEnabledStatus@MiniDumper@@SA_NXZ 0000000180008ddc f   mdump.obj
 0001:000081f4       ?GetMFA@MiniDumper@@SA_NPEAXPEA_WH@Z 00000001800091f4 f   mdump.obj
 0001:00008340       ?Int64@?$GenericDocument@U?$UTF16@_W@rapidjson@@V?$MemoryPoolAllocator@VCrtAllocator@rapidjson@@@2@VCrtAllocator@2@@rapidjson@@QEAA_N_J@Z 0000000180009340 f i mdump.obj
 0001:000083e8       ?IsError@ParseResult@rapidjson@@QEBA_NXZ 00000001800093e8 f i mdump.obj
 0001:000083f0       ?LaunchHangDetection@MiniDumper@@QEAAX_N@Z 00000001800093f0 f   mdump.obj
 0001:00008644       ?MakeLower@?$CStringT@_WV?$StrTraitATL@_WV?$ChTraitsCRT@_W@ATL@@@ATL@@@ATL@@QEAAAEAV12@XZ 0000000180009644 f i mdump.obj
 0001:000086bc       ?Malloc@?$MemoryPoolAllocator@VCrtAllocator@rapidjson@@@rapidjson@@QEAAPEAX_K@Z 00000001800096bc f i mdump.obj
 0001:00008728       ?ResolveMiniDumpType@MiniDumper@@SA?AW4_BS_MINIDUMP_TYPE@MiniDmpSender@@XZ 0000000180009728 f   mdump.obj
 0001:00008774       ?SendReportThreaded@MiniDumper@@SAIPEAX@Z 0000000180009774 f   mdump.obj
 0001:00008e44       ?SetArrayRaw@?$GenericValue@U?$UTF16@_W@rapidjson@@V?$MemoryPoolAllocator@VCrtAllocator@rapidjson@@@2@@rapidjson@@AEAAXPEAV12@IAEAV?$MemoryPoolAllocator@VCrtAllocator@rapidjson@@@2@@Z 0000000180009e44 f i mdump.obj
 0001:00008ecc       ?SetObjectRaw@?$GenericValue@U?$UTF16@_W@rapidjson@@V?$MemoryPoolAllocator@VCrtAllocator@rapidjson@@@2@@rapidjson@@AEAAXPEAV?$GenericMember@U?$UTF16@_W@rapidjson@@V?$MemoryPoolAllocator@VCrtAllocator@rapidjson@@@2@@2@IAEAV?$MemoryPoolAllocator@VCrtAllocator@rapidjson@@@2@@Z 0000000180009ecc f i mdump.obj
 0001:00008f54       ?SetStringRaw@?$GenericValue@U?$UTF16@_W@rapidjson@@V?$MemoryPoolAllocator@VCrtAllocator@rapidjson@@@2@@rapidjson@@AEAAXU?$GenericStringRef@_W@2@AEAV?$MemoryPoolAllocator@VCrtAllocator@rapidjson@@@2@@Z 0000000180009f54 f i mdump.obj
 0001:00008fe8       ?ShrinkToFit@?$Stack@VCrtAllocator@rapidjson@@@internal@rapidjson@@QEAAXXZ 0000000180009fe8 f i mdump.obj
 0001:0000904c       ?TerminateHangDetection@MiniDumper@@QEAAXXZ 000000018000a04c f   mdump.obj
 0001:000090a4       ?TopLevelUnhandledExceptionFilter@MiniDumper@@SAJPEAU_EXCEPTION_POINTERS@@@Z 000000018000a0a4 f   mdump.obj
 0001:00009110       ?TrimLeft@?$CStringT@_WV?$StrTraitATL@_WV?$ChTraitsCRT@_W@ATL@@@ATL@@@ATL@@QEAAAEAV12@XZ 000000018000a110 f i mdump.obj
 0001:0000921c       ?TrimRight@?$CStringT@_WV?$StrTraitATL@_WV?$ChTraitsCRT@_W@ATL@@@ATL@@@ATL@@QEAAAEAV12@XZ 000000018000a21c f i mdump.obj
 0001:000092d4       ?Uint64@?$GenericDocument@U?$UTF16@_W@rapidjson@@V?$MemoryPoolAllocator@VCrtAllocator@rapidjson@@@2@VCrtAllocator@2@@rapidjson@@QEAA_N_K@Z 000000018000a2d4 f i mdump.obj
 0001:00009364       ?_Change_array@?$vector@V?$CStringT@_WV?$StrTraitATL@_WV?$ChTraitsCRT@_W@ATL@@@ATL@@@ATL@@V?$allocator@V?$CStringT@_WV?$StrTraitATL@_WV?$ChTraitsCRT@_W@ATL@@@ATL@@@ATL@@@std@@@std@@AEAAXQEAV?$CStringT@_WV?$StrTraitATL@_WV?$ChTraitsCRT@_W@ATL@@@ATL@@@ATL@@_K1@Z 000000018000a364 f i mdump.obj
 0001:00009428       ?_Destroy@?$vector@V?$CStringT@_WV?$StrTraitATL@_WV?$ChTraitsCRT@_W@ATL@@@ATL@@@ATL@@V?$allocator@V?$CStringT@_WV?$StrTraitATL@_WV?$ChTraitsCRT@_W@ATL@@@ATL@@@ATL@@@std@@@std@@AEAAXPEAV?$CStringT@_WV?$StrTraitATL@_WV?$ChTraitsCRT@_W@ATL@@@ATL@@@ATL@@0@Z 000000018000a428 f i mdump.obj
 0001:00009470       ?_Tidy@?$vector@V?$CStringT@_WV?$StrTraitATL@_WV?$ChTraitsCRT@_W@ATL@@@ATL@@@ATL@@V?$allocator@V?$CStringT@_WV?$StrTraitATL@_WV?$ChTraitsCRT@_W@ATL@@@ATL@@@ATL@@@std@@@std@@AEAAXXZ 000000018000a470 f i mdump.obj
 0001:00009514       ?_Xlength@?$vector@V?$CStringT@_WV?$StrTraitATL@_WV?$ChTraitsCRT@_W@ATL@@@ATL@@@ATL@@V?$allocator@V?$CStringT@_WV?$StrTraitATL@_WV?$ChTraitsCRT@_W@ATL@@@ATL@@@ATL@@@std@@@std@@CAXXZ 000000018000a514 f i mdump.obj
 0001:00009528       ?bugsplatMessage@MiniDumper@@SAIPEB_WII@Z 000000018000a528 f   mdump.obj
 0001:00009568       ?capture@TotalUptimeAndCrashCalculator@@QEAAX_N@Z 000000018000a568 f i mdump.obj
 0001:000097a8       ?createAsanReport@MiniDumper@@QEAAXPEBD@Z 000000018000a7a8 f   mdump.obj
 0001:000098e8       ?createReport@MiniDumper@@QEAAXK@Z 000000018000a8e8 f   mdump.obj
 0001:00009910       ?createReport@MiniDumper@@QEAAXPEAU_EXCEPTION_POINTERS@@@Z 000000018000a910 f   mdump.obj
 0001:00009938       ?createReport@MiniDumper@@QEAAXPEB_W@Z 000000018000a938 f   mdump.obj
 0001:00009a58       ?deallocate@?$allocator@V?$CStringT@_WV?$StrTraitATL@_WV?$ChTraitsCRT@_W@ATL@@@ATL@@@ATL@@@std@@QEAAXQEAV?$CStringT@_WV?$StrTraitATL@_WV?$ChTraitsCRT@_W@ATL@@@ATL@@@ATL@@_K@Z 000000018000aa58 f i mdump.obj
 0001:00009a9c       ?debugMode@@YA_NXZ         000000018000aa9c f   mdump.obj
 0001:00009b60       ?disableNetworkAccess@MiniDumper@@QEAA_N_N@Z 000000018000ab60 f   mdump.obj
 0001:00009b6c       ?enableExceptionFilter@MiniDumper@@QEAA_N_N@Z 000000018000ab6c f   mdump.obj
 0001:00009b84       ?getLogFilePath@MiniDumper@@QEAAPEB_WXZ 000000018000ab84 f   mdump.obj
 0001:00009b8c       ?getMiniDumpType@MiniDumper@@QEBA?AW4_BS_MINIDUMP_TYPE@MiniDmpSender@@XZ 000000018000ab8c f   mdump.obj
 0001:00009b94       ?getRegistryBase@@YAXAEAV?$CStringT@_WV?$StrTraitATL@_WV?$ChTraitsCRT@_W@ATL@@@ATL@@@ATL@@@Z 000000018000ab94 f   mdump.obj
 0001:00009bc0       ?getRegistryRoot@@YAXAEAV?$CStringT@_WV?$StrTraitATL@_WV?$ChTraitsCRT@_W@ATL@@@ATL@@@ATL@@PEB_W11@Z 000000018000abc0 f   mdump.obj
 0001:00009c3c       ?initExceptionHandler@MiniDumper@@QEAAXPEB_W000K@Z 000000018000ac3c f   mdump.obj
 0001:00009f6c       ?invalid_parameter_handler@@YAXPEB_W00I_K@Z 000000018000af6c f i mdump.obj
 0001:00009f78       ?isExceptionFilterEnabled@MiniDumper@@QEBA_NXZ 000000018000af78 f   mdump.obj
 0001:00009f80       ?isNetworkAccessDisabled@MiniDumper@@QEBA_NXZ 000000018000af80 f   mdump.obj
 0001:00009f88       ?logOutput@@YAXIPEB_W_N@Z  000000018000af88 f   mdump.obj
 0001:0000a224       ?removeAdditionalFile@MiniDumper@@QEAA_NPEB_W@Z 000000018000b224 f   mdump.obj
 0001:0000a2a0       ?resetDescriptionString@MiniDumper@@QEAAXPEB_W@Z 000000018000b2a0 f   mdump.obj
 0001:0000a2d8       ?resetVersionString@MiniDumper@@QEAAXPEB_W@Z 000000018000b2d8 f   mdump.obj
 0001:0000a308       ?sendAdditionalFile@MiniDumper@@QEAAXPEB_W@Z 000000018000b308 f   mdump.obj
 0001:0000a384       ?setCallback@MiniDumper@@QEAAXP6A_NIPEAX0@Z@Z 000000018000b384 f   mdump.obj
 0001:0000a38c       ?setDefaultUserDescription@MiniDumper@@QEAAXPEB_W@Z 000000018000b38c f   mdump.obj
 0001:0000a3c4       ?setDefaultUserEmail@MiniDumper@@QEAAXPEB_W@Z 000000018000b3c4 f   mdump.obj
 0001:0000a3fc       ?setDefaultUserName@MiniDumper@@QEAAXPEB_W@Z 000000018000b3fc f   mdump.obj
 0001:0000a434       ?setFlags@MiniDumper@@QEAA_NK@Z 000000018000b434 f   mdump.obj
 0001:0000a480       ?setGuardByteBufferSize@MiniDumper@@QEAAHH@Z 000000018000b480 f   mdump.obj
 0001:0000a4c0       ?setHangDetectionTimeout@MiniDumper@@QEAAHH@Z 000000018000b4c0 f   mdump.obj
 0001:0000a4d8       ?setLogFilePath@MiniDumper@@QEAAXPEB_W@Z 000000018000b4d8 f   mdump.obj
 0001:0000a510       ?setMiniDumpType@MiniDumper@@QEAAXW4_BS_MINIDUMP_TYPE@MiniDmpSender@@@Z 000000018000b510 f   mdump.obj
 0001:0000a518       ?setNotes@MiniDumper@@QEAAXPEB_W@Z 000000018000b518 f   mdump.obj
 0001:0000a548       ?setResourceDllPath@MiniDumper@@QEAAXPEB_W@Z 000000018000b548 f   mdump.obj
 0001:0000a580       ?setUserZipPath@MiniDumper@@QEAAXPEB_W@Z 000000018000b580 f   mdump.obj
 0001:0000a5b8       ?signal_handler@@YAXH@Z    000000018000b5b8 f i mdump.obj
 0001:0000a5c4       ?terminator@@YAXXZ         000000018000b5c4 f i mdump.obj
 0001:0000a5d0       _fwprintf_p                000000018000b5d0 f i mdump.obj
 0001:0000a614       wprintf                    000000018000b614 f i mdump.obj
 0001:0000a668       ??0MiniDmpSender@@QEAA@PEB_W000K@Z 000000018000b668 f   BugSplatNative.obj
 0001:0000a730       ??1MiniDmpSender@@UEAA@XZ  000000018000b730 f   BugSplatNative.obj
 0001:0000a764       ?createAsanReport@MiniDmpSender@@QEAAXPEBD@Z 000000018000b764 f   BugSplatNative.obj
 0001:0000a770       ?createReport@MiniDmpSender@@QEAAXPEAU_EXCEPTION_POINTERS@@@Z 000000018000b770 f   BugSplatNative.obj
 0001:0000a77c       ?createReport@MiniDmpSender@@QEAAXPEB_W@Z 000000018000b77c f   BugSplatNative.obj
 0001:0000a788       ?disableNetworkAccess@MiniDmpSender@@QEAA_N_N@Z 000000018000b788 f   BugSplatNative.obj
 0001:0000a794       ?enableExceptionFilter@MiniDmpSender@@QEAA_N_N@Z 000000018000b794 f   BugSplatNative.obj
 0001:0000a7a0       ?getFlags@MiniDmpSender@@QEBAKXZ 000000018000b7a0 f   BugSplatNative.obj
 0001:0000a7a8       ?getMiniDumpType@MiniDmpSender@@QEBA?AW4_BS_MINIDUMP_TYPE@1@XZ 000000018000b7a8 f   BugSplatNative.obj
 0001:0000a7b4       ?getMinidumpPath@MiniDmpSender@@QEAAXPEA_W_K@Z 000000018000b7b4 f   BugSplatNative.obj
 0001:0000a7d4       ?imp@MiniDmpSender@@QEAAPEAXXZ 000000018000b7d4 f   BugSplatNative.obj
 0001:0000a7dc       ?isExceptionFilterEnabled@MiniDmpSender@@QEBA_NXZ 000000018000b7dc f   BugSplatNative.obj
 0001:0000a7e8       ?isNetworkAccessDisabled@MiniDmpSender@@QEBA_NXZ 000000018000b7e8 f   BugSplatNative.obj
 0001:0000a7f4       ?removeAdditionalFile@MiniDmpSender@@QEAA_NPEB_W@Z 000000018000b7f4 f   BugSplatNative.obj
 0001:0000a800       ?resetAppIdentifier@MiniDmpSender@@QEAAXPEB_W@Z 000000018000b800 f   BugSplatNative.obj
 0001:0000a80c       ?resetVersionString@MiniDmpSender@@QEAAXPEB_W@Z 000000018000b80c f   BugSplatNative.obj
 0001:0000a818       ?sendAdditionalFile@MiniDmpSender@@QEAAXPEB_W@Z 000000018000b818 f   BugSplatNative.obj
 0001:0000a824       ?setCallback@MiniDmpSender@@QEAAXP6A_NIPEAX0@Z@Z 000000018000b824 f   BugSplatNative.obj
 0001:0000a830       ?setDefaultUserDescription@MiniDmpSender@@QEAAXPEB_W@Z 000000018000b830 f   BugSplatNative.obj
 0001:0000a83c       ?setDefaultUserEmail@MiniDmpSender@@QEAAXPEB_W@Z 000000018000b83c f   BugSplatNative.obj
 0001:0000a848       ?setDefaultUserName@MiniDmpSender@@QEAAXPEB_W@Z 000000018000b848 f   BugSplatNative.obj
 0001:0000a854       ?setFlags@MiniDmpSender@@QEAA_NK@Z 000000018000b854 f   BugSplatNative.obj
 0001:0000a860       ?setGuardByteBufferSize@MiniDmpSender@@QEAAHH@Z 000000018000b860 f   BugSplatNative.obj
 0001:0000a86c       ?setHangDetectionTimeout@MiniDmpSender@@QEAAHH@Z 000000018000b86c f   BugSplatNative.obj
 0001:0000a878       ?setLogFilePath@MiniDmpSender@@QEAAXPEB_W@Z 000000018000b878 f   BugSplatNative.obj
 0001:0000a884       ?setMiniDumpType@MiniDmpSender@@QEAAXW4_BS_MINIDUMP_TYPE@1@@Z 000000018000b884 f   BugSplatNative.obj
 0001:0000a890       ?setNotes@MiniDmpSender@@QEAAXPEB_W@Z 000000018000b890 f   BugSplatNative.obj
 0001:0000a89c       ?setResourceDllPath@MiniDmpSender@@QEAAXPEB_W@Z 000000018000b89c f   BugSplatNative.obj
 0001:0000a8a8       ?setUserZipPath@MiniDmpSender@@QEAAXPEB_W@Z 000000018000b8a8 f   BugSplatNative.obj
 0001:0000a8b4       ?unhandledExceptionHandler@MiniDmpSender@@QEAAJPEAU_EXCEPTION_POINTERS@@@Z 000000018000b8b4 f   BugSplatNative.obj
 0001:0000a8bc       ?Lock@CAtlModule@ATL@@UEAAJXZ 000000018000b8bc f i BugSplatNativeApp.obj
 0001:0000a8cc       ?Unlock@CAtlModule@ATL@@UEAAJXZ 000000018000b8cc f i BugSplatNativeApp.obj
 0001:0000a8d8       ?GetLockCount@CAtlModule@ATL@@UEAAJXZ 000000018000b8d8 f i BugSplatNativeApp.obj
 0001:0000a8dc       ?GetGITPtr@CAtlModule@ATL@@UEAAJPEAPEAUIGlobalInterfaceTable@@@Z 000000018000b8dc f i BugSplatNativeApp.obj
 0001:0000a94c       ?AddCommonRGSReplacements@?$CAtlModuleT@VCComModule@ATL@@@ATL@@UEAAJPEAUIRegistrarBase@@@Z 000000018000b94c f i BugSplatNativeApp.obj
 0001:0000a964       ?UpdateRegistryFromResourceD@CComModule@ATL@@UEAAJPEB_WHPEAU_ATL_REGMAP_ENTRY@2@@Z 000000018000b964 f i BugSplatNativeApp.obj
 0001:0000a96c       ?UpdateRegistryFromResourceD@CComModule@ATL@@UEAAJIHPEAU_ATL_REGMAP_ENTRY@2@@Z 000000018000b96c f i BugSplatNativeApp.obj
 0001:0000a974       ?UpdateRegistryFromResource@CComModule@ATL@@UEAAJPEB_WHPEAU_ATL_REGMAP_ENTRY@2@@Z 000000018000b974 f i BugSplatNativeApp.obj
 0001:0000a97c       ?UpdateRegistryFromResource@CComModule@ATL@@UEAAJIHPEAU_ATL_REGMAP_ENTRY@2@@Z 000000018000b97c f i BugSplatNativeApp.obj
 0001:0000a984       ??_ECComModule@ATL@@UEAAPEAXI@Z 000000018000b984 f i BugSplatNativeApp.obj
 0001:0000a984       ??_GCComModule@ATL@@UEAAPEAXI@Z 000000018000b984 f i BugSplatNativeApp.obj
 0001:0000a9c4       ??_GCAppModule@WTL@@UEAAPEAXI@Z 000000018000b9c4 f i BugSplatNativeApp.obj
 0001:0000a9c4       ??_ECAppModule@WTL@@UEAAPEAXI@Z 000000018000b9c4 f i BugSplatNativeApp.obj
 0001:0000aa04       ?QueryInterface@CRegObject@ATL@@UEAAJAEBU_GUID@@PEAPEAX@Z 000000018000ba04 f i BugSplatNativeApp.obj
 0001:0000aa0c       ?AddRef@CRegObject@ATL@@UEAAKXZ 000000018000ba0c f i BugSplatNativeApp.obj
 0001:0000aa14       ?Release@CRegObject@ATL@@UEAAKXZ 000000018000ba14 f i BugSplatNativeApp.obj
 0001:0000aa18       ?AddReplacement@CRegObject@ATL@@UEAAJPEB_W0@Z 000000018000ba18 f i BugSplatNativeApp.obj
 0001:0000aa94       ?ClearReplacements@CRegObject@ATL@@UEAAJXZ 000000018000ba94 f i BugSplatNativeApp.obj
 0001:0000aad0       ??_ECRegObject@ATL@@UEAAPEAXI@Z 000000018000bad0 f i BugSplatNativeApp.obj
 0001:0000aad0       ??_GCRegObject@ATL@@UEAAPEAXI@Z 000000018000bad0 f i BugSplatNativeApp.obj
 0001:0000ab04       ??0CAtlModule@ATL@@QEAA@XZ 000000018000bb04 f i BugSplatNativeApp.obj
 0001:0000ab84       ??1?$CAtlSafeAllocBufferManager@VCCRTAllocator@ATL@@@_ATL_SAFE_ALLOCA_IMPL@ATL@@QEAA@XZ 000000018000bb84 f i BugSplatNativeApp.obj
 0001:0000abb0       ??1?$CAutoVectorPtr@_W@ATL@@QEAA@XZ 000000018000bbb0 f i BugSplatNativeApp.obj
 0001:0000abcc       ??1?$CTempBuffer@E$0BAA@VCCRTAllocator@ATL@@@ATL@@QEAA@XZ 000000018000bbcc f i BugSplatNativeApp.obj
 0001:0000abe4       ??1?$CTempBuffer@_W$0BAA@VCCRTAllocator@ATL@@@ATL@@QEAA@XZ 000000018000bbe4 f i BugSplatNativeApp.obj
 0001:0000abfc       ??1?$CTempBuffer@_W$0EAA@VCCRTAllocator@ATL@@@ATL@@QEAA@XZ 000000018000bbfc f i BugSplatNativeApp.obj
 0001:0000ac14       ??1CAtlModule@ATL@@UEAA@XZ 000000018000bc14 f i BugSplatNativeApp.obj
 0001:0000ac1c       ??1CParseBuffer@CRegParser@ATL@@QEAA@XZ 000000018000bc1c f i BugSplatNativeApp.obj
 0001:0000ac28       ??1CRegKey@ATL@@QEAA@XZ    000000018000bc28 f i BugSplatNativeApp.obj
 0001:0000ac50       ??1CRegObject@ATL@@UEAA@XZ 000000018000bc50 f i BugSplatNativeApp.obj
 0001:0000acd8       ?Add@?$CSimpleMap@PEA_WPEA_WVCExpansionVectorEqualHelper@ATL@@@ATL@@QEAAHAEBQEA_W0@Z 000000018000bcd8 f i BugSplatNativeApp.obj
 0001:0000ad78       ?Add@CExpansionVector@ATL@@QEAAHPEB_W0@Z 000000018000bd78 f i BugSplatNativeApp.obj
 0001:0000ae98       ?AddValue@CRegParser@ATL@@IEAAJAEAVCRegKey@2@PEB_WPEA_W@Z 000000018000be98 f i BugSplatNativeApp.obj
 0001:0000b320       ?AllocateHeap@?$CTempBuffer@E$0BAA@VCCRTAllocator@ATL@@@ATL@@AEAAX_K@Z 000000018000c320 f i BugSplatNativeApp.obj
 0001:0000b34c       ?AllocateHeap@?$CTempBuffer@_W$0BAA@VCCRTAllocator@ATL@@@ATL@@AEAAX_K@Z 000000018000c34c f i BugSplatNativeApp.obj
 0001:0000b378       ?AllocateHeap@?$CTempBuffer@_W$0EAA@VCCRTAllocator@ATL@@@ATL@@AEAAX_K@Z 000000018000c378 f i BugSplatNativeApp.obj
 0001:0000b3a4       ?Append@CParseBuffer@CRegParser@ATL@@QEAAHPEB_WH@Z 000000018000c3a4 f i BugSplatNativeApp.obj
 0001:0000b4ec       ?AtlHresultFromLastError@ATL@@YAJXZ 000000018000c4ec f i BugSplatNativeApp.obj
 0001:0000b50c       ?AtlHresultFromWin32@ATL@@YAJK@Z 000000018000c50c f i BugSplatNativeApp.obj
 0001:0000b51c       ?ChToByte@CRegParser@ATL@@KAE_W@Z 000000018000c51c f i BugSplatNativeApp.obj
 0001:0000b5a8       ?ClearReplacements@CExpansionVector@ATL@@QEAAJXZ 000000018000c5a8 f i BugSplatNativeApp.obj
 0001:0000b644       ?DeleteSubKey@CRegKey@ATL@@QEAAJPEB_W@Z 000000018000c644 f i BugSplatNativeApp.obj
 0001:0000b6dc       ?FreeHeap@?$CTempBuffer@E$0BAA@VCCRTAllocator@ATL@@@ATL@@AEAAXXZ 000000018000c6dc f i BugSplatNativeApp.obj
 0001:0000b6e4       ?FreeHeap@?$CTempBuffer@_W$0BAA@VCCRTAllocator@ATL@@@ATL@@AEAAXXZ 000000018000c6e4 f i BugSplatNativeApp.obj
 0001:0000b6ec       ?FreeHeap@?$CTempBuffer@_W$0EAA@VCCRTAllocator@ATL@@@ATL@@AEAAXXZ 000000018000c6ec f i BugSplatNativeApp.obj
 0001:0000b6f4       ?HKeyFromString@CRegParser@ATL@@KAPEAUHKEY__@@PEA_W@Z 000000018000c6f4 f i BugSplatNativeApp.obj
 0001:0000b758       ?Init@CAppModule@WTL@@QEAAJPEAU_ATL_OBJMAP_ENTRY30@ATL@@PEAUHINSTANCE__@@PEBU_GUID@@@Z 000000018000c758 f i BugSplatNativeApp.obj
 0001:0000b830       ?Lookup@?$CSimpleMap@PEA_WPEA_WVCExpansionVectorEqualHelper@ATL@@@ATL@@QEBAPEA_WAEBQEA_W@Z 000000018000c830 f i BugSplatNativeApp.obj
 0001:0000b8b8       ?NextToken@CRegParser@ATL@@IEAAJPEA_W@Z 000000018000c8b8 f i BugSplatNativeApp.obj
 0001:0000ba74       ?PreProcessBuffer@CRegParser@ATL@@QEAAJPEA_WPEAPEA_W@Z 000000018000ca74 f i BugSplatNativeApp.obj
 0001:0000be60       ?RecurseDeleteKey@CRegKey@ATL@@QEAAJPEB_W@Z 000000018000ce60 f i BugSplatNativeApp.obj
 0001:0000bfb8       ?RegCreateKeyExW@CAtlTransactionManager@ATL@@QEAAJPEAUHKEY__@@PEB_WKPEA_WKKQEAU_SECURITY_ATTRIBUTES@@PEAPEAU3@PEAK@Z 000000018000cfb8 f i BugSplatNativeApp.obj
 0001:0000c0ec       ?RegDeleteKeyW@CAtlTransactionManager@ATL@@QEAAJPEAUHKEY__@@PEB_W@Z 000000018000d0ec f i BugSplatNativeApp.obj
 0001:0000c178       ?RegOpenKeyExW@CAtlTransactionManager@ATL@@QEAAJPEAUHKEY__@@PEB_WKKPEAPEAU3@@Z 000000018000d178 f i BugSplatNativeApp.obj
 0001:0000c230       ?RegisterBuffer@CRegParser@ATL@@QEAAJPEA_WH@Z 000000018000d230 f i BugSplatNativeApp.obj
 0001:0000c39c       ?RegisterFromResource@CRegObject@ATL@@IEAAJPEB_W00H@Z 000000018000d39c f i BugSplatNativeApp.obj
 0001:0000c570       ?RegisterSubkeys@CRegParser@ATL@@IEAAJPEA_WPEAUHKEY__@@HH@Z 000000018000d570 f i BugSplatNativeApp.obj
 0001:0000cde4       ?SetMultiStringValue@CRegKey@ATL@@QEAAJPEB_W0@Z 000000018000dde4 f i BugSplatNativeApp.obj
 0001:0000ce64       ?SkipAssignment@CRegParser@ATL@@IEAAJPEA_W@Z 000000018000de64 f i BugSplatNativeApp.obj
 0001:0000cf0c       ?Term@CAppModule@WTL@@QEAAXXZ 000000018000df0c f i BugSplatNativeApp.obj
 0001:0000cf70       ?Term@CAtlModule@ATL@@QEAAXXZ 000000018000df70 f i BugSplatNativeApp.obj
 0001:0000cff0       ?Term@CComModule@ATL@@QEAAXXZ 000000018000dff0 f i BugSplatNativeApp.obj
 0001:0000d06c       ?TermSettingChangeNotify@CAppModule@WTL@@QEAAXXZ 000000018000e06c f i BugSplatNativeApp.obj
 0001:0000d0fc       ?UpdateRegistryFromResource@CAtlModule@ATL@@QEAAJIHPEAU_ATL_REGMAP_ENTRY@2@@Z 000000018000e0fc f i BugSplatNativeApp.obj
 0001:0000d3ec       ?UpdateRegistryFromResource@CAtlModule@ATL@@QEAAJPEB_WHPEAU_ATL_REGMAP_ENTRY@2@@Z 000000018000e3ec f i BugSplatNativeApp.obj
 0001:0000d6f8       ?VTFromRegType@CRegParser@ATL@@KAHPEB_WAEAG@Z 000000018000e6f8 f i BugSplatNativeApp.obj
 0001:0000d794       ?ocscpy_s@@YA_NPEA_W_KPEB_W@Z 000000018000e794 f i BugSplatNativeApp.obj
 0001:0000d848       DllMain                    000000018000e848 f   BugSplatNativeApp.obj
 0001:0000d884       ??1stringdispid@CComTypeInfoHolder@ATL@@QEAA@XZ 000000018000e884 f i StdAfx.obj
 0001:0000d890       ??_Estringdispid@CComTypeInfoHolder@ATL@@QEAAPEAXI@Z 000000018000e890 f i StdAfx.obj
 0001:0000d90d       InternetOpenW              000000018000e90d f   wininet:WININET.dll
 0001:0000d913       InternetCloseHandle        000000018000e913 f   wininet:WININET.dll
 0001:0000d919       InternetConnectW           000000018000e919 f   wininet:WININET.dll
 0001:0000d91f       InternetReadFile           000000018000e91f f   wininet:WININET.dll
 0001:0000d925       InternetQueryOptionW       000000018000e925 f   wininet:WININET.dll
 0001:0000d92b       InternetSetOptionW         000000018000e92b f   wininet:WININET.dll
 0001:0000d931       HttpOpenRequestW           000000018000e931 f   wininet:WININET.dll
 0001:0000d937       HttpSendRequestW           000000018000e937 f   wininet:WININET.dll
 0001:0000d93d       HttpQueryInfoW             000000018000e93d f   wininet:WININET.dll
 0001:0000d943       InternetAttemptConnect     000000018000e943 f   wininet:WININET.dll
 0001:0000d949       PathFileExistsW            000000018000e949 f   shlwapi:SHLWAPI.dll
 0001:0000d94f       PathAppendW                000000018000e94f f   shlwapi:SHLWAPI.dll
 0001:0000d955       PathRemoveExtensionW       000000018000e955 f   shlwapi:SHLWAPI.dll
 0001:0000d95b       PathStripPathW             000000018000e95b f   shlwapi:SHLWAPI.dll
 0001:0000d961       UrlEscapeW                 000000018000e961 f   shlwapi:SHLWAPI.dll
 0001:0000d967       CreateFileW                000000018000e967 f   kernel32:KERNEL32.dll
 0001:0000d96d       GetFileSize                000000018000e96d f   kernel32:KERNEL32.dll
 0001:0000d973       DecodePointer              000000018000e973 f   kernel32:KERNEL32.dll
 0001:0000d979       CloseHandle                000000018000e979 f   kernel32:KERNEL32.dll
 0001:0000d97f       RaiseException             000000018000e97f f   kernel32:KERNEL32.dll
 0001:0000d985       GetLastError               000000018000e985 f   kernel32:KERNEL32.dll
 0001:0000d98b       HeapDestroy                000000018000e98b f   kernel32:KERNEL32.dll
 0001:0000d991       HeapAlloc                  000000018000e991 f   kernel32:KERNEL32.dll
 0001:0000d997       HeapReAlloc                000000018000e997 f   kernel32:KERNEL32.dll
 0001:0000d99d       HeapFree                   000000018000e99d f   kernel32:KERNEL32.dll
 0001:0000d9a3       HeapSize                   000000018000e9a3 f   kernel32:KERNEL32.dll
 0001:0000d9a9       GetProcessHeap             000000018000e9a9 f   kernel32:KERNEL32.dll
 0001:0000d9af       InitializeCriticalSectionEx 000000018000e9af f   kernel32:KERNEL32.dll
 0001:0000d9b5       DeleteCriticalSection      000000018000e9b5 f   kernel32:KERNEL32.dll
 0001:0000d9bb       CreateFileMappingW         000000018000e9bb f   kernel32:KERNEL32.dll
 0001:0000d9c1       MapViewOfFile              000000018000e9c1 f   kernel32:KERNEL32.dll
 0001:0000d9c7       UnmapViewOfFile            000000018000e9c7 f   kernel32:KERNEL32.dll
 0001:0000d9cd       FindResourceExW            000000018000e9cd f   kernel32:KERNEL32.dll
 0001:0000d9d3       LoadResource               000000018000e9d3 f   kernel32:KERNEL32.dll
 0001:0000d9d9       LockResource               000000018000e9d9 f   kernel32:KERNEL32.dll
 0001:0000d9df       SizeofResource             000000018000e9df f   kernel32:KERNEL32.dll
 0001:0000d9e5       FindResourceW              000000018000e9e5 f   kernel32:KERNEL32.dll
 0001:0000d9eb       MultiByteToWideChar        000000018000e9eb f   kernel32:KERNEL32.dll
 0001:0000d9f1       WideCharToMultiByte        000000018000e9f1 f   kernel32:KERNEL32.dll
 0001:0000d9f7       DeleteFileW                000000018000e9f7 f   kernel32:KERNEL32.dll
 0001:0000d9fd       GetTempPathW               000000018000e9fd f   kernel32:KERNEL32.dll
 0001:0000da03       GetCurrentProcess          000000018000ea03 f   kernel32:KERNEL32.dll
 0001:0000da09       GetCurrentThreadId         000000018000ea09 f   kernel32:KERNEL32.dll
 0001:0000da0f       OpenThread                 000000018000ea0f f   kernel32:KERNEL32.dll
 0001:0000da15       SuspendThread              000000018000ea15 f   kernel32:KERNEL32.dll
 0001:0000da1b       ResumeThread               000000018000ea1b f   kernel32:KERNEL32.dll
 0001:0000da21       GetProcessId               000000018000ea21 f   kernel32:KERNEL32.dll
 0001:0000da27       GetProcAddress             000000018000ea27 f   kernel32:KERNEL32.dll
 0001:0000da2d       LoadLibraryW               000000018000ea2d f   kernel32:KERNEL32.dll
 0001:0000da33       CreateToolhelp32Snapshot   000000018000ea33 f   kernel32:KERNEL32.dll
 0001:0000da39       Thread32First              000000018000ea39 f   kernel32:KERNEL32.dll
 0001:0000da3f       Thread32Next               000000018000ea3f f   kernel32:KERNEL32.dll
 0001:0000da45       OutputDebugStringW         000000018000ea45 f   kernel32:KERNEL32.dll
 0001:0000da4b       SetUnhandledExceptionFilter 000000018000ea4b f   kernel32:KERNEL32.dll
 0001:0000da51       SetLastError               000000018000ea51 f   kernel32:KERNEL32.dll
 0001:0000da57       SetErrorMode               000000018000ea57 f   kernel32:KERNEL32.dll
 0001:0000da5d       EnterCriticalSection       000000018000ea5d f   kernel32:KERNEL32.dll
 0001:0000da63       LeaveCriticalSection       000000018000ea63 f   kernel32:KERNEL32.dll
 0001:0000da69       InitializeCriticalSectionAndSpinCount 000000018000ea69 f   kernel32:KERNEL32.dll
 0001:0000da6f       WaitForSingleObject        000000018000ea6f f   kernel32:KERNEL32.dll
 0001:0000da75       GetCurrentProcessId        000000018000ea75 f   kernel32:KERNEL32.dll
 0001:0000da7b       TerminateProcess           000000018000ea7b f   kernel32:KERNEL32.dll
 0001:0000da81       CreateProcessW             000000018000ea81 f   kernel32:KERNEL32.dll
 0001:0000da87       FlushInstructionCache      000000018000ea87 f   kernel32:KERNEL32.dll
 0001:0000da8d       OpenProcess                000000018000ea8d f   kernel32:KERNEL32.dll
 0001:0000da93       GetSystemTime              000000018000ea93 f   kernel32:KERNEL32.dll
 0001:0000da99       VirtualProtect             000000018000ea99 f   kernel32:KERNEL32.dll
 0001:0000da9f       VirtualQuery               000000018000ea9f f   kernel32:KERNEL32.dll
 0001:0000daa5       FreeLibrary                000000018000eaa5 f   kernel32:KERNEL32.dll
 0001:0000daab       GetModuleFileNameW         000000018000eaab f   kernel32:KERNEL32.dll
 0001:0000dab1       GetModuleHandleW           000000018000eab1 f   kernel32:KERNEL32.dll
 0001:0000dab7       LocalFree                  000000018000eab7 f   kernel32:KERNEL32.dll
 0001:0000dabd       FormatMessageW             000000018000eabd f   kernel32:KERNEL32.dll
 0001:0000dac3       WritePrivateProfileStringW 000000018000eac3 f   kernel32:KERNEL32.dll
 0001:0000dac9       SystemTimeToFileTime       000000018000eac9 f   kernel32:KERNEL32.dll
 0001:0000dacf       LoadLibraryExW             000000018000eacf f   kernel32:KERNEL32.dll
 0001:0000dad5       lstrcmpiW                  000000018000ead5 f   kernel32:KERNEL32.dll
 0001:0000dadb       UnregisterClassW           000000018000eadb f   user32:USER32.dll
 0001:0000dae1       LoadStringW                000000018000eae1 f   user32:USER32.dll
 0001:0000dae7       MessageBoxW                000000018000eae7 f   user32:USER32.dll
 0001:0000daed       DestroyWindow              000000018000eaed f   user32:USER32.dll
 0001:0000daf3       CharNextW                  000000018000eaf3 f   user32:USER32.dll
 0001:0000daf9       RegCloseKey                000000018000eaf9 f   advapi32:ADVAPI32.dll
 0001:0000daff       RegOpenKeyExW              000000018000eaff f   advapi32:ADVAPI32.dll
 0001:0000db05       RegQueryValueExW           000000018000eb05 f   advapi32:ADVAPI32.dll
 0001:0000db0b       RegCreateKeyW              000000018000eb0b f   advapi32:ADVAPI32.dll
 0001:0000db11       RegOpenKeyW                000000018000eb11 f   advapi32:ADVAPI32.dll
 0001:0000db17       RegSetValueExW             000000018000eb17 f   advapi32:ADVAPI32.dll
 0001:0000db1d       RegCreateKeyExW            000000018000eb1d f   advapi32:ADVAPI32.dll
 0001:0000db23       RegDeleteKeyW              000000018000eb23 f   advapi32:ADVAPI32.dll
 0001:0000db29       RegDeleteValueW            000000018000eb29 f   advapi32:ADVAPI32.dll
 0001:0000db2f       RegEnumKeyExW              000000018000eb2f f   advapi32:ADVAPI32.dll
 0001:0000db35       RegQueryInfoKeyW           000000018000eb35 f   advapi32:ADVAPI32.dll
 0001:0000db3b       CoCreateInstance           000000018000eb3b f   ole32:ole32.dll
 0001:0000db41       CoTaskMemAlloc             000000018000eb41 f   ole32:ole32.dll
 0001:0000db47       CoTaskMemRealloc           000000018000eb47 f   ole32:ole32.dll
 0001:0000db4d       CoTaskMemFree              000000018000eb4d f   ole32:ole32.dll
 0001:0000db53       VarUI4FromStr              000000018000eb53 f   oleaut32:OLEAUT32.dll
 0001:0000db59       SysFreeString              000000018000eb59 f   oleaut32:OLEAUT32.dll
 0001:0000db60       ??$?2PEAUHINSTANCE__@@@Wrapper@?$CSimpleArray@PEAUHINSTANCE__@@V?$CSimpleArrayEqualHelper@PEAUHINSTANCE__@@@ATL@@@ATL@@SAPEAX_KPEAPEAUHINSTANCE__@@@Z 000000018000eb60 f i atls:atlbase.obj
 0001:0000db64       ??0?$CComCritSecLock@VCComCriticalSection@ATL@@@ATL@@QEAA@AEAVCComCriticalSection@1@_N@Z 000000018000eb64 f i atls:atlbase.obj
 0001:0000db90       ??0?$CSimpleArray@PEAUHINSTANCE__@@V?$CSimpleArrayEqualHelper@PEAUHINSTANCE__@@@ATL@@@ATL@@QEAA@XZ 000000018000eb90 f i atls:atlbase.obj
 0001:0000dba0       ??0CAtlBaseModule@ATL@@QEAA@XZ 000000018000eba0 f   atls:atlbase.obj
 0001:0000dc48       ??0CComCriticalSection@ATL@@QEAA@XZ 000000018000ec48 f i atls:atlbase.obj
 0001:0000dc68       ??0Wrapper@?$CSimpleArray@PEAUHINSTANCE__@@V?$CSimpleArrayEqualHelper@PEAUHINSTANCE__@@@ATL@@@ATL@@QEAA@AEBQEAUHINSTANCE__@@@Z 000000018000ec68 f i atls:atlbase.obj
 0001:0000dc74       ??0_ATL_BASE_MODULE70@ATL@@QEAA@XZ 000000018000ec74 f i atls:atlbase.obj
 0001:0000dca0       ??1?$CComCritSecLock@VCComCriticalSection@ATL@@@ATL@@QEAA@XZ 000000018000eca0 f i atls:atlbase.obj
 0001:0000dcc4       ??1?$CSimpleArray@PEAUHINSTANCE__@@V?$CSimpleArrayEqualHelper@PEAUHINSTANCE__@@@ATL@@@ATL@@QEAA@XZ 000000018000ecc4 f i atls:atlbase.obj
 0001:0000dcec       ??1CAtlBaseModule@ATL@@QEAA@XZ 000000018000ecec f   atls:atlbase.obj
 0001:0000dd20       ??1CComCriticalSection@ATL@@QEAA@XZ 000000018000ed20 f i atls:atlbase.obj
 0001:0000dd24       ??1_ATL_BASE_MODULE70@ATL@@QEAA@XZ 000000018000ed24 f i atls:atlbase.obj
 0001:0000dd50       ??A?$CSimpleArray@PEAUHINSTANCE__@@V?$CSimpleArrayEqualHelper@PEAUHINSTANCE__@@@ATL@@@ATL@@QEAAAEAPEAUHINSTANCE__@@H@Z 000000018000ed50 f i atls:atlbase.obj
 0001:0000dd7c       ?Add@?$CSimpleArray@PEAUHINSTANCE__@@V?$CSimpleArrayEqualHelper@PEAUHINSTANCE__@@@ATL@@@ATL@@QEAAHAEBQEAUHINSTANCE__@@@Z 000000018000ed7c f i atls:atlbase.obj
 0001:0000de30       ?AddResourceInstance@CAtlBaseModule@ATL@@QEAA_NPEAUHINSTANCE__@@@Z 000000018000ee30 f   atls:atlbase.obj
 0001:0000de78       ?AtlCrtErrorCheck@ATL@@YAHH@Z 000000018000ee78 f i atls:atlbase.obj
 0001:0000debc       ?GetHInstanceAt@CAtlBaseModule@ATL@@QEAAPEAUHINSTANCE__@@H@Z 000000018000eebc f   atls:atlbase.obj
 0001:0000df34       ?GetSize@?$CSimpleArray@PEAUHINSTANCE__@@V?$CSimpleArrayEqualHelper@PEAUHINSTANCE__@@@ATL@@@ATL@@QEBAHXZ 000000018000ef34 f i atls:atlbase.obj
 0001:0000df38       ?Init@CComCriticalSection@ATL@@QEAAJXZ 000000018000ef38 f i atls:atlbase.obj
 0001:0000df6c       ?InternalSetAtIndex@?$CSimpleArray@PEAUHINSTANCE__@@V?$CSimpleArrayEqualHelper@PEAUHINSTANCE__@@@ATL@@@ATL@@QEAAXHAEBQEAUHINSTANCE__@@@Z 000000018000ef6c f i atls:atlbase.obj
 0001:0000df84       ?Lock@?$CComCritSecLock@VCComCriticalSection@ATL@@@ATL@@QEAAJXZ 000000018000ef84 f i atls:atlbase.obj
 0001:0000dfa4       ?Lock@CComCriticalSection@ATL@@QEAAJXZ 000000018000efa4 f i atls:atlbase.obj
 0001:0000dfb8       ?RemoveAll@?$CSimpleArray@PEAUHINSTANCE__@@V?$CSimpleArrayEqualHelper@PEAUHINSTANCE__@@@ATL@@@ATL@@QEAAXXZ 000000018000efb8 f i atls:atlbase.obj
 0001:0000dfe0       ?RemoveAt@?$CSimpleArray@PEAUHINSTANCE__@@V?$CSimpleArrayEqualHelper@PEAUHINSTANCE__@@@ATL@@@ATL@@QEAAHH@Z 000000018000efe0 f i atls:atlbase.obj
 0001:0000e084       ?RemoveResourceInstance@CAtlBaseModule@ATL@@QEAA_NPEAUHINSTANCE__@@@Z 000000018000f084 f   atls:atlbase.obj
 0001:0000e104       ?Term@CComCriticalSection@ATL@@QEAAJXZ 000000018000f104 f i atls:atlbase.obj
 0001:0000e118       ?Unlock@?$CComCritSecLock@VCComCriticalSection@ATL@@@ATL@@QEAAXXZ 000000018000f118 f i atls:atlbase.obj
 0001:0000e134       ?Unlock@CComCriticalSection@ATL@@QEAAJXZ 000000018000f134 f i atls:atlbase.obj
 0001:0000e148       ?memmove_s@Checked@ATL@@YAXPEAX_KPEBX1@Z 000000018000f148 f i atls:atlbase.obj
 0001:0000e19c       HRESULT_FROM_WIN32         000000018000f19c f i atls:atlbase.obj
 0001:0000e200       ??0?$CTraceCategoryEx@$00$0A@@ATL@@QEAA@PEB_W@Z 000000018000f200 f i atls:stdafx.obj
 0001:0000e204       ??0?$CTraceCategoryEx@$01$0A@@ATL@@QEAA@PEB_W@Z 000000018000f204 f i atls:stdafx.obj
 0001:0000e208       ??0?$CTraceCategoryEx@$03$0A@@ATL@@QEAA@PEB_W@Z 000000018000f208 f i atls:stdafx.obj
 0001:0000e20c       ??0?$CTraceCategoryEx@$07$0A@@ATL@@QEAA@PEB_W@Z 000000018000f20c f i atls:stdafx.obj
 0001:0000e210       ??0?$CTraceCategoryEx@$0BA@$0A@@ATL@@QEAA@PEB_W@Z 000000018000f210 f i atls:stdafx.obj
 0001:0000e214       ??0?$CTraceCategoryEx@$0BAA@$0A@@ATL@@QEAA@PEB_W@Z 000000018000f214 f i atls:stdafx.obj
 0001:0000e218       ??0?$CTraceCategoryEx@$0BAAA@$0A@@ATL@@QEAA@PEB_W@Z 000000018000f218 f i atls:stdafx.obj
 0001:0000e21c       ??0?$CTraceCategoryEx@$0BAAAA@$0A@@ATL@@QEAA@PEB_W@Z 000000018000f21c f i atls:stdafx.obj
 0001:0000e220       ??0?$CTraceCategoryEx@$0BAAAAA@$0A@@ATL@@QEAA@PEB_W@Z 000000018000f220 f i atls:stdafx.obj
 0001:0000e224       ??0?$CTraceCategoryEx@$0CA@$0A@@ATL@@QEAA@PEB_W@Z 000000018000f224 f i atls:stdafx.obj
 0001:0000e228       ??0?$CTraceCategoryEx@$0CAA@$0A@@ATL@@QEAA@PEB_W@Z 000000018000f228 f i atls:stdafx.obj
 0001:0000e22c       ??0?$CTraceCategoryEx@$0CAAA@$0A@@ATL@@QEAA@PEB_W@Z 000000018000f22c f i atls:stdafx.obj
 0001:0000e230       ??0?$CTraceCategoryEx@$0CAAAA@$0A@@ATL@@QEAA@PEB_W@Z 000000018000f230 f i atls:stdafx.obj
 0001:0000e234       ??0?$CTraceCategoryEx@$0CAAAAA@$0A@@ATL@@QEAA@PEB_W@Z 000000018000f234 f i atls:stdafx.obj
 0001:0000e238       ??0?$CTraceCategoryEx@$0EA@$0A@@ATL@@QEAA@PEB_W@Z 000000018000f238 f i atls:stdafx.obj
 0001:0000e23c       ??0?$CTraceCategoryEx@$0EAA@$0A@@ATL@@QEAA@PEB_W@Z 000000018000f23c f i atls:stdafx.obj
 0001:0000e240       ??0?$CTraceCategoryEx@$0EAAA@$0A@@ATL@@QEAA@PEB_W@Z 000000018000f240 f i atls:stdafx.obj
 0001:0000e244       ??0?$CTraceCategoryEx@$0EAAAA@$0A@@ATL@@QEAA@PEB_W@Z 000000018000f244 f i atls:stdafx.obj
 0001:0000e248       ??0?$CTraceCategoryEx@$0EAAAAA@$0A@@ATL@@QEAA@PEB_W@Z 000000018000f248 f i atls:stdafx.obj
 0001:0000e24c       ??0?$CTraceCategoryEx@$0IA@$0A@@ATL@@QEAA@PEB_W@Z 000000018000f24c f i atls:stdafx.obj
 0001:0000e250       ??0?$CTraceCategoryEx@$0IAA@$0A@@ATL@@QEAA@PEB_W@Z 000000018000f250 f i atls:stdafx.obj
 0001:0000e254       ??0?$CTraceCategoryEx@$0IAAA@$0A@@ATL@@QEAA@PEB_W@Z 000000018000f254 f i atls:stdafx.obj
 0001:0000e258       ??0?$CTraceCategoryEx@$0IAAAA@$0A@@ATL@@QEAA@PEB_W@Z 000000018000f258 f i atls:stdafx.obj
 0001:0000e25c       ??_I@YAXPEAX_K1P6AX0@Z@Z   000000018000f25c f i atls:stdafx.obj
 0001:0000e2b4       ??0bad_alloc@std@@QEAA@XZ  000000018000f2b4 f i libcpmt:xthrow.obj
 0001:0000e2d4       ??0bad_function_call@std@@QEAA@AEBV01@@Z 000000018000f2d4 f i libcpmt:xthrow.obj
 0001:0000e310       ??0bad_function_call@std@@QEAA@XZ 000000018000f310 f i libcpmt:xthrow.obj
 0001:0000e328       ??0exception@std@@QEAA@QEBD@Z 000000018000f328 f i libcpmt:xthrow.obj
 0001:0000e368       ??0exception@std@@QEAA@QEBDH@Z 000000018000f368 f i libcpmt:xthrow.obj
 0001:0000e380       ??0exception@std@@QEAA@XZ  000000018000f380 f i libcpmt:xthrow.obj
 0001:0000e398       ??0invalid_argument@std@@QEAA@AEBV01@@Z 000000018000f398 f i libcpmt:xthrow.obj
 0001:0000e3d4       ??0invalid_argument@std@@QEAA@PEBD@Z 000000018000f3d4 f i libcpmt:xthrow.obj
 0001:0000e41c       ??0length_error@std@@QEAA@AEBV01@@Z 000000018000f41c f i libcpmt:xthrow.obj
 0001:0000e458       ??0length_error@std@@QEAA@PEBD@Z 000000018000f458 f i libcpmt:xthrow.obj
 0001:0000e4a0       ??0logic_error@std@@QEAA@AEBV01@@Z 000000018000f4a0 f i libcpmt:xthrow.obj
 0001:0000e4dc       ??0logic_error@std@@QEAA@PEBD@Z 000000018000f4dc f i libcpmt:xthrow.obj
 0001:0000e524       ??0out_of_range@std@@QEAA@AEBV01@@Z 000000018000f524 f i libcpmt:xthrow.obj
 0001:0000e560       ??0out_of_range@std@@QEAA@PEBD@Z 000000018000f560 f i libcpmt:xthrow.obj
 0001:0000e5a8       ??0overflow_error@std@@QEAA@AEBV01@@Z 000000018000f5a8 f i libcpmt:xthrow.obj
 0001:0000e5e4       ??0overflow_error@std@@QEAA@PEBD@Z 000000018000f5e4 f i libcpmt:xthrow.obj
 0001:0000e62c       ??0regex_error@std@@QEAA@AEBV01@@Z 000000018000f62c f i libcpmt:xthrow.obj
 0001:0000e678       ??0regex_error@std@@QEAA@W4error_type@regex_constants@1@@Z 000000018000f678 f i libcpmt:xthrow.obj
 0001:0000e6dc       ??0runtime_error@std@@QEAA@AEBV01@@Z 000000018000f6dc f i libcpmt:xthrow.obj
 0001:0000e718       ??0runtime_error@std@@QEAA@PEBD@Z 000000018000f718 f i libcpmt:xthrow.obj
 0001:0000e760       ??1bad_alloc@std@@UEAA@XZ  000000018000f760 f i libcpmt:xthrow.obj
 0001:0000e774       ??1bad_function_call@std@@UEAA@XZ 000000018000f774 f i libcpmt:xthrow.obj
 0001:0000e788       ??1invalid_argument@std@@UEAA@XZ 000000018000f788 f i libcpmt:xthrow.obj
 0001:0000e79c       ??1length_error@std@@UEAA@XZ 000000018000f79c f i libcpmt:xthrow.obj
 0001:0000e7b0       ??1logic_error@std@@UEAA@XZ 000000018000f7b0 f i libcpmt:xthrow.obj
 0001:0000e7c4       ??1out_of_range@std@@UEAA@XZ 000000018000f7c4 f i libcpmt:xthrow.obj
 0001:0000e7d8       ??1overflow_error@std@@UEAA@XZ 000000018000f7d8 f i libcpmt:xthrow.obj
 0001:0000e7ec       ??1regex_error@std@@UEAA@XZ 000000018000f7ec f i libcpmt:xthrow.obj
 0001:0000e800       ??1runtime_error@std@@UEAA@XZ 000000018000f800 f i libcpmt:xthrow.obj
 0001:0000e814       ??_Ebad_function_call@std@@UEAAPEAXI@Z 000000018000f814 f i libcpmt:xthrow.obj
 0001:0000e814       ??_Gbad_function_call@std@@UEAAPEAXI@Z 000000018000f814 f i libcpmt:xthrow.obj
 0001:0000e858       ??_Einvalid_argument@std@@UEAAPEAXI@Z 000000018000f858 f i libcpmt:xthrow.obj
 0001:0000e858       ??_Ginvalid_argument@std@@UEAAPEAXI@Z 000000018000f858 f i libcpmt:xthrow.obj
 0001:0000e89c       ??_Elength_error@std@@UEAAPEAXI@Z 000000018000f89c f i libcpmt:xthrow.obj
 0001:0000e89c       ??_Glength_error@std@@UEAAPEAXI@Z 000000018000f89c f i libcpmt:xthrow.obj
 0001:0000e8e0       ??_Elogic_error@std@@UEAAPEAXI@Z 000000018000f8e0 f i libcpmt:xthrow.obj
 0001:0000e8e0       ??_Glogic_error@std@@UEAAPEAXI@Z 000000018000f8e0 f i libcpmt:xthrow.obj
 0001:0000e924       ??_Gout_of_range@std@@UEAAPEAXI@Z 000000018000f924 f i libcpmt:xthrow.obj
 0001:0000e924       ??_Eout_of_range@std@@UEAAPEAXI@Z 000000018000f924 f i libcpmt:xthrow.obj
 0001:0000e968       ??_Goverflow_error@std@@UEAAPEAXI@Z 000000018000f968 f i libcpmt:xthrow.obj
 0001:0000e968       ??_Eoverflow_error@std@@UEAAPEAXI@Z 000000018000f968 f i libcpmt:xthrow.obj
 0001:0000e9ac       ??_Eregex_error@std@@UEAAPEAXI@Z 000000018000f9ac f i libcpmt:xthrow.obj
 0001:0000e9ac       ??_Gregex_error@std@@UEAAPEAXI@Z 000000018000f9ac f i libcpmt:xthrow.obj
 0001:0000e9f0       ??_Gruntime_error@std@@UEAAPEAXI@Z 000000018000f9f0 f i libcpmt:xthrow.obj
 0001:0000e9f0       ??_Eruntime_error@std@@UEAAPEAXI@Z 000000018000f9f0 f i libcpmt:xthrow.obj
 0001:0000ea34       ?_Stringify@regex_error@std@@CAPEBDW4error_type@regex_constants@2@@Z 000000018000fa34 f i libcpmt:xthrow.obj
 0001:0000eb00       ?_Xbad_alloc@std@@YAXXZ    000000018000fb00 f   libcpmt:xthrow.obj
 0001:0000eb20       ?_Xbad_function_call@std@@YAXXZ 000000018000fb20 f   libcpmt:xthrow.obj
 0001:0000eb40       ?_Xinvalid_argument@std@@YAXPEBD@Z 000000018000fb40 f   libcpmt:xthrow.obj
 0001:0000eb64       ?_Xlength_error@std@@YAXPEBD@Z 000000018000fb64 f   libcpmt:xthrow.obj
 0001:0000eb88       ?_Xout_of_range@std@@YAXPEBD@Z 000000018000fb88 f   libcpmt:xthrow.obj
 0001:0000ebac       ?_Xoverflow_error@std@@YAXPEBD@Z 000000018000fbac f   libcpmt:xthrow.obj
 0001:0000ebd0       ?_Xregex_error@std@@YAXW4error_type@regex_constants@1@@Z 000000018000fbd0 f   libcpmt:xthrow.obj
 0001:0000ebf4       ?_Xruntime_error@std@@YAXPEBD@Z 000000018000fbf4 f   libcpmt:xthrow.obj
 0001:0000ec18       ?what@bad_function_call@std@@UEBAPEBDXZ 000000018000fc18 f i libcpmt:xthrow.obj
 0001:0000ec20       ??2@YAPEAX_K@Z             000000018000fc20 f   LIBCMT:new_scalar.obj
 0001:0000ec5c       ??3@YAXPEAX_K@Z            000000018000fc5c f   LIBCMT:delete_scalar_size.obj
 0001:0000ec64       ?configure_argv@__scrt_narrow_argv_policy@@SAHXZ 000000018000fc64 f i LIBCMT:utility.obj
 0001:0000ecc4       ?initialize_environment@__scrt_narrow_environment_policy@@SAHXZ 000000018000fcc4 f i LIBCMT:utility.obj
 0001:0000ecfc       NtCurrentTeb               000000018000fcfc f i LIBCMT:utility.obj
 0001:0000ed08       __scrt_acquire_startup_lock 000000018000fd08 f   LIBCMT:utility.obj
 0001:0000ed44       __scrt_dllmain_after_initialize_c 000000018000fd44 f   LIBCMT:utility.obj
 0001:0000ed78       __scrt_dllmain_before_initialize_c 000000018000fd78 f   LIBCMT:utility.obj
 0001:0000ed90       __scrt_dllmain_crt_thread_attach 000000018000fd90 f   LIBCMT:utility.obj
 0001:0000edb8       __scrt_dllmain_crt_thread_detach 000000018000fdb8 f   LIBCMT:utility.obj
 0001:0000edd0       __scrt_dllmain_exception_filter 000000018000fdd0 f   LIBCMT:utility.obj
 0001:0000ee30       __scrt_dllmain_uninitialize_c 000000018000fe30 f   LIBCMT:utility.obj
 0001:0000ee60       __scrt_dllmain_uninitialize_critical 000000018000fe60 f   LIBCMT:utility.obj
 0001:0000ee74       __scrt_initialize_crt      000000018000fe74 f   LIBCMT:utility.obj
 0001:0000eec0       __scrt_initialize_onexit_tables 000000018000fec0 f   LIBCMT:utility.obj
 0001:0000ef4c       __scrt_is_nonwritable_in_current_image 000000018000ff4c f   LIBCMT:utility.obj
 0001:0000efe4       __scrt_release_startup_lock 000000018000ffe4 f   LIBCMT:utility.obj
 0001:0000f008       __scrt_uninitialize_crt    0000000180010008 f   LIBCMT:utility.obj
 0001:0000f034       _onexit                    0000000180010034 f   LIBCMT:utility.obj
 0001:0000f070       at_quick_exit              0000000180010070 f   LIBCMT:utility.obj
 0001:0000f090       atexit                     0000000180010090 f   LIBCMT:utility.obj
 0001:0000f258       _Init_thread_abort         0000000180010258 f   LIBCMT:thread_safe_statics.obj
 0001:0000f288       _Init_thread_footer        0000000180010288 f   LIBCMT:thread_safe_statics.obj
 0001:0000f2e8       _Init_thread_header        00000001800102e8 f   LIBCMT:thread_safe_statics.obj
 0001:0000f350       _Init_thread_lock          0000000180010350 f   LIBCMT:thread_safe_statics.obj
 0001:0000f360       _Init_thread_notify        0000000180010360 f   LIBCMT:thread_safe_statics.obj
 0001:0000f3a4       _Init_thread_unlock        00000001800103a4 f   LIBCMT:thread_safe_statics.obj
 0001:0000f3b4       _Init_thread_wait          00000001800103b4 f   LIBCMT:thread_safe_statics.obj
 0001:0000f418       __GSHandlerCheck           0000000180010418 f   LIBCMT:gshandler.obj
 0001:0000f438       __GSHandlerCheckCommon     0000000180010438 f   LIBCMT:gshandler.obj
 0001:0000f494       __GSHandlerCheck_EH4       0000000180010494 f   LIBCMT:gshandlereh4.obj
 0001:0000f530       __chkstk                   0000000180010530 f   LIBCMT:chkstk.obj
 0001:0000f530       _alloca_probe              0000000180010530 f   LIBCMT:chkstk.obj
 0001:0000f590       __security_check_cookie    0000000180010590 f   LIBCMT:amdsecgs.obj
 0001:0000f5b0       ??1type_info@@UEAA@XZ      00000001800105b0 f   LIBCMT:std_type_info_static.obj
 0001:0000f5bc       ??_Gtype_info@@UEAAPEAXI@Z 00000001800105bc f i LIBCMT:std_type_info_static.obj
 0001:0000f5bc       ??_Etype_info@@UEAAPEAXI@Z 00000001800105bc f i LIBCMT:std_type_info_static.obj
 0001:0000f5e8       ??3@YAXPEAX@Z              00000001800105e8 f   LIBCMT:delete_scalar.obj
 0001:0000f5f0       ??_M@YAXPEAX_K1P6AX0@Z@Z   00000001800105f0 f   LIBCMT:ehvecdtr.obj
 0001:0000f65c       ??_M@YAXPEAX_KHP6AX0@Z@Z   000000018001065c f   LIBCMT:ehvecdtr.obj
 0001:0000f6a4       ?__ArrayUnwind@@YAXPEAX_K1P6AX0@Z@Z 00000001800106a4 f   LIBCMT:ehvecdtr.obj
 0001:0000f708       ??_V@YAXPEAX_K@Z           0000000180010708 f   LIBCMT:delete_array_size.obj
 0001:0000f710       ??_U@YAPEAX_K@Z            0000000180010710 f   LIBCMT:new_array.obj
 0001:0000f718       ??_V@YAXPEAX@Z             0000000180010718 f   LIBCMT:delete_array.obj
 0001:0000f720       __raise_securityfailure    0000000180010720 f   LIBCMT:gs_report.obj
 0001:0000f754       __report_gsfailure         0000000180010754 f   LIBCMT:gs_report.obj
 0001:0000f828       __report_rangecheckfailure 0000000180010828 f   LIBCMT:gs_report.obj
 0001:0000f83c       __report_securityfailure   000000018001083c f   LIBCMT:gs_report.obj
 0001:0000f8d8       __report_securityfailureEx 00000001800108d8 f   LIBCMT:gs_report.obj
 0001:0000facc       ??_U@YAPEAX_KAEBUnothrow_t@std@@@Z 0000000180010acc f   LIBCMT:new_array_nothrow.obj
 0001:0000fe10       _CRT_INIT                  0000000180010e10 f   LIBCMT:dll_dllmain.obj
 0001:0000fe18       _DllMainCRTStartup         0000000180010e18 f   LIBCMT:dll_dllmain.obj
 0001:0000fe58       _guard_check_icall_nop     0000000180010e58 f i LIBCMT:guard_support.obj
 0001:0000fe5c       ReadNoFence64              0000000180010e5c f i LIBCMT:guard_support.obj
 0001:0000fe60       ReadPointerNoFence         0000000180010e60 f i LIBCMT:guard_support.obj
 0001:0000fe64       __castguard_check_failure_debugbreak 0000000180010e64 f i LIBCMT:guard_support.obj
 0001:0000fe80       __castguard_check_failure_fastfail 0000000180010e80 f i LIBCMT:guard_support.obj
 0001:0000fea4       __castguard_check_failure_nop 0000000180010ea4 f i LIBCMT:guard_support.obj
 0001:0000fea8       __castguard_check_failure_os_handled 0000000180010ea8 f i LIBCMT:guard_support.obj
 0001:0000ff08       __castguard_slow_path_check_debugbreak 0000000180010f08 f i LIBCMT:guard_support.obj
 0001:0000ff3c       __castguard_slow_path_check_fastfail 0000000180010f3c f i LIBCMT:guard_support.obj
 0001:0000ff78       __castguard_slow_path_check_nop 0000000180010f78 f i LIBCMT:guard_support.obj
 0001:0000ff7c       __castguard_slow_path_check_os_handled 0000000180010f7c f i LIBCMT:guard_support.obj
 0001:0000fff0       _guard_icall_checks_enforced 0000000180010ff0 f i LIBCMT:guard_support.obj
 0001:00010008       _guard_rf_checks_enforced  0000000180011008 f i LIBCMT:guard_support.obj
 0001:0001000c       ??0bad_alloc@std@@AEAA@QEBD@Z 000000018001100c f i LIBCMT:throw_bad_alloc.obj
 0001:00010024       ?__scrt_throw_std_bad_alloc@@YAXXZ 0000000180011024 f   LIBCMT:throw_bad_alloc.obj
 0001:00010044       ?__scrt_throw_std_bad_array_new_length@@YAXXZ 0000000180011044 f   LIBCMT:throw_bad_alloc.obj
 0001:00010064       __isa_available_init       0000000180011064 f   LIBCMT:cpu_disp.obj
 0001:00010208       _get_startup_argv_mode     0000000180011208 f   LIBCMT:argv_mode.obj
 0001:00010210       __scrt_is_ucrt_dll_in_use  0000000180011210 f   LIBCMT:ucrt_detection.obj
 0001:0001021c       __crt_debugger_hook        000000018001121c f   LIBCMT:utility_desktop.obj
 0001:00010224       __scrt_fastfail            0000000180011224 f   LIBCMT:utility_desktop.obj
 0001:00010370       __scrt_get_show_window_mode 0000000180011370 f   LIBCMT:utility_desktop.obj
 0001:000103ac       __scrt_initialize_mta      00000001800113ac f   LIBCMT:utility_desktop.obj
 0001:000103b4       __scrt_initialize_winrt    00000001800113b4 f   LIBCMT:utility_desktop.obj
 0001:000103b8       __scrt_is_managed_app      00000001800113b8 f   LIBCMT:utility_desktop.obj
 0001:0001040c       __scrt_set_unhandled_exception_filter 000000018001140c f   LIBCMT:utility_desktop.obj
 0001:0001041c       __scrt_stub_for_initialize_mta 000000018001141c f   LIBCMT:utility_desktop.obj
 0001:0001041c       __scrt_exe_initialize_mta  000000018001141c f   LIBCMT:utility_desktop.obj
 0001:00010420       __scrt_unhandled_exception_filter 0000000180011420 f   LIBCMT:utility_desktop.obj
 0001:0001047c       ??2@YAPEAX_KAEBUnothrow_t@std@@@Z 000000018001147c f   LIBCMT:new_scalar_nothrow.obj
 0001:000104fc       __security_init_cookie     00000001800114fc f   LIBCMT:gs_support.obj
 0001:000105a8       ?__scrt_initialize_type_info@@YAXXZ 00000001800115a8 f   LIBCMT:tncleanup.obj
 0001:000105b8       ?__scrt_uninitialize_type_info@@YAXXZ 00000001800115b8 f   LIBCMT:tncleanup.obj
 0001:000105c4       __local_stdio_scanf_options 00000001800115c4 f i LIBCMT:default_local_stdio_options.obj
 0001:000105cc       __scrt_initialize_default_local_stdio_options 00000001800115cc f   LIBCMT:default_local_stdio_options.obj
 0001:000105e8       __scrt_get_dyn_tls_init_callback 00000001800115e8 f   LIBCMT:dyn_tls_init.obj
 0001:000105f0       _RTC_Initialize            00000001800115f0 f   LIBCMT:initsect.obj
 0001:0001062c       _RTC_Terminate             000000018001162c f   LIBCMT:initsect.obj
 0001:00010670       RpcStringFreeW             0000000180011670 f   Rpcrt4:RPCRT4.dll
 0001:00010676       UuidCreate                 0000000180011676 f   Rpcrt4:RPCRT4.dll
 0001:0001067c       UuidToStringW              000000018001167c f   Rpcrt4:RPCRT4.dll
 0001:00010684       __DestructExceptionObject  0000000180011684 f   libvcruntime:ehhelpers.obj
 0001:000106f4       ?_CallMemberFunction0@@YAXQEAX0@Z 00000001800116f4 f i libvcruntime:ehhelpers.obj
 0001:00010750       ?raw_name@type_info@@QEBAPEBDXZ 0000000180011750 f i libvcruntime:ehhelpers.obj
 0001:00010758       _IsExceptionObjectToBeDestroyed 0000000180011758 f   libvcruntime:ehhelpers.obj
 0001:00010788       _SetWinRTOutOfMemoryExceptionCallback 0000000180011788 f   libvcruntime:ehhelpers.obj
 0001:00010790       __AdjustPointer            0000000180011790 f   libvcruntime:ehhelpers.obj
 0001:000107b4       __FrameUnwindFilter        00000001800117b4 f   libvcruntime:ehhelpers.obj
 0001:0001081c       __GetPlatformExceptionInfo 000000018001181c f   libvcruntime:ehhelpers.obj
 0001:00010878       __current_exception        0000000180011878 f   libvcruntime:ehhelpers.obj
 0001:0001088c       __current_exception_context 000000018001188c f   libvcruntime:ehhelpers.obj
 0001:000108a0       __processing_throw         00000001800118a0 f   libvcruntime:ehhelpers.obj
 0001:000108b4       __std_terminate            00000001800118b4 f   libvcruntime:ehhelpers.obj
 0001:000108c0       _is_exception_typeof       00000001800118c0 f   libvcruntime:ehhelpers.obj
 0001:00010980       memcpy_repmovs             0000000180011980 f   libvcruntime:memcpy.obj
 0001:000109a0       memmove                    00000001800119a0 f   libvcruntime:memcpy.obj
 0001:000109a0       memcpy                     00000001800119a0 f   libvcruntime:memcpy.obj
 0001:00011030       memset_repmovs             0000000180012030 f   libvcruntime:memset.obj
 0001:00011050       memset                     0000000180012050 f   libvcruntime:memset.obj
 0001:000111e0       wcsstr                     00000001800121e0 f   libvcruntime:wcsstr.obj
 0001:000113f8       ??$?RD@__crt_public_free_policy@@QEBAXQEBD@Z 00000001800123f8 f i libvcruntime:std_exception.obj
 0001:00011400       ??0?$__crt_unique_heap_ptr@DU__crt_public_free_policy@@@@QEAA@QEAD@Z 0000000180012400 f i libvcruntime:std_exception.obj
 0001:00011408       ??1?$__crt_unique_heap_ptr@DU__crt_public_free_policy@@@@QEAA@XZ 0000000180012408 f i libvcruntime:std_exception.obj
 0001:00011424       ??B?$__crt_unique_heap_ptr@DU__crt_public_free_policy@@@@QEBA_NXZ 0000000180012424 f i libvcruntime:std_exception.obj
 0001:0001142c       ?detach@?$__crt_unique_heap_ptr@DU__crt_public_free_policy@@@@QEAAPEADXZ 000000018001242c f i libvcruntime:std_exception.obj
 0001:00011434       ?get@?$__crt_unique_heap_ptr@DU__crt_public_free_policy@@@@QEBAPEADXZ 0000000180012434 f i libvcruntime:std_exception.obj
 0001:00011438       ?is_valid@?$__crt_unique_heap_ptr@DU__crt_public_free_policy@@@@QEBA_NXZ 0000000180012438 f i libvcruntime:std_exception.obj
 0001:00011440       ?release@?$__crt_unique_heap_ptr@DU__crt_public_free_policy@@@@QEAAXXZ 0000000180012440 f i libvcruntime:std_exception.obj
 0001:0001145c       __std_exception_copy       000000018001245c f   libvcruntime:std_exception.obj
 0001:000114ec       __std_exception_destroy    00000001800124ec f   libvcruntime:std_exception.obj
 0001:00011514       _CxxThrowException         0000000180012514 f   libvcruntime:throw.obj
 0001:000115b4       ??$?0AEAViterator@TryBlockMap4@FH4@@AEAV012@$0A@@?$pair@Viterator@TryBlockMap4@FH4@@V123@@std@@QEAA@AEAViterator@TryBlockMap4@FH4@@0@Z 00000001800125b4 f i libvcruntime:risctrnsctrl.obj
 0001:000115c8       ??$?0AEAViterator@TryBlockMap@__FrameHandler3@@AEAV012@$0A@@?$pair@Viterator@TryBlockMap@__FrameHandler3@@V123@@std@@QEAA@AEAViterator@TryBlockMap@__FrameHandler3@@0@Z 00000001800125c8 f i libvcruntime:risctrnsctrl.obj
 0001:00011718       ??$_CallSETranslator@V__FrameHandler3@@@@YAHPEAUEHExceptionRecord@@PEA_KPEAU_CONTEXT@@PEAU_xDISPATCHER_CONTEXT@@PEBU_s_FuncInfo@@K1H@Z 0000000180012718 f i libvcruntime:risctrnsctrl.obj
 0001:0001176c       ??$_CallSETranslator@V__FrameHandler4@@@@YAHPEAUEHExceptionRecord@@PEA_KPEAU_CONTEXT@@PEAU_xDISPATCHER_CONTEXT@@PEAUFuncInfo4@FH4@@K1H@Z 000000018001276c f i libvcruntime:risctrnsctrl.obj
 0001:000117c0       ??$forward@AEAViterator@TryBlockMap4@FH4@@@std@@YAAEAViterator@TryBlockMap4@FH4@@AEAV123@@Z 00000001800127c0 f i libvcruntime:risctrnsctrl.obj
 0001:000117c4       ??$forward@AEAViterator@TryBlockMap@__FrameHandler3@@@std@@YAAEAViterator@TryBlockMap@__FrameHandler3@@AEAV123@@Z 00000001800127c4 f i libvcruntime:risctrnsctrl.obj
 0001:000117c8       ??0FuncInfo4@FH4@@QEAA@XZ  00000001800127c8 f i libvcruntime:risctrnsctrl.obj
 0001:000117dc       ??0FuncInfoHeader@FH4@@QEAA@XZ 00000001800127dc f i libvcruntime:risctrnsctrl.obj
 0001:000117e4       ??0iterator@TryBlockMap4@FH4@@QEAA@AEAV12@I@Z 00000001800127e4 f i libvcruntime:risctrnsctrl.obj
 0001:000117f0       ??0iterator@TryBlockMap@__FrameHandler3@@QEAA@AEAV12@I@Z 00000001800127f0 f i libvcruntime:risctrnsctrl.obj
 0001:000117fc       ??4iterator@TryBlockMap4@FH4@@QEAAAEAV012@AEBV012@@Z 00000001800127fc f i libvcruntime:risctrnsctrl.obj
 0001:00011808       ??9iterator@TryBlockMap4@FH4@@QEBA_NAEBV012@@Z 0000000180012808 f i libvcruntime:risctrnsctrl.obj
 0001:00011814       ??Diterator@TryBlockMap4@FH4@@QEAA?AUTryBlockMapEntry4@2@XZ 0000000180012814 f i libvcruntime:risctrnsctrl.obj
 0001:00011824       ??Eiterator@TryBlockMap4@FH4@@QEAAAEAV012@XZ 0000000180012824 f i libvcruntime:risctrnsctrl.obj
 0001:000118c0       ?CatchTryBlock@__FrameHandler3@@SAPEBU_s_TryBlockMapEntry@@PEBU_s_FuncInfo@@H@Z 00000001800128c0 f   libvcruntime:risctrnsctrl.obj
 0001:00011914       ?DecompFuncInfo@FH4@@YA_JPEAEAEAUFuncInfo4@1@_KH@Z 0000000180012914 f i libvcruntime:risctrnsctrl.obj
 0001:00011928       ?DecompFuncInfo@FH4@@YA_JPEAEAEAUFuncInfo4@1@_KH_N@Z 0000000180012928 f i libvcruntime:risctrnsctrl.obj
 0001:00011a4c       ?DecompTryBlock@TryBlockMap4@FH4@@AEAAXXZ 0000000180012a4c f i libvcruntime:risctrnsctrl.obj
 0001:00011ae0       ?ExecutionInCatch@__FrameHandler3@@SA_NPEAU_xDISPATCHER_CONTEXT@@PEBU_s_FuncInfo@@@Z 0000000180012ae0 f   libvcruntime:risctrnsctrl.obj
 0001:00011b0c       ?ExecutionInCatch@__FrameHandler4@@SA_NPEAU_xDISPATCHER_CONTEXT@@PEAUFuncInfo4@FH4@@@Z 0000000180012b0c f   libvcruntime:risctrnsctrl.obj
 0001:00011b14       ?FrameUnwindToEmptyState@__FrameHandler3@@SAXPEA_KPEAU_xDISPATCHER_CONTEXT@@PEBU_s_FuncInfo@@@Z 0000000180012b14 f   libvcruntime:risctrnsctrl.obj
 0001:00011b78       ?FrameUnwindToEmptyState@__FrameHandler4@@SAXPEA_KPEAU_xDISPATCHER_CONTEXT@@PEAUFuncInfo4@FH4@@@Z 0000000180012b78 f   libvcruntime:risctrnsctrl.obj
 0001:00011bac       ?GetEstablisherFrame@__FrameHandler3@@SAPEA_KPEA_KPEAU_xDISPATCHER_CONTEXT@@PEBU_s_FuncInfo@@0@Z 0000000180012bac f   libvcruntime:risctrnsctrl.obj
 0001:00011c78       ?GetEstablisherFrame@__FrameHandler4@@SAPEA_KPEA_KPEAU_xDISPATCHER_CONTEXT@@PEAUFuncInfo4@FH4@@0@Z 0000000180012c78 f   libvcruntime:risctrnsctrl.obj
 0001:00011c9c       ?GetRangeOfTrysToCheck@__FrameHandler3@@SA?AU?$pair@Viterator@TryBlockMap@__FrameHandler3@@V123@@std@@AEAVTryBlockMap@1@HPEAU_xDISPATCHER_CONTEXT@@PEBU_s_FuncInfo@@H@Z 0000000180012c9c f   libvcruntime:risctrnsctrl.obj
 0001:00011ddc       ?GetRangeOfTrysToCheck@__FrameHandler4@@SA?AU?$pair@Viterator@TryBlockMap4@FH4@@V123@@std@@AEAVTryBlockMap4@FH4@@HPEAU_xDISPATCHER_CONTEXT@@PEAUFuncInfo4@5@H@Z 0000000180012ddc f   libvcruntime:risctrnsctrl.obj
 0001:00011f44       ?ReadInt@FH4@@YAHPEAPEAE@Z 0000000180012f44 f i libvcruntime:risctrnsctrl.obj
 0001:00011f54       ?ReadUnsigned@FH4@@YAIPEAPEAE@Z 0000000180012f54 f i libvcruntime:risctrnsctrl.obj
 0001:00011f84       ?UnwindNestedFrames@__FrameHandler3@@SAXPEA_KPEAUEHExceptionRecord@@PEAU_CONTEXT@@0PEAXPEBU_s_FuncInfo@@HHPEBU_s_HandlerType@@PEAU_xDISPATCHER_CONTEXT@@E@Z 0000000180012f84 f   libvcruntime:risctrnsctrl.obj
 0001:00012088       ?UnwindNestedFrames@__FrameHandler4@@SAXPEA_KPEAUEHExceptionRecord@@PEAU_CONTEXT@@0PEAXPEAUFuncInfo4@FH4@@HHPEAUHandlerType4@5@PEAU_xDISPATCHER_CONTEXT@@E@Z 0000000180013088 f   libvcruntime:risctrnsctrl.obj
 0001:000121a8       ?begin@TryBlockMap4@FH4@@QEAA?AViterator@12@XZ 00000001800131a8 f i libvcruntime:risctrnsctrl.obj
 0001:000121b4       ?end@TryBlockMap4@FH4@@QEAA?AViterator@12@XZ 00000001800131b4 f i libvcruntime:risctrnsctrl.obj
 0001:000121c0       ?imageRelToByteBuffer@FH4@@YAPEAE_KH@Z 00000001800131c0 f i libvcruntime:risctrnsctrl.obj
 0001:000121c8       ?incrementToSentinel@iterator@TryBlockMap4@FH4@@QEAAXXZ 00000001800131c8 f i libvcruntime:risctrnsctrl.obj
 0001:000121cc       ?setBuffer@TryBlockMap4@FH4@@QEAAXViterator@12@@Z 00000001800131cc f i libvcruntime:risctrnsctrl.obj
 0001:0001238c       _CreateFrameInfo           000000018001338c f   libvcruntime:risctrnsctrl.obj
 0001:000123c8       _FindAndUnlinkFrame        00000001800133c8 f   libvcruntime:risctrnsctrl.obj
 0001:0001241c       _GetImageBase              000000018001341c f   libvcruntime:risctrnsctrl.obj
 0001:00012430       _GetThrowImageBase         0000000180013430 f   libvcruntime:risctrnsctrl.obj
 0001:00012444       _SetImageBase              0000000180013444 f   libvcruntime:risctrnsctrl.obj
 0001:0001245c       _SetThrowImageBase         000000018001345c f   libvcruntime:risctrnsctrl.obj
 0001:00012474       __CxxFrameHandler          0000000180013474 f   libvcruntime:risctrnsctrl.obj
 0001:0001247c       __CxxFrameHandler2         000000018001347c f   libvcruntime:risctrnsctrl.obj
 0001:00012484       __CxxFrameHandler3         0000000180013484 f   libvcruntime:risctrnsctrl.obj
 0001:0001250c       __CxxFrameHandler4         000000018001350c f   libvcruntime:risctrnsctrl.obj
 0001:000125cc       ??$__crt_interlocked_exchange_pointer@$$A6AXXZP6AXXZ@@YAP6AXXZPEDS6AXXZQ6AXXZ@Z 00000001800135cc f i libvcruntime:purevirt.obj
 0001:000125d4       ??$__crt_interlocked_read_pointer@$$A6AXXZ@@YAP6AXXZPEDS6AXXZ@Z 00000001800135d4 f i libvcruntime:purevirt.obj
 0001:000125dc       ?__crt_interlocked_read_64@@YA_JPED_J@Z 00000001800135dc f i libvcruntime:purevirt.obj
 0001:000125e4       _get_purecall_handler      00000001800135e4 f   libvcruntime:purevirt.obj
 0001:000125f0       _purecall                  00000001800135f0 f   libvcruntime:purevirt.obj
 0001:0001260c       _set_purecall_handler      000000018001360c f   libvcruntime:purevirt.obj
 0001:00012630       memcmp                     0000000180013630 f   libvcruntime:memcmp.obj
 0001:000126f8       wcsrchr                    00000001800136f8 f   libvcruntime:wcsrchr.obj
 0001:000127bc       _get_unexpected            00000001800137bc f   libvcruntime:unexpected.obj
 0001:000127e0       set_unexpected             00000001800137e0 f   libvcruntime:unexpected.obj
 0001:0001280c       unexpected                 000000018001380c f   libvcruntime:unexpected.obj
 0001:0001282c       __vcrt_initialize          000000018001382c f   libvcruntime:initialization.obj
 0001:00012854       __vcrt_thread_attach       0000000180013854 f   libvcruntime:initialization.obj
 0001:00012868       __vcrt_thread_detach       0000000180013868 f   libvcruntime:initialization.obj
 0001:0001287c       __vcrt_uninitialize        000000018001387c f   libvcruntime:initialization.obj
 0001:00012898       __vcrt_uninitialize_critical 0000000180013898 f   libvcruntime:initialization.obj
 0001:000128ac       __C_specific_handler       00000001800138ac f   libvcruntime:riscchandler.obj
 0001:00012ac8       ??$?RD@__crt_internal_free_policy@@QEBAXQEBD@Z 0000000180013ac8 f i libvcruntime:std_type_info.obj
 0001:00012ad0       ??$?RX@__crt_internal_free_policy@@QEBAXQEBX@Z 0000000180013ad0 f i libvcruntime:std_type_info.obj
 0001:00012ad8       ??$__crt_interlocked_compare_exchange_pointer@$$CBDPEAD$$T@@YAPEBDPEDSEBDQEAD$$T@Z 0000000180013ad8 f i libvcruntime:std_type_info.obj
 0001:00012ae4       ??$__crt_interlocked_read_pointer@$$CBD@@YAPEBDPEDSEBD@Z 0000000180013ae4 f i libvcruntime:std_type_info.obj
 0001:00012aec       ??0?$__crt_unique_heap_ptr@DU__crt_internal_free_policy@@@@QEAA@QEAD@Z 0000000180013aec f i libvcruntime:std_type_info.obj
 0001:00012af4       ??0?$__crt_unique_heap_ptr@XU__crt_internal_free_policy@@@@QEAA@QEAX@Z 0000000180013af4 f i libvcruntime:std_type_info.obj
 0001:00012afc       ??1?$__crt_unique_heap_ptr@DU__crt_internal_free_policy@@@@QEAA@XZ 0000000180013afc f i libvcruntime:std_type_info.obj
 0001:00012b18       ??1?$__crt_unique_heap_ptr@XU__crt_internal_free_policy@@@@QEAA@XZ 0000000180013b18 f i libvcruntime:std_type_info.obj
 0001:00012b34       ??B?$__crt_unique_heap_ptr@DU__crt_internal_free_policy@@@@QEBA_NXZ 0000000180013b34 f i libvcruntime:std_type_info.obj
 0001:00012b3c       ??B?$__crt_unique_heap_ptr@XU__crt_internal_free_policy@@@@QEBA_NXZ 0000000180013b3c f i libvcruntime:std_type_info.obj
 0001:00012b64       ?detach@?$__crt_unique_heap_ptr@XU__crt_internal_free_policy@@@@QEAAPEAXXZ 0000000180013b64 f i libvcruntime:std_type_info.obj
 0001:00012b6c       ?get@?$__crt_unique_heap_ptr@DU__crt_internal_free_policy@@@@QEBAPEADXZ 0000000180013b6c f i libvcruntime:std_type_info.obj
 0001:00012b70       ?get@?$__crt_unique_heap_ptr@XU__crt_internal_free_policy@@@@QEBAPEAXXZ 0000000180013b70 f i libvcruntime:std_type_info.obj
 0001:00012b74       ?is_valid@?$__crt_unique_heap_ptr@DU__crt_internal_free_policy@@@@QEBA_NXZ 0000000180013b74 f i libvcruntime:std_type_info.obj
 0001:00012b7c       ?is_valid@?$__crt_unique_heap_ptr@XU__crt_internal_free_policy@@@@QEBA_NXZ 0000000180013b7c f i libvcruntime:std_type_info.obj
 0001:00012b84       ?release@?$__crt_unique_heap_ptr@DU__crt_internal_free_policy@@@@QEAAXXZ 0000000180013b84 f i libvcruntime:std_type_info.obj
 0001:00012ba0       ?release@?$__crt_unique_heap_ptr@XU__crt_internal_free_policy@@@@QEAAXXZ 0000000180013ba0 f i libvcruntime:std_type_info.obj
 0001:00012bbc       __std_type_info_compare    0000000180013bbc f   libvcruntime:std_type_info.obj
 0001:00012be4       __std_type_info_destroy_list 0000000180013be4 f   libvcruntime:std_type_info.obj
 0001:00012c10       __std_type_info_hash       0000000180013c10 f   libvcruntime:std_type_info.obj
 0001:00012c48       __std_type_info_name       0000000180013c48 f   libvcruntime:std_type_info.obj
 0001:00012d60       ??$?RU__vcrt_ptd@@@__crt_internal_free_policy@@QEBAXQEBU__vcrt_ptd@@@Z 0000000180013d60 f i libvcruntime:per_thread_data.obj
 0001:00012d68       ??0?$__crt_unique_heap_ptr@U__vcrt_ptd@@U__crt_internal_free_policy@@@@QEAA@QEAU__vcrt_ptd@@@Z 0000000180013d68 f i libvcruntime:per_thread_data.obj
 0001:00012d8c       ??1?$__crt_unique_heap_ptr@U__vcrt_ptd@@U__crt_internal_free_policy@@@@QEAA@XZ 0000000180013d8c f i libvcruntime:per_thread_data.obj
 0001:00012db4       ??B?$__crt_unique_heap_ptr@U__vcrt_ptd@@U__crt_internal_free_policy@@@@QEBA_NXZ 0000000180013db4 f i libvcruntime:per_thread_data.obj
 0001:00012dbc       ?detach@?$__crt_unique_heap_ptr@U__vcrt_ptd@@U__crt_internal_free_policy@@@@QEAAPEAU__vcrt_ptd@@XZ 0000000180013dbc f i libvcruntime:per_thread_data.obj
 0001:00012dc4       ?get@?$__crt_unique_heap_ptr@U__vcrt_ptd@@U__crt_internal_free_policy@@@@QEBAPEAU__vcrt_ptd@@XZ 0000000180013dc4 f i libvcruntime:per_thread_data.obj
 0001:00012dc8       ?is_valid@?$__crt_unique_heap_ptr@U__vcrt_ptd@@U__crt_internal_free_policy@@@@QEBA_NXZ 0000000180013dc8 f i libvcruntime:per_thread_data.obj
 0001:00012dd0       ?release@?$__crt_unique_heap_ptr@U__vcrt_ptd@@U__crt_internal_free_policy@@@@QEAAXXZ 0000000180013dd0 f i libvcruntime:per_thread_data.obj
 0001:00012e18       __vcrt_freefls             0000000180013e18 f   libvcruntime:per_thread_data.obj
 0001:00012e38       __vcrt_freeptd             0000000180013e38 f   libvcruntime:per_thread_data.obj
 0001:00012e88       __vcrt_getptd              0000000180013e88 f   libvcruntime:per_thread_data.obj
 0001:00012ea4       __vcrt_getptd_noexit       0000000180013ea4 f   libvcruntime:per_thread_data.obj
 0001:00012f64       __vcrt_getptd_noinit       0000000180013f64 f   libvcruntime:per_thread_data.obj
 0001:00012fb4       __vcrt_initialize_ptd      0000000180013fb4 f   libvcruntime:per_thread_data.obj
 0001:00012ffc       __vcrt_uninitialize_ptd    0000000180013ffc f   libvcruntime:per_thread_data.obj
 0001:00013020       ?GetCurrentState@__FrameHandler3@@SAHPEA_KPEAU_xDISPATCHER_CONTEXT@@PEBU_s_FuncInfo@@@Z 0000000180014020 f   libvcruntime:ehstate.obj
 0001:00013048       ?GetUnwindTryBlock@__FrameHandler3@@SAHPEA_KPEAU_xDISPATCHER_CONTEXT@@PEBU_s_FuncInfo@@@Z 0000000180014048 f   libvcruntime:ehstate.obj
 0001:00013074       ?SetState@__FrameHandler3@@SAXPEA_KPEBU_s_FuncInfo@@H@Z 0000000180014074 f   libvcruntime:ehstate.obj
 0001:00013080       ?SetUnwindTryBlock@__FrameHandler3@@SAXPEA_KPEAU_xDISPATCHER_CONTEXT@@PEBU_s_FuncInfo@@H@Z 0000000180014080 f   libvcruntime:ehstate.obj
 0001:000130bc       ?StateFromControlPc@__FrameHandler3@@SAHPEBU_s_FuncInfo@@PEAU_xDISPATCHER_CONTEXT@@@Z 00000001800140bc f   libvcruntime:ehstate.obj
 0001:000130c4       ?StateFromControlPc@__FrameHandler4@@SAHPEAUFuncInfo4@FH4@@PEAU_xDISPATCHER_CONTEXT@@@Z 00000001800140c4 f   libvcruntime:ehstate.obj
 0001:000130cc       ?StateFromIp@__FrameHandler3@@SAHPEBU_s_FuncInfo@@PEAU_xDISPATCHER_CONTEXT@@_K@Z 00000001800140cc f   libvcruntime:ehstate.obj
 0001:00013134       ?StateFromIp@__FrameHandler4@@SAHPEAUFuncInfo4@FH4@@PEAU_xDISPATCHER_CONTEXT@@_K@Z 0000000180014134 f   libvcruntime:ehstate.obj
 0001:0001321c       ?__FuncRelToRealOffset@@YA_KPEAU_xDISPATCHER_CONTEXT@@I@Z 000000018001421c f i libvcruntime:ehstate.obj
 0001:0001322c       ?__RVAtoRealOffset@@YA_KPEAU_xDISPATCHER_CONTEXT@@H@Z 000000018001422c f i libvcruntime:ehstate.obj
 0001:00014834       ??$TypeMatchHelper@V__FrameHandler3@@@@YAHPEBU_s_HandlerType@@PEBU_s_CatchableType@@PEBU_s_ThrowInfo@@@Z 0000000180015834 f i libvcruntime:frame.obj
 0001:00014974       ??$TypeMatchHelper@V__FrameHandler4@@@@YAHPEAUHandlerType4@FH4@@PEBU_s_CatchableType@@PEBU_s_ThrowInfo@@@Z 0000000180015974 f i libvcruntime:frame.obj
 0001:00014ab8       ??$__InternalCxxFrameHandler@V__FrameHandler3@@@@YA?AW4_EXCEPTION_DISPOSITION@@PEAUEHExceptionRecord@@PEA_KPEAU_CONTEXT@@PEAU_xDISPATCHER_CONTEXT@@PEBU_s_FuncInfo@@H1E@Z 0000000180015ab8 f i libvcruntime:frame.obj
 0001:00014cf0       ??$__InternalCxxFrameHandler@V__FrameHandler4@@@@YA?AW4_EXCEPTION_DISPOSITION@@PEAUEHExceptionRecord@@PEA_KPEAU_CONTEXT@@PEAU_xDISPATCHER_CONTEXT@@PEAUFuncInfo4@FH4@@H1E@Z 0000000180015cf0 f i libvcruntime:frame.obj
 0001:00014f84       ??0HandlerMap4@FH4@@QEAA@PEBUTryBlockMapEntry4@1@_KH@Z 0000000180015f84 f i libvcruntime:frame.obj
 0001:00015000       ??0HandlerMap@__FrameHandler3@@QEAA@PEBU_s_TryBlockMapEntry@@_KI@Z 0000000180016000 f i libvcruntime:frame.obj
 0001:00015014       ??0HandlerType4@FH4@@QEAA@XZ 0000000180016014 f i libvcruntime:frame.obj
 0001:0001502c       ??0TryBlockMap4@FH4@@QEAA@PEBUFuncInfo4@1@_K@Z 000000018001602c f i libvcruntime:frame.obj
 0001:00015104       ??0TryBlockMap@__FrameHandler3@@QEAA@PEBU_s_FuncInfo@@_K@Z 0000000180016104 f i libvcruntime:frame.obj
 0001:00015110       ??0UWMap4@FH4@@QEAA@PEBUFuncInfo4@1@_K@Z 0000000180016110 f i libvcruntime:frame.obj
 0001:00015154       ??0bad_exception@std@@QEAA@AEBV01@@Z 0000000180016154 f i libvcruntime:frame.obj
 0001:00015190       ??0bad_exception@std@@QEAA@XZ 0000000180016190 f i libvcruntime:frame.obj
 0001:000151b0       ??0iterator@HandlerMap4@FH4@@QEAA@AEAV12@I@Z 00000001800161b0 f i libvcruntime:frame.obj
 0001:000151bc       ??0iterator@HandlerMap@__FrameHandler3@@QEAA@AEAV12@I@Z 00000001800161bc f i libvcruntime:frame.obj
 0001:000151c8       ??0iterator@UWMap4@FH4@@QEAA@AEAV12@PEAE@Z 00000001800161c8 f i libvcruntime:frame.obj
 0001:000151d4       ??1bad_exception@std@@UEAA@XZ 00000001800161d4 f i libvcruntime:frame.obj
 0001:000151e8       ??4iterator@UWMap4@FH4@@QEAAAEAV012@AEBV012@@Z 00000001800161e8 f i libvcruntime:frame.obj
 0001:00015208       ??8iterator@HandlerMap4@FH4@@QEBA_NAEBV012@@Z 0000000180016208 f i libvcruntime:frame.obj
 0001:00015214       ??8iterator@HandlerMap@__FrameHandler3@@QEBA_NAEBV012@@Z 0000000180016214 f i libvcruntime:frame.obj
 0001:00015220       ??8type_info@@QEBA_NAEBV0@@Z 0000000180016220 f i libvcruntime:frame.obj
 0001:0001523c       ??9iterator@HandlerMap4@FH4@@QEBA_NAEBV012@@Z 000000018001623c f i libvcruntime:frame.obj
 0001:00015248       ??9iterator@HandlerMap@__FrameHandler3@@QEBA_NAEBV012@@Z 0000000180016248 f i libvcruntime:frame.obj
 0001:00015254       ??Diterator@HandlerMap4@FH4@@QEAA?AUHandlerType4@2@XZ 0000000180016254 f i libvcruntime:frame.obj
 0001:00015274       ??Diterator@HandlerMap@__FrameHandler3@@QEAA?BU_s_HandlerType@@XZ 0000000180016274 f i libvcruntime:frame.obj
 0001:00015298       ??Diterator@TryBlockMap@__FrameHandler3@@QEAA?BU_s_TryBlockMapEntry@@XZ 0000000180016298 f i libvcruntime:frame.obj
 0001:000152c8       ??Diterator@UWMap4@FH4@@QEAA?AUUnwindMapEntry4@2@XZ 00000001800162c8 f i libvcruntime:frame.obj
 0001:0001531c       ??Eiterator@HandlerMap4@FH4@@QEAAAEAV012@XZ 000000018001631c f i libvcruntime:frame.obj
 0001:0001533c       ??Eiterator@HandlerMap@__FrameHandler3@@QEAAAEAV012@XZ 000000018001633c f i libvcruntime:frame.obj
 0001:00015344       ??Eiterator@TryBlockMap@__FrameHandler3@@QEAAAEAV012@XZ 0000000180016344 f i libvcruntime:frame.obj
 0001:0001534c       ??Eiterator@UWMap4@FH4@@QEAAAEAV012@XZ 000000018001634c f i libvcruntime:frame.obj
 0001:0001536c       ??Giterator@UWMap4@FH4@@QEBA_JAEBV012@@Z 000000018001636c f i libvcruntime:frame.obj
 0001:00015378       ??Miterator@TryBlockMap4@FH4@@QEBA_NAEBV012@@Z 0000000180016378 f i libvcruntime:frame.obj
 0001:00015384       ??Miterator@TryBlockMap@__FrameHandler3@@QEBA_NAEBV012@@Z 0000000180016384 f i libvcruntime:frame.obj
 0001:00015390       ??Oiterator@UWMap4@FH4@@QEBA_NAEBV012@@Z 0000000180016390 f i libvcruntime:frame.obj
 0001:0001539c       ??Piterator@UWMap4@FH4@@QEBA_NAEBV012@@Z 000000018001639c f i libvcruntime:frame.obj
 0001:000153a8       ??_Ebad_exception@std@@UEAAPEAXI@Z 00000001800163a8 f i libvcruntime:frame.obj
 0001:000153a8       ??_Gbad_exception@std@@UEAAPEAXI@Z 00000001800163a8 f i libvcruntime:frame.obj
 0001:000153ec       ?BuildCatchObject@__FrameHandler3@@SAXPEAUEHExceptionRecord@@PEAXPEBU_s_HandlerType@@PEBU_s_CatchableType@@@Z 00000001800163ec f   libvcruntime:frame.obj
 0001:000153f4       ?BuildCatchObject@__FrameHandler4@@SAXPEAUEHExceptionRecord@@PEAXPEAUHandlerType4@FH4@@PEBU_s_CatchableType@@@Z 00000001800163f4 f   libvcruntime:frame.obj
 0001:000153fc       ?BuildCatchObjectHelper@__FrameHandler3@@SAHPEAUEHExceptionRecord@@PEAXPEBU_s_HandlerType@@PEBU_s_CatchableType@@@Z 00000001800163fc f   libvcruntime:frame.obj
 0001:00015404       ?BuildCatchObjectHelper@__FrameHandler4@@SAHPEAUEHExceptionRecord@@PEAXPEAUHandlerType4@FH4@@PEBU_s_CatchableType@@@Z 0000000180016404 f   libvcruntime:frame.obj
 0001:0001540c       ?CxxCallCatchBlock@__FrameHandler3@@SAPEAXPEAU_EXCEPTION_RECORD@@@Z 000000018001640c f   libvcruntime:frame.obj
 0001:000155f8       ?CxxCallCatchBlock@__FrameHandler4@@SAPEAXPEAU_EXCEPTION_RECORD@@@Z 00000001800165f8 f   libvcruntime:frame.obj
 0001:00015848       ?DecompHandler@HandlerMap4@FH4@@AEAAXXZ 0000000180016848 f i libvcruntime:frame.obj
 0001:00015a88       ?FrameUnwindToState@__FrameHandler3@@SAXPEA_KPEAU_xDISPATCHER_CONTEXT@@PEBU_s_FuncInfo@@H@Z 0000000180016a88 f   libvcruntime:frame.obj
 0001:00015c14       ?FrameUnwindToState@__FrameHandler4@@SAXPEA_KPEAU_xDISPATCHER_CONTEXT@@PEAUFuncInfo4@FH4@@H@Z 0000000180016c14 f   libvcruntime:frame.obj
 0001:00015efc       ?GetHandlerSearchState@__FrameHandler3@@SAHPEA_KPEAU_xDISPATCHER_CONTEXT@@PEBU_s_FuncInfo@@@Z 0000000180016efc f i libvcruntime:frame.obj
 0001:00015f94       ?GetHandlerSearchState@__FrameHandler4@@SAHPEA_KPEAU_xDISPATCHER_CONTEXT@@PEAUFuncInfo4@FH4@@@Z 0000000180016f94 f i libvcruntime:frame.obj
 0001:00015ff8       ?GetMaxState@__FrameHandler3@@SAHPEAU_xDISPATCHER_CONTEXT@@PEBU_s_FuncInfo@@@Z 0000000180016ff8 f i libvcruntime:frame.obj
 0001:00015ffc       ?GetMaxState@__FrameHandler4@@SAHPEAU_xDISPATCHER_CONTEXT@@PEAUFuncInfo4@FH4@@@Z 0000000180016ffc f i libvcruntime:frame.obj
 0001:000161ac       ?ReadEntry@UWMap4@FH4@@AEAAXPEAPEAE@Z 00000001800171ac f i libvcruntime:frame.obj
 0001:0001624c       ?TypeMatch@__FrameHandler3@@SAHPEBU_s_HandlerType@@PEBU_s_CatchableType@@PEBU_s_ThrowInfo@@@Z 000000018001724c f   libvcruntime:frame.obj
 0001:00016254       ?TypeMatch@__FrameHandler4@@SAHPEAUHandlerType4@FH4@@PEBU_s_CatchableType@@PEBU_s_ThrowInfo@@@Z 0000000180017254 f   libvcruntime:frame.obj
 0001:0001625c       ?WalkBack@UWMap4@FH4@@AEAAXPEAPEAE@Z 000000018001725c f i libvcruntime:frame.obj
 0001:00016294       ?WalkBack@iterator@UWMap4@FH4@@QEAAXXZ 0000000180017294 f i libvcruntime:frame.obj
 0001:000162d4       ?WalkForward@UWMap4@FH4@@AEAAXPEAPEAE@Z 00000001800172d4 f i libvcruntime:frame.obj
 0001:000162dc       ?_CallMemberFunction1@@YAXQEAX00@Z 00000001800172dc f i libvcruntime:frame.obj
 0001:000162e8       ?_CallMemberFunction2@@YAXQEAX00H@Z 00000001800172e8 f i libvcruntime:frame.obj
 0001:0001630c       ?begin@HandlerMap4@FH4@@QEAA?AViterator@12@XZ 000000018001730c f i libvcruntime:frame.obj
 0001:00016318       ?begin@HandlerMap@__FrameHandler3@@QEAA?AViterator@12@XZ 0000000180017318 f i libvcruntime:frame.obj
 0001:00016324       ?begin@UWMap4@FH4@@QEAA?AViterator@12@XZ 0000000180017324 f i libvcruntime:frame.obj
 0001:00016334       ?end@HandlerMap4@FH4@@QEAA?AViterator@12@XZ 0000000180017334 f i libvcruntime:frame.obj
 0001:00016340       ?end@HandlerMap@__FrameHandler3@@QEAA?AViterator@12@XZ 0000000180017340 f i libvcruntime:frame.obj
 0001:0001634c       ?getESTypes@__FrameHandler3@@SAPEBU_s_ESTypeList@@PEBU_s_FuncInfo@@@Z 000000018001734c f i libvcruntime:frame.obj
 0001:00016374       ?getESTypes@__FrameHandler4@@SAPEBU_s_ESTypeList@@PEAUFuncInfo4@FH4@@@Z 0000000180017374 f i libvcruntime:frame.obj
 0001:00016378       ?getLastEntry@HandlerMap4@FH4@@QEAAPEAUHandlerType4@2@XZ 0000000180017378 f i libvcruntime:frame.obj
 0001:000163c8       ?getLastEntry@HandlerMap@__FrameHandler3@@QEAAPEBU_s_HandlerType@@XZ 00000001800173c8 f i libvcruntime:frame.obj
 0001:000163dc       ?getMagicNum@__FrameHandler3@@SAIPEBU_s_FuncInfo@@@Z 00000001800173dc f i libvcruntime:frame.obj
 0001:000163e4       ?getMagicNum@__FrameHandler4@@SAIPEAUFuncInfo4@FH4@@@Z 00000001800173e4 f i libvcruntime:frame.obj
 0001:000163ec       ?getNumTryBlocks@TryBlockMap4@FH4@@QEAAIXZ 00000001800173ec f i libvcruntime:frame.obj
 0001:000163f0       ?getNumTryBlocks@TryBlockMap@__FrameHandler3@@QEAAIXZ 00000001800173f0 f i libvcruntime:frame.obj
 0001:000163f8       ?getStartStop@UWMap4@FH4@@QEAAXHHAEAViterator@12@0@Z 00000001800173f8 f i libvcruntime:frame.obj
 0001:000164c8       ?getStateFromIterators@UWMap4@FH4@@SAHAEBViterator@12@H0H0@Z 00000001800174c8 f i libvcruntime:frame.obj
 0001:00016590       ?isEHs@__FrameHandler3@@SA_NPEBU_s_FuncInfo@@@Z 0000000180017590 f i libvcruntime:frame.obj
 0001:00016598       ?isEHs@__FrameHandler4@@SA_NPEAUFuncInfo4@FH4@@@Z 0000000180017598 f i libvcruntime:frame.obj
 0001:000165a0       ?isNoExcept@__FrameHandler3@@SA_NPEBU_s_FuncInfo@@@Z 00000001800175a0 f i libvcruntime:frame.obj
 0001:000165ac       ?isNoExcept@__FrameHandler4@@SA_NPEAUFuncInfo4@FH4@@@Z 00000001800175ac f i libvcruntime:frame.obj
 0001:000165b4       ?reset@HandlerType4@FH4@@QEAAXXZ 00000001800175b4 f i libvcruntime:frame.obj
 0001:000165c8       ?resetBuffer@HandlerMap4@FH4@@QEAAXXZ 00000001800175c8 f i libvcruntime:frame.obj
 0001:000165d8       ?setBuffer@HandlerMap4@FH4@@QEAAXI@Z 00000001800175d8 f i libvcruntime:frame.obj
 0001:00016614       __BuildCatchObject         0000000180017614 f   libvcruntime:frame.obj
 0001:0001661c       __BuildCatchObjectHelper   000000018001761c f   libvcruntime:frame.obj
 0001:00016624       __TypeMatch                0000000180017624 f   libvcruntime:frame.obj
 0001:0001662c       __vcrt_EncodePointer       000000018001762c f i libvcruntime:frame.obj
 0001:00016634       __vcrt_initialize_locks    0000000180017634 f   libvcruntime:locks.obj
 0001:00016668       __vcrt_lock                0000000180017668 f   libvcruntime:locks.obj
 0001:00016684       __vcrt_uninitialize_locks  0000000180017684 f   libvcruntime:locks.obj
 0001:000166bc       __vcrt_unlock              00000001800176bc f   libvcruntime:locks.obj
 0001:000166f0       _NLG_Notify                00000001800176f0 f   libvcruntime:notify.obj
 0001:00016710       __NLG_Dispatch2            0000000180017710 f   libvcruntime:notify.obj
 0001:00016720       __NLG_Return2              0000000180017720 f   libvcruntime:notify.obj
 0001:0001672c       __except_validate_context_record 000000018001772c f   libvcruntime:jbcxrval.obj
 0001:00016764       __except_validate_jump_buffer 0000000180017764 f   libvcruntime:jbcxrval.obj
 0001:000167a4       __except_validate_jump_buffer_common 00000001800177a4 f i libvcruntime:jbcxrval.obj
 0001:00016800       ??$?0$00@DName@@QEAA@PEBDU?$StringLifeSelector@$00@@@Z 0000000180017800 f i libvcruntime:undname.obj
 0001:00016840       ??$?0$00@pcharNode@@QEAA@PEBDHU?$StringLifeSelector@$00@@@Z 0000000180017840 f i libvcruntime:undname.obj
 0001:00016858       ??$?0$01@DName@@QEAA@PEBDU?$StringLifeSelector@$01@@@Z 0000000180017858 f i libvcruntime:undname.obj
 0001:00016898       ??$?0$01@pcharNode@@QEAA@PEBDHU?$StringLifeSelector@$01@@@Z 0000000180017898 f i libvcruntime:undname.obj
 0001:0001690c       ??$?0$0A@@DName@@QEAA@PEBDU?$StringLifeSelector@$0A@@@@Z 000000018001790c f i libvcruntime:undname.obj
 0001:0001694c       ??$?0$0A@@pcharNode@@QEAA@PEBDHU?$StringLifeSelector@$0A@@@@Z 000000018001794c f i libvcruntime:undname.obj
 0001:000169c0       ??$?0_K$0A@@?$optional@_K@std@@QEAA@$$QEA_K@Z 00000001800179c0 f i libvcruntime:undname.obj
 0001:000169d0       ??$?0_K@?$_Optional_construct_base@_K@std@@QEAA@Uin_place_t@1@$$QEA_K@Z 00000001800179d0 f i libvcruntime:undname.obj
 0001:000169e0       ??$?0_K@?$_Optional_destruct_base@_K$00@std@@QEAA@Uin_place_t@1@$$QEA_K@Z 00000001800179e0 f i libvcruntime:undname.obj
 0001:000169f0       ??$append@VDNameNode@@@DName@@AEAAXPEBVDNameNode@@@Z 00000001800179f0 f i libvcruntime:undname.obj
 0001:00016a54       ??$append@VDNameStatusNode@@@DName@@AEAAXPEBVDNameStatusNode@@@Z 0000000180017a54 f i libvcruntime:undname.obj
 0001:00016ab8       ??$append@VcharNode@@@DName@@AEAAXPEBVcharNode@@@Z 0000000180017ab8 f i libvcruntime:undname.obj
 0001:00016b1c       ??$append@VpDNameNode@@@DName@@AEAAXPEBVpDNameNode@@@Z 0000000180017b1c f i libvcruntime:undname.obj
 0001:00016b80       ??$append@VpcharNode@@@DName@@AEAAXPEBVpcharNode@@@Z 0000000180017b80 f i libvcruntime:undname.obj
 0001:00016be4       ??$doPchar@$00@DName@@AEAAXPEBDH@Z 0000000180017be4 f i libvcruntime:undname.obj
 0001:00016c88       ??$doPchar@$01@DName@@AEAAXPEBDH@Z 0000000180017c88 f i libvcruntime:undname.obj
 0001:00016d20       ??$doPchar@$0A@@DName@@AEAAXPEBDH@Z 0000000180017d20 f i libvcruntime:undname.obj
 0001:00016db8       ??$forward@_K@std@@YA$$QEA_KAEA_K@Z 0000000180017db8 f i libvcruntime:undname.obj
 0001:00016dbc       ??$size@D$04@std@@YA_KAEAY04$$CBD@Z 0000000180017dbc f i libvcruntime:undname.obj
 0001:00016dc4       ??$size@D$0EB@@std@@YA_KAEAY0EB@$$CBD@Z 0000000180017dc4 f i libvcruntime:undname.obj
 0001:00016dcc       ??0?$_Optional_construct_base@_K@std@@QEAA@XZ 0000000180017dcc f i libvcruntime:undname.obj
 0001:00016dd4       ??0?$_Optional_destruct_base@_K$00@std@@QEAA@XZ 0000000180017dd4 f i libvcruntime:undname.obj
 0001:00016ddc       ??0?$optional@_K@std@@QEAA@XZ 0000000180017ddc f i libvcruntime:undname.obj
 0001:00016de4       ??0Block@_HeapManager@@QEAA@XZ 0000000180017de4 f i libvcruntime:undname.obj
 0001:00016dec       ??0DName@@QEAA@AEAPEBDD@Z  0000000180017dec f   libvcruntime:undname.obj
 0001:00016e9c       ??0DName@@QEAA@AEBUStringLiteral@@@Z 0000000180017e9c f   libvcruntime:undname.obj
 0001:00016ec8       ??0DName@@QEAA@AEBV0@@Z    0000000180017ec8 f i libvcruntime:undname.obj
 0001:00016ed8       ??0DName@@QEAA@D@Z         0000000180017ed8 f   libvcruntime:undname.obj
 0001:00016ef8       ??0DName@@QEAA@PEAV0@@Z    0000000180017ef8 f   libvcruntime:undname.obj
 0001:00016f7c       ??0DName@@QEAA@W4DNameStatus@@@Z 0000000180017f7c f   libvcruntime:undname.obj
 0001:00016fac       ??0DName@@QEAA@XZ          0000000180017fac f i libvcruntime:undname.obj
 0001:00016fb8       ??0DName@@QEAA@_J@Z        0000000180017fb8 f   libvcruntime:undname.obj
 0001:00017060       ??0DName@@QEAA@_K@Z        0000000180018060 f   libvcruntime:undname.obj
 0001:000170e8       ??0DNameNode@@IEAA@XZ      00000001800180e8 f i libvcruntime:undname.obj
 0001:000170f8       ??0Replicator@@QEAA@XZ     00000001800180f8 f i libvcruntime:undname.obj
 0001:0001710c       ??0UnDecorator@@QEAA@PEBDP6APEADJ@ZK@Z 000000018001810c f i libvcruntime:undname.obj
 0001:0001715c       ??0_Nontrivial_dummy_type@std@@QEAA@XZ 000000018001815c f i libvcruntime:undname.obj
 0001:00017160       ??0charNode@@QEAA@D@Z      0000000180018160 f i libvcruntime:undname.obj
 0001:00017174       ??0pDNameNode@@QEAA@PEAVDName@@@Z 0000000180018174 f   libvcruntime:undname.obj
 0001:0001719c       ??0pairNode@@QEAA@PEBVDNameNode@@0@Z 000000018001819c f i libvcruntime:undname.obj
 0001:000171c0       ??2@YAPEAX_KAEAV_HeapManager@@H@Z 00000001800181c0 f   libvcruntime:undname.obj
 0001:000171ec       ??4DName@@QEAAAEAV0@AEBUStringLiteral@@@Z 00000001800181ec f   libvcruntime:undname.obj
 0001:00017214       ??4DName@@QEAAAEAV0@AEBV0@@Z 0000000180018214 f   libvcruntime:undname.obj
 0001:00017224       ??4DName@@QEAAAEAV0@D@Z    0000000180018224 f i libvcruntime:undname.obj
 0001:00017244       ??4DName@@QEAAAEAV0@PEAV0@@Z 0000000180018244 f   libvcruntime:undname.obj
 0001:000172bc       ??4DName@@QEAAAEAV0@W4DNameStatus@@@Z 00000001800182bc f   libvcruntime:undname.obj
 0001:000172dc       ??AReplicator@@QEBA?AVDName@@H@Z 00000001800182dc f   libvcruntime:undname.obj
 0001:0001731c       ??B?$optional@_K@std@@QEBA_NXZ 000000018001831c f i libvcruntime:undname.obj
 0001:00017320       ??D?$optional@_K@std@@QEGAAAEA_KXZ 0000000180018320 f i libvcruntime:undname.obj
 0001:00017324       ??H@YA?AVDName@@AEBUStringLiteral@@AEBV0@@Z 0000000180018324 f i libvcruntime:undname.obj
 0001:0001735c       ??H@YA?AVDName@@DAEBV0@@Z  000000018001835c f i libvcruntime:undname.obj
 0001:000173a0       ??H@YA?AVDName@@W4DNameStatus@@AEBV0@@Z 00000001800183a0 f i libvcruntime:undname.obj
 0001:000173ec       ??HDName@@QEBA?AV0@AEBUStringLiteral@@@Z 00000001800183ec f   libvcruntime:undname.obj
 0001:00017418       ??HDName@@QEBA?AV0@AEBV0@@Z 0000000180018418 f   libvcruntime:undname.obj
 0001:00017444       ??HDName@@QEBA?AV0@D@Z     0000000180018444 f   libvcruntime:undname.obj
 0001:00017470       ??HDName@@QEBA?AV0@PEAV0@@Z 0000000180018470 f   libvcruntime:undname.obj
 0001:0001749c       ??HDName@@QEBA?AV0@W4DNameStatus@@@Z 000000018001849c f   libvcruntime:undname.obj
 0001:000174c8       ??HStringLiteral@@QEBA?AU0@H@Z 00000001800184c8 f i libvcruntime:undname.obj
 0001:000174e0       ??YDName@@QEAAAEAV0@AEBUStringLiteral@@@Z 00000001800184e0 f   libvcruntime:undname.obj
 0001:00017560       ??YDName@@QEAAAEAV0@AEBV0@@Z 0000000180018560 f   libvcruntime:undname.obj
 0001:00017614       ??YDName@@QEAAAEAV0@D@Z    0000000180018614 f   libvcruntime:undname.obj
 0001:00017680       ??YDName@@QEAAAEAV0@PEAV0@@Z 0000000180018680 f   libvcruntime:undname.obj
 0001:00017714       ??YDName@@QEAAAEAV0@W4DNameStatus@@@Z 0000000180018714 f   libvcruntime:undname.obj
 0001:00017780       ??YReplicator@@QEAAAEAV0@AEBVDName@@@Z 0000000180018780 f   libvcruntime:undname.obj
 0001:000177d8       ??_5DName@@QEAAAEAV0@AEBV0@@Z 00000001800187d8 f   libvcruntime:undname.obj
 0001:000177ec       ??__K_l@@YA?AUStringLiteral@@PEBD_K@Z 00000001800187ec f i libvcruntime:undname.obj
 0001:000177f8       ?Constructor@_HeapManager@@QEAAXP6APEAX_K@ZP6AXPEAX@Z@Z 00000001800187f8 f i libvcruntime:undname.obj
 0001:00017810       ?Destructor@_HeapManager@@QEAAXXZ 0000000180018810 f i libvcruntime:undname.obj
 0001:00017864       ?UScore@UnDecorator@@SA?AUStringLiteral@@W4Tokens@@@Z 0000000180018864 f   libvcruntime:undname.obj
 0001:000178b0       ?composeDeclaration@UnDecorator@@CA?AVDName@@AEBV2@@Z 00000001800188b0 f i libvcruntime:undname.obj
 0001:00018758       ?doAccessSpecifiers@UnDecorator@@SAHXZ 0000000180019758 f i libvcruntime:undname.obj
 0001:00018768       ?doAllocationLanguage@UnDecorator@@SAHXZ 0000000180019768 f i libvcruntime:undname.obj
 0001:00018778       ?doAllocationModel@UnDecorator@@SAHXZ 0000000180019778 f i libvcruntime:undname.obj
 0001:00018788       ?doEcsu@UnDecorator@@SAHXZ 0000000180019788 f i libvcruntime:undname.obj
 0001:00018798       ?doEllipsis@UnDecorator@@SAHXZ 0000000180019798 f i libvcruntime:undname.obj
 0001:000187a8       ?doFunctionReturns@UnDecorator@@SAHXZ 00000001800197a8 f i libvcruntime:undname.obj
 0001:000187b8       ?doMSKeywords@UnDecorator@@SAHXZ 00000001800197b8 f i libvcruntime:undname.obj
 0001:000187c8       ?doMemberTypes@UnDecorator@@SAHXZ 00000001800197c8 f i libvcruntime:undname.obj
 0001:000187d8       ?doNameOnly@UnDecorator@@SAHXZ 00000001800197d8 f i libvcruntime:undname.obj
 0001:000187e4       ?doNoIdentCharCheck@UnDecorator@@SAHXZ 00000001800197e4 f i libvcruntime:undname.obj
 0001:000187f0       ?doPchar@DName@@AEAAXD@Z   00000001800197f0 f   libvcruntime:undname.obj
 0001:00018840       ?doPtr64@UnDecorator@@SAHXZ 0000000180019840 f i libvcruntime:undname.obj
 0001:00018850       ?doRestrictionSpec@UnDecorator@@SAHXZ 0000000180019850 f i libvcruntime:undname.obj
 0001:00018860       ?doThisTypes@UnDecorator@@SAHXZ 0000000180019860 f i libvcruntime:undname.obj
 0001:00018874       ?doThrowTypes@UnDecorator@@SAHXZ 0000000180019874 f i libvcruntime:undname.obj
 0001:00018884       ?doTypeOnly@UnDecorator@@SAHXZ 0000000180019884 f i libvcruntime:undname.obj
 0001:00018890       ?doUnderScore@UnDecorator@@SAHXZ 0000000180019890 f i libvcruntime:undname.obj
 0001:0001889c       ?getAddressOf@UnDecorator@@CA?AVDName@@XZ 000000018001989c f   libvcruntime:undname.obj
 0001:0001892c       ?getArgumentList@UnDecorator@@CA?AVDName@@XZ 000000018001992c f   libvcruntime:undname.obj
 0001:00018ac0       ?getArgumentTypes@UnDecorator@@CA?AVDName@@XZ 0000000180019ac0 f   libvcruntime:undname.obj
 0001:00018c1c       ?getArrayAccess@UnDecorator@@CA?AVDName@@XZ 0000000180019c1c f   libvcruntime:undname.obj
 0001:00018cb8       ?getArrayObject@UnDecorator@@CA?AVDName@@XZ 0000000180019cb8 f   libvcruntime:undname.obj
 0001:00018d80       ?getArrayType@UnDecorator@@CA?AVDName@@AEBV2@@Z 0000000180019d80 f i libvcruntime:undname.obj
 0001:00018fc8       ?getBasedType@UnDecorator@@CA?AVDName@@XZ 0000000180019fc8 f   libvcruntime:undname.obj
 0001:000190c0       ?getBasicDataType@UnDecorator@@CA?AVDName@@AEBV2@@Z 000000018001a0c0 f   libvcruntime:undname.obj
 0001:00019670       ?getCHPEName@UnDecorator@@QEAAPEADPEADH@Z 000000018001a670 f i libvcruntime:undname.obj
 0001:00019790       ?getCallIndex@UnDecorator@@CA?AVDName@@XZ 000000018001a790 f i libvcruntime:undname.obj
 0001:000197ac       ?getCallingConvention@UnDecorator@@CA?AVDName@@XZ 000000018001a7ac f   libvcruntime:undname.obj
 0001:000198ec       ?getDataIndirectType@UnDecorator@@CA?AVDName@@AEBV2@W4IndirectionKind@@0H@Z 000000018001a8ec f   libvcruntime:undname.obj
 0001:0001a184       ?getDataIndirectType@UnDecorator@@CA?AVDName@@XZ 000000018001b184 f i libvcruntime:undname.obj
 0001:0001a1c0       ?getDataType@UnDecorator@@CA?AVDName@@PEAV2@@Z 000000018001b1c0 f   libvcruntime:undname.obj
 0001:0001a2d4       ?getDecoratedName@UnDecorator@@CA?AVDName@@XZ 000000018001b2d4 f   libvcruntime:undname.obj
 0001:0001a5b8       ?getDimension@UnDecorator@@CA?AVDName@@_N@Z 000000018001b5b8 f   libvcruntime:undname.obj
 0001:0001a704       ?getDispatchTarget@UnDecorator@@CA?AVDName@@XZ 000000018001b704 f   libvcruntime:undname.obj
 0001:0001a750       ?getDisplacement@UnDecorator@@CA?AVDName@@XZ 000000018001b750 f i libvcruntime:undname.obj
 0001:0001a76c       ?getECSUDataType@UnDecorator@@CA?AVDName@@XZ 000000018001b76c f   libvcruntime:undname.obj
 0001:0001a94c       ?getECSUName@UnDecorator@@CA?AVDName@@XZ 000000018001b94c f i libvcruntime:undname.obj
 0001:0001a964       ?getEnumType@UnDecorator@@CA?AVDName@@XZ 000000018001b964 f i libvcruntime:undname.obj
 0001:0001aa94       ?getExtendedDataIndirectType@UnDecorator@@CA?AVDName@@AEAW4IndirectionKind@@AEA_NH@Z 000000018001ba94 f   libvcruntime:undname.obj
 0001:0001ac9c       ?getExternalDataType@UnDecorator@@CA?AVDName@@AEBV2@@Z 000000018001bc9c f i libvcruntime:undname.obj
 0001:0001ad5c       ?getFloatingPoint@UnDecorator@@CA?AVDName@@H@Z 000000018001bd5c f   libvcruntime:undname.obj
 0001:0001ae84       ?getFunctionIndirectType@UnDecorator@@CA?AVDName@@AEBV2@@Z 000000018001be84 f   libvcruntime:undname.obj
 0001:0001b3bc       ?getGuardNumber@UnDecorator@@CA?AVDName@@XZ 000000018001c3bc f i libvcruntime:undname.obj
 0001:0001b3d8       ?getLastChar@DName@@QEBADXZ 000000018001c3d8 f i libvcruntime:undname.obj
 0001:0001b3f4       ?getLastChar@DNameStatusNode@@UEBADXZ 000000018001c3f4 f i libvcruntime:undname.obj
 0001:0001b400       ?getLastChar@charNode@@UEBADXZ 000000018001c400 f i libvcruntime:undname.obj
 0001:0001b404       ?getLastChar@pDNameNode@@UEBADXZ 000000018001c404 f i libvcruntime:undname.obj
 0001:0001b430       ?getLastChar@pairNode@@UEBADXZ 000000018001c430 f i libvcruntime:undname.obj
 0001:0001b468       ?getLastChar@pcharNode@@UEBADXZ 000000018001c468 f i libvcruntime:undname.obj
 0001:0001b47c       ?getLexicalFrame@UnDecorator@@CA?AVDName@@XZ 000000018001c47c f i libvcruntime:undname.obj
 0001:0001b4e0       ?getMemberAccess@UnDecorator@@CA?AVDName@@XZ 000000018001c4e0 f   libvcruntime:undname.obj
 0001:0001b574       ?getMemoryWithBuffer@_HeapManager@@QEAAPEAX_K@Z 000000018001c574 f   libvcruntime:undname.obj
 0001:0001b604       ?getMemoryWithoutBuffer@_HeapManager@@QEAAPEAX_K@Z 000000018001c604 f   libvcruntime:undname.obj
 0001:0001b618       ?getNoexcept@UnDecorator@@CA?AVDName@@XZ 000000018001c618 f   libvcruntime:undname.obj
 0001:0001b67c       ?getNumberOfDimensions@UnDecorator@@CAHXZ 000000018001c67c f   libvcruntime:undname.obj
 0001:0001b6f0       ?getOperatorName@UnDecorator@@CA?AVDName@@_NPEA_N@Z 000000018001c6f0 f i libvcruntime:undname.obj
 0001:0001c0e4       ?getPointerToMember@UnDecorator@@CA?AVDName@@XZ 000000018001d0e4 f   libvcruntime:undname.obj
 0001:0001c1dc       ?getPointerType@UnDecorator@@CA?AVDName@@AEBV2@0@Z 000000018001d1dc f i libvcruntime:undname.obj
 0001:0001c1fc       ?getPointerTypeArray@UnDecorator@@CA?AVDName@@AEBV2@0@Z 000000018001d1fc f i libvcruntime:undname.obj
 0001:0001c218       ?getPrimaryDataType@UnDecorator@@CA?AVDName@@AEBV2@@Z 000000018001d218 f   libvcruntime:undname.obj
 0001:0001c4cc       ?getPtrRefDataType@UnDecorator@@CA?AVDName@@AEBV2@H@Z 000000018001d4cc f   libvcruntime:undname.obj
 0001:0001c698       ?getPtrRefType@UnDecorator@@CA?AVDName@@AEBV2@0W4IndirectionKind@@@Z 000000018001d698 f   libvcruntime:undname.obj
 0001:0001c870       ?getReferenceType@UnDecorator@@CA?AVDName@@AEBV2@0W4IndirectionKind@@@Z 000000018001d870 f i libvcruntime:undname.obj
 0001:0001c888       ?getRestrictionSpec@UnDecorator@@CA?AVDName@@XZ 000000018001d888 f   libvcruntime:undname.obj
 0001:0001ca54       ?getReturnType@UnDecorator@@CA?AVDName@@PEAV2@@Z 000000018001da54 f   libvcruntime:undname.obj
 0001:0001ca88       ?getScope@UnDecorator@@CA?AVDName@@XZ 000000018001da88 f   libvcruntime:undname.obj
 0001:0001cf3c       ?getScopedName@UnDecorator@@CA?AVDName@@XZ 000000018001df3c f   libvcruntime:undname.obj
 0001:0001d078       ?getSignedDimension@UnDecorator@@CA?AVDName@@XZ 000000018001e078 f   libvcruntime:undname.obj
 0001:0001d100       ?getStorageConvention@UnDecorator@@CA?AVDName@@XZ 000000018001e100 f i libvcruntime:undname.obj
 0001:0001d13c       ?getString@DName@@QEBAPEADPEAD0@Z 000000018001e13c f i libvcruntime:undname.obj
 0001:0001d158       ?getString@DName@@QEBAPEADPEADH@Z 000000018001e158 f i libvcruntime:undname.obj
 0001:0001d1ec       ?getString@DNameStatusNode@@UEBAPEADPEAD0@Z 000000018001e1ec f i libvcruntime:undname.obj
 0001:0001d234       ?getString@charNode@@UEBAPEADPEAD0@Z 000000018001e234 f i libvcruntime:undname.obj
 0001:0001d248       ?getString@pDNameNode@@UEBAPEADPEAD0@Z 000000018001e248 f i libvcruntime:undname.obj
 0001:0001d278       ?getString@pairNode@@UEBAPEADPEAD0@Z 000000018001e278 f i libvcruntime:undname.obj
 0001:0001d2c4       ?getString@pcharNode@@UEBAPEADPEAD0@Z 000000018001e2c4 f i libvcruntime:undname.obj
 0001:0001d2fc       ?getStringEncoding@UnDecorator@@CA?AVDName@@W4PrefixKind@@H@Z 000000018001e2fc f   libvcruntime:undname.obj
 0001:0001d3e0       ?getStringHelper@@YAPEADPEADPEBD1H@Z 000000018001e3e0 f i libvcruntime:undname.obj
 0001:0001d410       ?getStringObject@UnDecorator@@CA?AVDName@@XZ 000000018001e410 f   libvcruntime:undname.obj
 0001:0001d478       ?getSymbolName@UnDecorator@@CA?AVDName@@XZ 000000018001e478 f i libvcruntime:undname.obj
 0001:0001d4c4       ?getTemplateArgumentList@UnDecorator@@CA?AVDName@@XZ 000000018001e4c4 f   libvcruntime:undname.obj
 0001:0001d738       ?getTemplateName@UnDecorator@@CA?AVDName@@_N@Z 000000018001e738 f   libvcruntime:undname.obj
 0001:0001d9cc       ?getTemplateNonTypeArgument@UnDecorator@@CA?AVDName@@XZ 000000018001e9cc f   libvcruntime:undname.obj
 0001:0001df00       ?getTemplateTypeArgument@UnDecorator@@CA?AVDName@@XZ 000000018001ef00 f   libvcruntime:undname.obj
 0001:0001e068       ?getThisType@UnDecorator@@CA?AVDName@@XZ 000000018001f068 f i libvcruntime:undname.obj
 0001:0001e0a8       ?getThrowTypes@UnDecorator@@CA?AVDName@@XZ 000000018001f0a8 f   libvcruntime:undname.obj
 0001:0001e0cc       ?getTypeEncoding@UnDecorator@@CAHXZ 000000018001f0cc f i libvcruntime:undname.obj
 0001:0001e45c       ?getUndecoratedName@UnDecorator@@QEAAPEADPEADH@Z 000000018001f45c f i libvcruntime:undname.obj
 0001:0001e5b0       ?getUnionObject@UnDecorator@@CA?AVDName@@XZ 000000018001f5b0 f   libvcruntime:undname.obj
 0001:0001e688       ?getVCallThunkType@UnDecorator@@CA?AVDName@@XZ 000000018001f688 f i libvcruntime:undname.obj
 0001:0001e700       ?getValue@UnDecorator@@CA?AV?$optional@_K@std@@XZ 000000018001f700 f   libvcruntime:undname.obj
 0001:0001e774       ?getValueObject@UnDecorator@@CA?AVDName@@XZ 000000018001f774 f   libvcruntime:undname.obj
 0001:0001e8cc       ?getVbTableType@UnDecorator@@CA?AVDName@@AEBV2@@Z 000000018001f8cc f i libvcruntime:undname.obj
 0001:0001e8e4       ?getVdispMapType@UnDecorator@@CA?AVDName@@AEBV2@@Z 000000018001f8e4 f i libvcruntime:undname.obj
 0001:0001e960       ?getVfTableType@UnDecorator@@CA?AVDName@@AEBV2@@Z 000000018001f960 f i libvcruntime:undname.obj
 0001:0001eb68       ?getZName@UnDecorator@@CA?AVDName@@_N0@Z 000000018001fb68 f   libvcruntime:undname.obj
 0001:0001ee50       ?haveTemplateParameters@UnDecorator@@SAHXZ 000000018001fe50 f i libvcruntime:undname.obj
 0001:0001ee5c       ?isArray@DName@@QEBAHXZ    000000018001fe5c f i libvcruntime:undname.obj
 0001:0001ee68       ?isComArray@DName@@QEBAHXZ 000000018001fe68 f i libvcruntime:undname.obj
 0001:0001ee74       ?isEmpty@DName@@QEBAHXZ    000000018001fe74 f i libvcruntime:undname.obj
 0001:0001ee80       ?isFull@Replicator@@QEBAHXZ 000000018001fe80 f i libvcruntime:undname.obj
 0001:0001ee8c       ?isNoTE@DName@@QEBAHXZ     000000018001fe8c f i libvcruntime:undname.obj
 0001:0001ee98       ?isPinPtr@DName@@QEBAHXZ   000000018001fe98 f i libvcruntime:undname.obj
 0001:0001eea4       ?isPtrRef@DName@@QEBAHXZ   000000018001fea4 f i libvcruntime:undname.obj
 0001:0001eeb0       ?isUDC@DName@@QEBAHXZ      000000018001feb0 f i libvcruntime:undname.obj
 0001:0001eec8       ?isUDTThunk@DName@@QEBAHXZ 000000018001fec8 f i libvcruntime:undname.obj
 0001:0001eee0       ?isVCallThunk@DName@@QEBAHXZ 000000018001fee0 f i libvcruntime:undname.obj
 0001:0001eeec       ?isValid@DName@@QEBAHXZ    000000018001feec f i libvcruntime:undname.obj
 0001:0001eef8       ?length@DName@@QEBAHXZ     000000018001fef8 f i libvcruntime:undname.obj
 0001:0001ef10       ?length@DNameStatusNode@@UEBAHXZ 000000018001ff10 f i libvcruntime:undname.obj
 0001:0001ef14       ?length@charNode@@UEBAHXZ  000000018001ff14 f i libvcruntime:undname.obj
 0001:0001ef1c       ?length@pDNameNode@@UEBAHXZ 000000018001ff1c f i libvcruntime:undname.obj
 0001:0001ef44       ?length@pairNode@@UEBAHXZ  000000018001ff44 f i libvcruntime:undname.obj
 0001:0001ef8c       ?length@pcharNode@@UEBAHXZ 000000018001ff8c f i libvcruntime:undname.obj
 0001:0001ef90       ?make@DNameStatusNode@@SAPEBV1@W4DNameStatus@@@Z 000000018001ff90 f i libvcruntime:undname.obj
 0001:0001efb0       ?parseDecoratedName@UnDecorator@@CA?AVDName@@XZ 000000018001ffb0 f   libvcruntime:undname.obj
 0001:0001f0c4       ?raw_length@DNameStatusNode@@UEBAHXZ 00000001800200c4 f i libvcruntime:undname.obj
 0001:0001f0c8       ?raw_length@charNode@@UEBAHXZ 00000001800200c8 f i libvcruntime:undname.obj
 0001:0001f0d0       ?raw_length@pDNameNode@@UEBAHXZ 00000001800200d0 f i libvcruntime:undname.obj
 0001:0001f0d4       ?raw_length@pairNode@@UEBAHXZ 00000001800200d4 f i libvcruntime:undname.obj
 0001:0001f0d8       ?raw_length@pcharNode@@UEBAHXZ 00000001800200d8 f i libvcruntime:undname.obj
 0001:0001f0dc       ?setIsArray@DName@@QEAAXXZ 00000001800200dc f i libvcruntime:undname.obj
 0001:0001f0e4       ?setIsComArray@DName@@QEAAXXZ 00000001800200e4 f i libvcruntime:undname.obj
 0001:0001f0ec       ?setIsNoTE@DName@@QEAAXXZ  00000001800200ec f i libvcruntime:undname.obj
 0001:0001f0f4       ?setIsPinPtr@DName@@QEAAXXZ 00000001800200f4 f i libvcruntime:undname.obj
 0001:0001f0fc       ?setIsUDC@DName@@QEAAXXZ   00000001800200fc f i libvcruntime:undname.obj
 0001:0001f108       ?setIsVCallThunk@DName@@QEAAXXZ 0000000180020108 f i libvcruntime:undname.obj
 0001:0001f110       ?setPtrRef@DName@@QEAAAEAV1@XZ 0000000180020110 f i libvcruntime:undname.obj
 0001:0001f11c       ?status@DName@@QEBA?AW4DNameStatus@@XZ 000000018002011c f i libvcruntime:undname.obj
 0001:0001f180       __unDName                  0000000180020180 f   libvcruntime:undname.obj
 0001:0001f1a8       __unDNameEx                00000001800201a8 f   libvcruntime:undname.obj
 0001:0001f2dc       _vsprintf_s_l              00000001800202dc f i libvcruntime:undname.obj
 0001:0001f340       sprintf_s                  0000000180020340 f i libvcruntime:undname.obj
 0001:0001f394       unDNameGenerateCHPE        0000000180020394 f   libvcruntime:undname.obj
 0001:0001f49c       ??$__crt_interlocked_exchange_pointer@UHINSTANCE__@@PEAU1@@@YAPEAUHINSTANCE__@@PEDSEAU0@QEAU0@@Z 000000018002049c f i libvcruntime:winapi_downlevel.obj
 0001:0001f4a4       ??$__crt_interlocked_exchange_pointer@UHINSTANCE__@@PEAX@@YAPEAUHINSTANCE__@@PEDSEAU0@QEAX@Z 00000001800204a4 f i libvcruntime:winapi_downlevel.obj
 0001:0001f4ac       ??$__crt_interlocked_exchange_pointer@XPEAX@@YAPEAXPEDSEAXQEAX@Z 00000001800204ac f i libvcruntime:winapi_downlevel.obj
 0001:0001f4b4       ??$__crt_interlocked_read_pointer@UHINSTANCE__@@@@YAPEAUHINSTANCE__@@PEDSEAU0@@Z 00000001800204b4 f i libvcruntime:winapi_downlevel.obj
 0001:0001f4bc       ??$__crt_interlocked_read_pointer@X@@YAPEAXPEDSEAX@Z 00000001800204bc f i libvcruntime:winapi_downlevel.obj
 0001:0001f9fc       __vcrt_FlsAlloc            00000001800209fc f   libvcruntime:winapi_downlevel.obj
 0001:0001fa44       __vcrt_FlsFree             0000000180020a44 f   libvcruntime:winapi_downlevel.obj
 0001:0001fa8c       __vcrt_FlsGetValue         0000000180020a8c f   libvcruntime:winapi_downlevel.obj
 0001:0001fad4       __vcrt_FlsSetValue         0000000180020ad4 f   libvcruntime:winapi_downlevel.obj
 0001:0001fb28       __vcrt_InitializeCriticalSectionEx 0000000180020b28 f   libvcruntime:winapi_downlevel.obj
 0001:0001fba0       _CallSettingFrame          0000000180020ba0 f   libvcruntime:handlers.obj
 0001:0001fbf0       _CallSettingFrame_LookupContinuationIndex 0000000180020bf0 f   libvcruntime:handlers.obj
 0001:0001fc20       _CallSettingFrame_NotifyContinuationAddr 0000000180020c20 f   libvcruntime:handlers.obj
 0001:0001fc50       _CallSettingFrameEncoded   0000000180020c50 f   libvcruntime:handlers.obj
 0001:0001fc98       ??$__crt_fast_decode_pointer@P6AXPEB_W00I_K@Z@@YAP6AXPEB_W00I_K@ZQ6AX000I1@Z@Z 0000000180020c98 f i libucrt:invalid_parameter.obj
 0001:0001fcb0       ??$__crt_fast_encode_pointer@P6AXPEB_W00I_K@Z@@YAP6AXPEB_W00I_K@ZQ6AX000I1@Z@Z 0000000180020cb0 f i libucrt:invalid_parameter.obj
 0001:0001fcd0       ??$initialize_from_array@$$BY00Q6AXPEB_W00I_K@Z@?$dual_state_global@P6AXPEB_W00I_K@Z@__crt_state_management@@QEAAXAEAY00Q6AXPEB_W00I_K@Z@Z 0000000180020cd0 f i libucrt:invalid_parameter.obj
 0001:0001fcd8       ??0?$cached@H@__crt_cached_ptd_host@@QEAA@XZ 0000000180020cd8 f i libucrt:invalid_parameter.obj
 0001:0001fce0       ??0?$cached@K@__crt_cached_ptd_host@@QEAA@XZ 0000000180020ce0 f i libucrt:invalid_parameter.obj
 0001:0001fce8       ??0__crt_cached_ptd_host@@QEAA@QEAU__crt_locale_pointers@@@Z 0000000180020ce8 f i libucrt:invalid_parameter.obj
 0001:0001fd20       ??0__crt_scoped_get_last_error_reset@@QEAA@XZ 0000000180020d20 f i libucrt:invalid_parameter.obj
 0001:0001fd3c       ??1__crt_cached_ptd_host@@QEAA@XZ 0000000180020d3c f i libucrt:invalid_parameter.obj
 0001:0001fd8c       ??1__crt_scoped_get_last_error_reset@@QEAA@XZ 0000000180020d8c f i libucrt:invalid_parameter.obj
 0001:0001fd98       ?__crt_rotate_pointer_value@@YA_K_KH@Z 0000000180020d98 f i libucrt:invalid_parameter.obj
 0001:0001fe14       ?check_synchronize_global_state_index@__crt_cached_ptd_host@@AEAA_KAEBV__crt_scoped_get_last_error_reset@@@Z 0000000180020e14 f i libucrt:invalid_parameter.obj
 0001:0001fe2c       ?check_synchronize_global_state_index@__crt_cached_ptd_host@@AEAA_KXZ 0000000180020e2c f i libucrt:invalid_parameter.obj
 0001:0001fe60       ?check_synchronize_per_thread_data@__crt_cached_ptd_host@@AEAAPEAU__acrt_ptd@@XZ 0000000180020e60 f i libucrt:invalid_parameter.obj
 0001:0001fec8       ?dangerous_get_state_array@?$dual_state_global@P6AXPEB_W00I_K@Z@__crt_state_management@@QEAAPEAP6AXPEB_W00I_K@ZXZ 0000000180020ec8 f i libucrt:invalid_parameter.obj
 0001:0001fecc       ?force_synchronize_global_state_index@__crt_cached_ptd_host@@AEAA_KAEBV__crt_scoped_get_last_error_reset@@@Z 0000000180020ecc f i libucrt:invalid_parameter.obj
 0001:0001fed8       ?force_synchronize_per_thread_data@__crt_cached_ptd_host@@AEAAPEAU__acrt_ptd@@XZ 0000000180020ed8 f i libucrt:invalid_parameter.obj
 0001:0001ff2c       ?get_current_global_state_index@__crt_cached_ptd_host@@QEAA_KXZ 0000000180020f2c f i libucrt:invalid_parameter.obj
 0001:0001ff6c       ?get_current_state_index@__crt_state_management@@YA_KAEBV__crt_scoped_get_last_error_reset@@@Z 0000000180020f6c f i libucrt:invalid_parameter.obj
 0001:0001ff70       ?get_current_state_index@__crt_state_management@@YA_KXZ 0000000180020f70 f i libucrt:invalid_parameter.obj
 0001:0001ff74       ?get_raw_ptd@__crt_cached_ptd_host@@QEAAPEAU__acrt_ptd@@XZ 0000000180020f74 f i libucrt:invalid_parameter.obj
 0001:0001ffdc       ?get_raw_ptd_noexit@__crt_cached_ptd_host@@QEAAPEAU__acrt_ptd@@XZ 0000000180020fdc f i libucrt:invalid_parameter.obj
 0001:00020048       ?try_synchronize_per_thread_data@__crt_cached_ptd_host@@AEAAPEAU__acrt_ptd@@XZ 0000000180021048 f i libucrt:invalid_parameter.obj
 0001:000200ac       ?unsafe_value@?$cached@H@__crt_cached_ptd_host@@QEAAHXZ 00000001800210ac f i libucrt:invalid_parameter.obj
 0001:000200b0       ?unsafe_value@?$cached@K@__crt_cached_ptd_host@@QEAAKXZ 00000001800210b0 f i libucrt:invalid_parameter.obj
 0001:000200b4       ?valid@?$cached@H@__crt_cached_ptd_host@@QEBA_NXZ 00000001800210b4 f i libucrt:invalid_parameter.obj
 0001:000200b8       ?valid@?$cached@K@__crt_cached_ptd_host@@QEBA_NXZ 00000001800210b8 f i libucrt:invalid_parameter.obj
 0001:000200bc       ?value@?$dual_state_global@P6AXPEB_W00I_K@Z@__crt_state_management@@QEAAAEAP6AXPEB_W00I_K@ZAEAV__crt_cached_ptd_host@@@Z 00000001800210bc f i libucrt:invalid_parameter.obj
 0001:00020108       ?value@?$dual_state_global@P6AXPEB_W00I_K@Z@__crt_state_management@@QEAAAEAP6AXPEB_W00I_K@ZXZ 0000000180021108 f i libucrt:invalid_parameter.obj
 0001:0002010c       __acrt_call_reportfault    000000018002110c f   libucrt:invalid_parameter.obj
 0001:00020268       __acrt_enable_global_locale_sync 0000000180021268 f i libucrt:invalid_parameter.obj
 0001:00020274       __acrt_initialize_invalid_parameter_handler 0000000180021274 f   libucrt:invalid_parameter.obj
 0001:0002027c       __acrt_locale_changed      000000018002127c f i libucrt:invalid_parameter.obj
 0001:00020288       _get_invalid_parameter_handler 0000000180021288 f   libucrt:invalid_parameter.obj
 0001:000202a0       _get_thread_local_invalid_parameter_handler 00000001800212a0 f   libucrt:invalid_parameter.obj
 0001:000202bc       _invalid_parameter         00000001800212bc f   libucrt:invalid_parameter.obj
 0001:00020358       _invalid_parameter_internal 0000000180021358 f   libucrt:invalid_parameter.obj
 0001:00020428       _invalid_parameter_noinfo  0000000180021428 f   libucrt:invalid_parameter.obj
 0001:00020448       _invalid_parameter_noinfo_noreturn 0000000180021448 f   libucrt:invalid_parameter.obj
 0001:00020478       _invoke_watson             0000000180021478 f   libucrt:invalid_parameter.obj
 0001:000204c0       _set_invalid_parameter_handler 00000001800214c0 f   libucrt:invalid_parameter.obj
 0001:000204f4       _set_thread_local_invalid_parameter_handler 00000001800214f4 f   libucrt:invalid_parameter.obj
 0001:0002051c       ?get_doserrno@__crt_cached_ptd_host@@QEAAAEAU?$cached@K@1@XZ 000000018002151c f i libucrt:errno.obj
 0001:00020524       ?get_errno@__crt_cached_ptd_host@@QEAAAEAU?$cached@H@1@XZ 0000000180021524 f i libucrt:errno.obj
 0001:0002052c       ?set@?$cached@H@__crt_cached_ptd_host@@QEAAHH@Z 000000018002152c f i libucrt:errno.obj
 0001:00020538       ?set@?$cached@K@__crt_cached_ptd_host@@QEAAKK@Z 0000000180021538 f i libucrt:errno.obj
 0001:00020544       __acrt_errno_from_os_error 0000000180021544 f   libucrt:errno.obj
 0001:0002058c       __acrt_errno_map_os_error  000000018002158c f   libucrt:errno.obj
 0001:000205d4       __acrt_errno_map_os_error_ptd 00000001800215d4 f   libucrt:errno.obj
 0001:000205f8       __doserrno                 00000001800215f8 f   libucrt:errno.obj
 0001:00020618       _errno                     0000000180021618 f   libucrt:errno.obj
 0001:00020638       _get_doserrno              0000000180021638 f   libucrt:errno.obj
 0001:00020674       _get_errno                 0000000180021674 f   libucrt:errno.obj
 0001:000206b0       _set_doserrno              00000001800216b0 f   libucrt:errno.obj
 0001:000206ec       _set_errno                 00000001800216ec f   libucrt:errno.obj
 0001:00020794       wcscpy_s                   0000000180021794 f   libucrt:wcscpy_s.obj
 0001:000208f0       wcsncpy_s                  00000001800218f0 f   libucrt:wcsncpy_s.obj
 0001:000212a0       ??1?$__crt_simd_cleanup_guard@$00@@QEAA@XZ 00000001800222a0 f i libucrt:strnlen.obj
 0001:000212a4       ??1?$__crt_simd_cleanup_guard@$0A@@@QEAA@XZ 00000001800222a4 f i libucrt:strnlen.obj
 0001:000212a8       ?compare_equals@?$__crt_simd_traits@$00E@@SA?AT__m256i@@T2@0@Z 00000001800222a8 f i libucrt:strnlen.obj
 0001:000212b4       ?compare_equals@?$__crt_simd_traits@$00G@@SA?AT__m256i@@T2@0@Z 00000001800222b4 f i libucrt:strnlen.obj
 0001:000212c0       ?compare_equals@?$__crt_simd_traits@$0A@E@@SA?AT__m128i@@T2@0@Z 00000001800222c0 f i libucrt:strnlen.obj
 0001:000212cc       ?compare_equals@?$__crt_simd_traits@$0A@G@@SA?AT__m128i@@T2@0@Z 00000001800222cc f i libucrt:strnlen.obj
 0001:000212d8       ?compute_byte_mask@?$__crt_simd_pack_traits@$00@@SAHT__m256i@@@Z 00000001800222d8 f i libucrt:strnlen.obj
 0001:000212e4       ?compute_byte_mask@?$__crt_simd_pack_traits@$0A@@@SAHT__m128i@@@Z 00000001800222e4 f i libucrt:strnlen.obj
 0001:000212f0       ?get_zero_pack@?$__crt_simd_pack_traits@$00@@SA?AT__m256i@@XZ 00000001800222f0 f i libucrt:strnlen.obj
 0001:000212f8       ?get_zero_pack@?$__crt_simd_pack_traits@$0A@@@SA?AT__m128i@@XZ 00000001800222f8 f i libucrt:strnlen.obj
 0001:000212fc       strnlen                    00000001800222fc f   libucrt:strnlen.obj
 0001:0002144c       wcslen                     000000018002244c f   libucrt:strnlen.obj
 0001:00021578       wcsnlen                    0000000180022578 f   libucrt:strnlen.obj
 0001:00021750       wcsncmp                    0000000180022750 f   libucrt:wcsncmp.obj
 0001:0002177c       ??$?0AEBV?$stream_output_adapter@D@__crt_stdio_output@@AEB_KAEBQEBDAEAV__crt_cached_ptd_host@@AEBQEAD@?$format_validation_base@DV?$stream_output_adapter@D@__crt_stdio_output@@@__crt_stdio_output@@IEAA@AEBV?$stream_output_adapter@D@1@AEB_KAEBQEBDAEAV__crt_cached_ptd_host@@AEBQEAD@Z 000000018002277c f i libucrt:output.obj
 0001:000217ec       ??$?0AEBV?$stream_output_adapter@D@__crt_stdio_output@@AEB_KAEBQEBDAEAV__crt_cached_ptd_host@@AEBQEAD@?$positional_parameter_base@DV?$stream_output_adapter@D@__crt_stdio_output@@@__crt_stdio_output@@IEAA@AEBV?$stream_output_adapter@D@1@AEB_KAEBQEBDAEAV__crt_cached_ptd_host@@AEBQEAD@Z 00000001800227ec f i libucrt:output.obj
 0001:0002187c       ??$?0AEBV?$stream_output_adapter@D@__crt_stdio_output@@AEB_KAEBQEBDAEAV__crt_cached_ptd_host@@AEBQEAD@?$standard_base@DV?$stream_output_adapter@D@__crt_stdio_output@@@__crt_stdio_output@@IEAA@AEBV?$stream_output_adapter@D@1@AEB_KAEBQEBDAEAV__crt_cached_ptd_host@@AEBQEAD@Z 000000018002287c f i libucrt:output.obj
 0001:000218ec       ??$?0AEBV?$stream_output_adapter@_W@__crt_stdio_output@@AEB_KAEBQEB_WAEAV__crt_cached_ptd_host@@AEBQEAD@?$format_validation_base@_WV?$stream_output_adapter@_W@__crt_stdio_output@@@__crt_stdio_output@@IEAA@AEBV?$stream_output_adapter@_W@1@AEB_KAEBQEB_WAEAV__crt_cached_ptd_host@@AEBQEAD@Z 00000001800228ec f i libucrt:output.obj
 0001:00021960       ??$?0AEBV?$stream_output_adapter@_W@__crt_stdio_output@@AEB_KAEBQEB_WAEAV__crt_cached_ptd_host@@AEBQEAD@?$positional_parameter_base@_WV?$stream_output_adapter@_W@__crt_stdio_output@@@__crt_stdio_output@@IEAA@AEBV?$stream_output_adapter@_W@1@AEB_KAEBQEB_WAEAV__crt_cached_ptd_host@@AEBQEAD@Z 0000000180022960 f i libucrt:output.obj
 0001:000219f4       ??$?0AEBV?$stream_output_adapter@_W@__crt_stdio_output@@AEB_KAEBQEB_WAEAV__crt_cached_ptd_host@@AEBQEAD@?$standard_base@_WV?$stream_output_adapter@_W@__crt_stdio_output@@@__crt_stdio_output@@IEAA@AEBV?$stream_output_adapter@_W@1@AEB_KAEBQEB_WAEAV__crt_cached_ptd_host@@AEBQEAD@Z 00000001800229f4 f i libucrt:output.obj
 0001:00021a68       ??$?0AEBV?$string_output_adapter@D@__crt_stdio_output@@AEB_KAEBQEBDAEAV__crt_cached_ptd_host@@AEBQEAD@?$format_validation_base@DV?$string_output_adapter@D@__crt_stdio_output@@@__crt_stdio_output@@IEAA@AEBV?$string_output_adapter@D@1@AEB_KAEBQEBDAEAV__crt_cached_ptd_host@@AEBQEAD@Z 0000000180022a68 f i libucrt:output.obj
 0001:00021ad8       ??$?0AEBV?$string_output_adapter@D@__crt_stdio_output@@AEB_KAEBQEBDAEAV__crt_cached_ptd_host@@AEBQEAD@?$positional_parameter_base@DV?$string_output_adapter@D@__crt_stdio_output@@@__crt_stdio_output@@IEAA@AEBV?$string_output_adapter@D@1@AEB_KAEBQEBDAEAV__crt_cached_ptd_host@@AEBQEAD@Z 0000000180022ad8 f i libucrt:output.obj
 0001:00021b68       ??$?0AEBV?$string_output_adapter@D@__crt_stdio_output@@AEB_KAEBQEBDAEAV__crt_cached_ptd_host@@AEBQEAD@?$standard_base@DV?$string_output_adapter@D@__crt_stdio_output@@@__crt_stdio_output@@IEAA@AEBV?$string_output_adapter@D@1@AEB_KAEBQEBDAEAV__crt_cached_ptd_host@@AEBQEAD@Z 0000000180022b68 f i libucrt:output.obj
 0001:00021bd8       ??$?0AEBV?$string_output_adapter@_W@__crt_stdio_output@@AEB_KAEBQEB_WAEAV__crt_cached_ptd_host@@AEBQEAD@?$format_validation_base@_WV?$string_output_adapter@_W@__crt_stdio_output@@@__crt_stdio_output@@IEAA@AEBV?$string_output_adapter@_W@1@AEB_KAEBQEB_WAEAV__crt_cached_ptd_host@@AEBQEAD@Z 0000000180022bd8 f i libucrt:output.obj
 0001:00021c4c       ??$?0AEBV?$string_output_adapter@_W@__crt_stdio_output@@AEB_KAEBQEB_WAEAV__crt_cached_ptd_host@@AEBQEAD@?$positional_parameter_base@_WV?$string_output_adapter@_W@__crt_stdio_output@@@__crt_stdio_output@@IEAA@AEBV?$string_output_adapter@_W@1@AEB_KAEBQEB_WAEAV__crt_cached_ptd_host@@AEBQEAD@Z 0000000180022c4c f i libucrt:output.obj
 0001:00021ce0       ??$?0AEBV?$string_output_adapter@_W@__crt_stdio_output@@AEB_KAEBQEB_WAEAV__crt_cached_ptd_host@@AEBQEAD@?$standard_base@_WV?$string_output_adapter@_W@__crt_stdio_output@@@__crt_stdio_output@@IEAA@AEBV?$string_output_adapter@_W@1@AEB_KAEBQEB_WAEAV__crt_cached_ptd_host@@AEBQEAD@Z 0000000180022ce0 f i libucrt:output.obj
 0001:00021fc4       ??$__crt_interlocked_read@J@@YAJPEDJ@Z 0000000180022fc4 f i libucrt:output.obj
 0001:00021fc8       ??$_tcstol_internal@DPEAPEAD$0A@@@YAJAEAV__crt_cached_ptd_host@@QEBDQEAPEADH@Z 0000000180022fc8 f i libucrt:output.obj
 0001:00021ff8       ??$_tcstol_internal@_WPEAPEA_W$0A@@@YAJAEAV__crt_cached_ptd_host@@QEB_WQEAPEA_WH@Z 0000000180022ff8 f i libucrt:output.obj
 0001:00023138       ??$count@D@formatting_buffer@__crt_stdio_output@@QEBA_KXZ 0000000180024138 f i libucrt:output.obj
 0001:00023154       ??$count@_W@formatting_buffer@__crt_stdio_output@@QEBA_KXZ 0000000180024154 f i libucrt:output.obj
 0001:00023170       ??$data@D@formatting_buffer@__crt_stdio_output@@QEAAPEADXZ 0000000180024170 f i libucrt:output.obj
 0001:00023180       ??$data@_W@formatting_buffer@__crt_stdio_output@@QEAAPEA_WXZ 0000000180024180 f i libucrt:output.obj
 0001:00023190       ??$ensure_buffer_is_big_enough@D@formatting_buffer@__crt_stdio_output@@QEAA_N_KAEAV__crt_cached_ptd_host@@@Z 0000000180024190 f i libucrt:output.obj
 0001:00023238       ??$ensure_buffer_is_big_enough@_W@formatting_buffer@__crt_stdio_output@@QEAA_N_KAEAV__crt_cached_ptd_host@@@Z 0000000180024238 f i libucrt:output.obj
 0001:000232e4       ??$extract_argument_from_va_list@C_J@?$positional_parameter_base@DV?$stream_output_adapter@D@__crt_stdio_output@@@__crt_stdio_output@@IEAA_NAEA_J@Z 00000001800242e4 f i libucrt:output.obj
 0001:000233ec       ??$extract_argument_from_va_list@C_J@?$positional_parameter_base@DV?$string_output_adapter@D@__crt_stdio_output@@@__crt_stdio_output@@IEAA_NAEA_J@Z 00000001800243ec f i libucrt:output.obj
 0001:000234f4       ??$extract_argument_from_va_list@C_J@?$positional_parameter_base@_WV?$stream_output_adapter@_W@__crt_stdio_output@@@__crt_stdio_output@@IEAA_NAEA_J@Z 00000001800244f4 f i libucrt:output.obj
 0001:00023600       ??$extract_argument_from_va_list@C_J@?$positional_parameter_base@_WV?$string_output_adapter@_W@__crt_stdio_output@@@__crt_stdio_output@@IEAA_NAEA_J@Z 0000000180024600 f i libucrt:output.obj
 0001:0002370c       ??$extract_argument_from_va_list@C_J@?$standard_base@DV?$stream_output_adapter@D@__crt_stdio_output@@@__crt_stdio_output@@IEAA_NAEA_J@Z 000000018002470c f i libucrt:output.obj
 0001:00023720       ??$extract_argument_from_va_list@C_J@?$standard_base@DV?$string_output_adapter@D@__crt_stdio_output@@@__crt_stdio_output@@IEAA_NAEA_J@Z 0000000180024720 f i libucrt:output.obj
 0001:00023734       ??$extract_argument_from_va_list@C_J@?$standard_base@_WV?$stream_output_adapter@_W@__crt_stdio_output@@@__crt_stdio_output@@IEAA_NAEA_J@Z 0000000180024734 f i libucrt:output.obj
 0001:00023748       ??$extract_argument_from_va_list@C_J@?$standard_base@_WV?$string_output_adapter@_W@__crt_stdio_output@@@__crt_stdio_output@@IEAA_NAEA_J@Z 0000000180024748 f i libucrt:output.obj
 0001:0002375c       ??$extract_argument_from_va_list@E_J@?$positional_parameter_base@DV?$stream_output_adapter@D@__crt_stdio_output@@@__crt_stdio_output@@IEAA_NAEA_J@Z 000000018002475c f i libucrt:output.obj
 0001:00023864       ??$extract_argument_from_va_list@E_J@?$positional_parameter_base@DV?$string_output_adapter@D@__crt_stdio_output@@@__crt_stdio_output@@IEAA_NAEA_J@Z 0000000180024864 f i libucrt:output.obj
 0001:0002396c       ??$extract_argument_from_va_list@E_J@?$positional_parameter_base@_WV?$stream_output_adapter@_W@__crt_stdio_output@@@__crt_stdio_output@@IEAA_NAEA_J@Z 000000018002496c f i libucrt:output.obj
 0001:00023a74       ??$extract_argument_from_va_list@E_J@?$positional_parameter_base@_WV?$string_output_adapter@_W@__crt_stdio_output@@@__crt_stdio_output@@IEAA_NAEA_J@Z 0000000180024a74 f i libucrt:output.obj
 0001:00023b7c       ??$extract_argument_from_va_list@E_J@?$standard_base@DV?$stream_output_adapter@D@__crt_stdio_output@@@__crt_stdio_output@@IEAA_NAEA_J@Z 0000000180024b7c f i libucrt:output.obj
 0001:00023b90       ??$extract_argument_from_va_list@E_J@?$standard_base@DV?$string_output_adapter@D@__crt_stdio_output@@@__crt_stdio_output@@IEAA_NAEA_J@Z 0000000180024b90 f i libucrt:output.obj
 0001:00023ba4       ??$extract_argument_from_va_list@E_J@?$standard_base@_WV?$stream_output_adapter@_W@__crt_stdio_output@@@__crt_stdio_output@@IEAA_NAEA_J@Z 0000000180024ba4 f i libucrt:output.obj
 0001:00023bb8       ??$extract_argument_from_va_list@E_J@?$standard_base@_WV?$string_output_adapter@_W@__crt_stdio_output@@@__crt_stdio_output@@IEAA_NAEA_J@Z 0000000180024bb8 f i libucrt:output.obj
 0001:00023bcc       ??$extract_argument_from_va_list@F_J@?$positional_parameter_base@DV?$stream_output_adapter@D@__crt_stdio_output@@@__crt_stdio_output@@IEAA_NAEA_J@Z 0000000180024bcc f i libucrt:output.obj
 0001:00023cd4       ??$extract_argument_from_va_list@F_J@?$positional_parameter_base@DV?$string_output_adapter@D@__crt_stdio_output@@@__crt_stdio_output@@IEAA_NAEA_J@Z 0000000180024cd4 f i libucrt:output.obj
 0001:00023ddc       ??$extract_argument_from_va_list@F_J@?$positional_parameter_base@_WV?$stream_output_adapter@_W@__crt_stdio_output@@@__crt_stdio_output@@IEAA_NAEA_J@Z 0000000180024ddc f i libucrt:output.obj
 0001:00023ee8       ??$extract_argument_from_va_list@F_J@?$positional_parameter_base@_WV?$string_output_adapter@_W@__crt_stdio_output@@@__crt_stdio_output@@IEAA_NAEA_J@Z 0000000180024ee8 f i libucrt:output.obj
 0001:00023ff4       ??$extract_argument_from_va_list@F_J@?$standard_base@DV?$stream_output_adapter@D@__crt_stdio_output@@@__crt_stdio_output@@IEAA_NAEA_J@Z 0000000180024ff4 f i libucrt:output.obj
 0001:00024008       ??$extract_argument_from_va_list@F_J@?$standard_base@DV?$string_output_adapter@D@__crt_stdio_output@@@__crt_stdio_output@@IEAA_NAEA_J@Z 0000000180025008 f i libucrt:output.obj
 0001:0002401c       ??$extract_argument_from_va_list@F_J@?$standard_base@_WV?$stream_output_adapter@_W@__crt_stdio_output@@@__crt_stdio_output@@IEAA_NAEA_J@Z 000000018002501c f i libucrt:output.obj
 0001:00024030       ??$extract_argument_from_va_list@F_J@?$standard_base@_WV?$string_output_adapter@_W@__crt_stdio_output@@@__crt_stdio_output@@IEAA_NAEA_J@Z 0000000180025030 f i libucrt:output.obj
 0001:00024044       ??$extract_argument_from_va_list@GD@?$positional_parameter_base@DV?$stream_output_adapter@D@__crt_stdio_output@@@__crt_stdio_output@@IEAA_NAEAD@Z 0000000180025044 f i libucrt:output.obj
 0001:00024148       ??$extract_argument_from_va_list@GD@?$positional_parameter_base@DV?$string_output_adapter@D@__crt_stdio_output@@@__crt_stdio_output@@IEAA_NAEAD@Z 0000000180025148 f i libucrt:output.obj
 0001:0002424c       ??$extract_argument_from_va_list@GD@?$standard_base@DV?$stream_output_adapter@D@__crt_stdio_output@@@__crt_stdio_output@@IEAA_NAEAD@Z 000000018002524c f i libucrt:output.obj
 0001:00024260       ??$extract_argument_from_va_list@GD@?$standard_base@DV?$string_output_adapter@D@__crt_stdio_output@@@__crt_stdio_output@@IEAA_NAEAD@Z 0000000180025260 f i libucrt:output.obj
 0001:00024274       ??$extract_argument_from_va_list@G_J@?$positional_parameter_base@DV?$stream_output_adapter@D@__crt_stdio_output@@@__crt_stdio_output@@IEAA_NAEA_J@Z 0000000180025274 f i libucrt:output.obj
 0001:0002437c       ??$extract_argument_from_va_list@G_J@?$positional_parameter_base@DV?$string_output_adapter@D@__crt_stdio_output@@@__crt_stdio_output@@IEAA_NAEA_J@Z 000000018002537c f i libucrt:output.obj
 0001:00024484       ??$extract_argument_from_va_list@G_J@?$positional_parameter_base@_WV?$stream_output_adapter@_W@__crt_stdio_output@@@__crt_stdio_output@@IEAA_NAEA_J@Z 0000000180025484 f i libucrt:output.obj
 0001:0002458c       ??$extract_argument_from_va_list@G_J@?$positional_parameter_base@_WV?$string_output_adapter@_W@__crt_stdio_output@@@__crt_stdio_output@@IEAA_NAEA_J@Z 000000018002558c f i libucrt:output.obj
 0001:00024694       ??$extract_argument_from_va_list@G_J@?$standard_base@DV?$stream_output_adapter@D@__crt_stdio_output@@@__crt_stdio_output@@IEAA_NAEA_J@Z 0000000180025694 f i libucrt:output.obj
 0001:000246a8       ??$extract_argument_from_va_list@G_J@?$standard_base@DV?$string_output_adapter@D@__crt_stdio_output@@@__crt_stdio_output@@IEAA_NAEA_J@Z 00000001800256a8 f i libucrt:output.obj
 0001:000246bc       ??$extract_argument_from_va_list@G_J@?$standard_base@_WV?$stream_output_adapter@_W@__crt_stdio_output@@@__crt_stdio_output@@IEAA_NAEA_J@Z 00000001800256bc f i libucrt:output.obj
 0001:000246d0       ??$extract_argument_from_va_list@G_J@?$standard_base@_WV?$string_output_adapter@_W@__crt_stdio_output@@@__crt_stdio_output@@IEAA_NAEA_J@Z 00000001800256d0 f i libucrt:output.obj
 0001:000246e4       ??$extract_argument_from_va_list@H_J@?$positional_parameter_base@DV?$stream_output_adapter@D@__crt_stdio_output@@@__crt_stdio_output@@IEAA_NAEA_J@Z 00000001800256e4 f i libucrt:output.obj
 0001:000247ec       ??$extract_argument_from_va_list@H_J@?$positional_parameter_base@DV?$string_output_adapter@D@__crt_stdio_output@@@__crt_stdio_output@@IEAA_NAEA_J@Z 00000001800257ec f i libucrt:output.obj
 0001:000248f4       ??$extract_argument_from_va_list@H_J@?$positional_parameter_base@_WV?$stream_output_adapter@_W@__crt_stdio_output@@@__crt_stdio_output@@IEAA_NAEA_J@Z 00000001800258f4 f i libucrt:output.obj
 0001:000249fc       ??$extract_argument_from_va_list@H_J@?$positional_parameter_base@_WV?$string_output_adapter@_W@__crt_stdio_output@@@__crt_stdio_output@@IEAA_NAEA_J@Z 00000001800259fc f i libucrt:output.obj
 0001:00024b04       ??$extract_argument_from_va_list@H_J@?$standard_base@DV?$stream_output_adapter@D@__crt_stdio_output@@@__crt_stdio_output@@IEAA_NAEA_J@Z 0000000180025b04 f i libucrt:output.obj
 0001:00024b18       ??$extract_argument_from_va_list@H_J@?$standard_base@DV?$string_output_adapter@D@__crt_stdio_output@@@__crt_stdio_output@@IEAA_NAEA_J@Z 0000000180025b18 f i libucrt:output.obj
 0001:00024b2c       ??$extract_argument_from_va_list@H_J@?$standard_base@_WV?$stream_output_adapter@_W@__crt_stdio_output@@@__crt_stdio_output@@IEAA_NAEA_J@Z 0000000180025b2c f i libucrt:output.obj
 0001:00024b40       ??$extract_argument_from_va_list@H_J@?$standard_base@_WV?$string_output_adapter@_W@__crt_stdio_output@@@__crt_stdio_output@@IEAA_NAEA_J@Z 0000000180025b40 f i libucrt:output.obj
 0001:00024b54       ??$extract_argument_from_va_list@I_J@?$positional_parameter_base@DV?$stream_output_adapter@D@__crt_stdio_output@@@__crt_stdio_output@@IEAA_NAEA_J@Z 0000000180025b54 f i libucrt:output.obj
 0001:00024c58       ??$extract_argument_from_va_list@I_J@?$positional_parameter_base@DV?$string_output_adapter@D@__crt_stdio_output@@@__crt_stdio_output@@IEAA_NAEA_J@Z 0000000180025c58 f i libucrt:output.obj
 0001:00024d5c       ??$extract_argument_from_va_list@I_J@?$positional_parameter_base@_WV?$stream_output_adapter@_W@__crt_stdio_output@@@__crt_stdio_output@@IEAA_NAEA_J@Z 0000000180025d5c f i libucrt:output.obj
 0001:00024e64       ??$extract_argument_from_va_list@I_J@?$positional_parameter_base@_WV?$string_output_adapter@_W@__crt_stdio_output@@@__crt_stdio_output@@IEAA_NAEA_J@Z 0000000180025e64 f i libucrt:output.obj
 0001:00024f6c       ??$extract_argument_from_va_list@I_J@?$standard_base@DV?$stream_output_adapter@D@__crt_stdio_output@@@__crt_stdio_output@@IEAA_NAEA_J@Z 0000000180025f6c f i libucrt:output.obj
 0001:00024f80       ??$extract_argument_from_va_list@I_J@?$standard_base@DV?$string_output_adapter@D@__crt_stdio_output@@@__crt_stdio_output@@IEAA_NAEA_J@Z 0000000180025f80 f i libucrt:output.obj
 0001:00024f94       ??$extract_argument_from_va_list@I_J@?$standard_base@_WV?$stream_output_adapter@_W@__crt_stdio_output@@@__crt_stdio_output@@IEAA_NAEA_J@Z 0000000180025f94 f i libucrt:output.obj
 0001:00024fa8       ??$extract_argument_from_va_list@I_J@?$standard_base@_WV?$string_output_adapter@_W@__crt_stdio_output@@@__crt_stdio_output@@IEAA_NAEA_J@Z 0000000180025fa8 f i libucrt:output.obj
 0001:00024fbc       ??$extract_argument_from_va_list@PEADPEAD@?$positional_parameter_base@DV?$stream_output_adapter@D@__crt_stdio_output@@@__crt_stdio_output@@IEAA_NAEAPEAD@Z 0000000180025fbc f i libucrt:output.obj
 0001:000250c4       ??$extract_argument_from_va_list@PEADPEAD@?$positional_parameter_base@DV?$string_output_adapter@D@__crt_stdio_output@@@__crt_stdio_output@@IEAA_NAEAPEAD@Z 00000001800260c4 f i libucrt:output.obj
 0001:000251cc       ??$extract_argument_from_va_list@PEADPEAD@?$positional_parameter_base@_WV?$stream_output_adapter@_W@__crt_stdio_output@@@__crt_stdio_output@@IEAA_NAEAPEAD@Z 00000001800261cc f i libucrt:output.obj
 0001:000252d4       ??$extract_argument_from_va_list@PEADPEAD@?$positional_parameter_base@_WV?$string_output_adapter@_W@__crt_stdio_output@@@__crt_stdio_output@@IEAA_NAEAPEAD@Z 00000001800262d4 f i libucrt:output.obj
 0001:000253dc       ??$extract_argument_from_va_list@PEADPEAD@?$standard_base@DV?$stream_output_adapter@D@__crt_stdio_output@@@__crt_stdio_output@@IEAA_NAEAPEAD@Z 00000001800263dc f i libucrt:output.obj
 0001:000253f0       ??$extract_argument_from_va_list@PEADPEAD@?$standard_base@DV?$string_output_adapter@D@__crt_stdio_output@@@__crt_stdio_output@@IEAA_NAEAPEAD@Z 00000001800263f0 f i libucrt:output.obj
 0001:00025404       ??$extract_argument_from_va_list@PEADPEAD@?$standard_base@_WV?$stream_output_adapter@_W@__crt_stdio_output@@@__crt_stdio_output@@IEAA_NAEAPEAD@Z 0000000180026404 f i libucrt:output.obj
 0001:00025418       ??$extract_argument_from_va_list@PEADPEAD@?$standard_base@_WV?$string_output_adapter@_W@__crt_stdio_output@@@__crt_stdio_output@@IEAA_NAEAPEAD@Z 0000000180026418 f i libucrt:output.obj
 0001:0002542c       ??$extract_argument_from_va_list@PEAUansi_string@?1??type_case_Z@?$output_processor@DV?$stream_output_adapter@D@__crt_stdio_output@@V?$format_validation_base@DV?$stream_output_adapter@D@__crt_stdio_output@@@2@@__crt_stdio_output@@AEAA_NXZ@PEAU1?1??234@AEAA_NXZ@@?$standard_base@DV?$stream_output_adapter@D@__crt_stdio_output@@@__crt_stdio_output@@IEAA_NAEAPEAUansi_string@?1??type_case_Z@?$output_processor@DV?$stream_output_adapter@D@__crt_stdio_output@@V?$format_validation_base@DV?$stream_output_adapter@D@__crt_stdio_output@@@2@@1@AEAA_NXZ@@Z 000000018002642c f i libucrt:output.obj
 0001:00025440       ??$extract_argument_from_va_list@PEAUansi_string@?1??type_case_Z@?$output_processor@DV?$stream_output_adapter@D@__crt_stdio_output@@V?$positional_parameter_base@DV?$stream_output_adapter@D@__crt_stdio_output@@@2@@__crt_stdio_output@@AEAA_NXZ@PEAU1?1??234@AEAA_NXZ@@?$positional_parameter_base@DV?$stream_output_adapter@D@__crt_stdio_output@@@__crt_stdio_output@@IEAA_NAEAPEAUansi_string@?1??type_case_Z@?$output_processor@DV?$stream_output_adapter@D@__crt_stdio_output@@V?$positional_parameter_base@DV?$stream_output_adapter@D@__crt_stdio_output@@@2@@1@AEAA_NXZ@@Z 0000000180026440 f i libucrt:output.obj
 0001:00025548       ??$extract_argument_from_va_list@PEAUansi_string@?1??type_case_Z@?$output_processor@DV?$stream_output_adapter@D@__crt_stdio_output@@V?$positional_parameter_base@DV?$stream_output_adapter@D@__crt_stdio_output@@@2@@__crt_stdio_output@@AEAA_NXZ@PEAU1?1??234@AEAA_NXZ@@?$standard_base@DV?$stream_output_adapter@D@__crt_stdio_output@@@__crt_stdio_output@@IEAA_NAEAPEAUansi_string@?1??type_case_Z@?$output_processor@DV?$stream_output_adapter@D@__crt_stdio_output@@V?$positional_parameter_base@DV?$stream_output_adapter@D@__crt_stdio_output@@@2@@1@AEAA_NXZ@@Z 0000000180026548 f i libucrt:output.obj
 0001:0002555c       ??$extract_argument_from_va_list@PEAUansi_string@?1??type_case_Z@?$output_processor@DV?$stream_output_adapter@D@__crt_stdio_output@@V?$standard_base@DV?$stream_output_adapter@D@__crt_stdio_output@@@2@@__crt_stdio_output@@AEAA_NXZ@PEAU1?1??234@AEAA_NXZ@@?$standard_base@DV?$stream_output_adapter@D@__crt_stdio_output@@@__crt_stdio_output@@IEAA_NAEAPEAUansi_string@?1??type_case_Z@?$output_processor@DV?$stream_output_adapter@D@__crt_stdio_output@@V?$standard_base@DV?$stream_output_adapter@D@__crt_stdio_output@@@2@@1@AEAA_NXZ@@Z 000000018002655c f i libucrt:output.obj
 0001:00025570       ??$extract_argument_from_va_list@PEAUansi_string@?1??type_case_Z@?$output_processor@DV?$string_output_adapter@D@__crt_stdio_output@@V?$format_validation_base@DV?$string_output_adapter@D@__crt_stdio_output@@@2@@__crt_stdio_output@@AEAA_NXZ@PEAU1?1??234@AEAA_NXZ@@?$standard_base@DV?$string_output_adapter@D@__crt_stdio_output@@@__crt_stdio_output@@IEAA_NAEAPEAUansi_string@?1??type_case_Z@?$output_processor@DV?$string_output_adapter@D@__crt_stdio_output@@V?$format_validation_base@DV?$string_output_adapter@D@__crt_stdio_output@@@2@@1@AEAA_NXZ@@Z 0000000180026570 f i libucrt:output.obj
 0001:00025584       ??$extract_argument_from_va_list@PEAUansi_string@?1??type_case_Z@?$output_processor@DV?$string_output_adapter@D@__crt_stdio_output@@V?$positional_parameter_base@DV?$string_output_adapter@D@__crt_stdio_output@@@2@@__crt_stdio_output@@AEAA_NXZ@PEAU1?1??234@AEAA_NXZ@@?$positional_parameter_base@DV?$string_output_adapter@D@__crt_stdio_output@@@__crt_stdio_output@@IEAA_NAEAPEAUansi_string@?1??type_case_Z@?$output_processor@DV?$string_output_adapter@D@__crt_stdio_output@@V?$positional_parameter_base@DV?$string_output_adapter@D@__crt_stdio_output@@@2@@1@AEAA_NXZ@@Z 0000000180026584 f i libucrt:output.obj
 0001:0002568c       ??$extract_argument_from_va_list@PEAUansi_string@?1??type_case_Z@?$output_processor@DV?$string_output_adapter@D@__crt_stdio_output@@V?$positional_parameter_base@DV?$string_output_adapter@D@__crt_stdio_output@@@2@@__crt_stdio_output@@AEAA_NXZ@PEAU1?1??234@AEAA_NXZ@@?$standard_base@DV?$string_output_adapter@D@__crt_stdio_output@@@__crt_stdio_output@@IEAA_NAEAPEAUansi_string@?1??type_case_Z@?$output_processor@DV?$string_output_adapter@D@__crt_stdio_output@@V?$positional_parameter_base@DV?$string_output_adapter@D@__crt_stdio_output@@@2@@1@AEAA_NXZ@@Z 000000018002668c f i libucrt:output.obj
 0001:000256a0       ??$extract_argument_from_va_list@PEAUansi_string@?1??type_case_Z@?$output_processor@DV?$string_output_adapter@D@__crt_stdio_output@@V?$standard_base@DV?$string_output_adapter@D@__crt_stdio_output@@@2@@__crt_stdio_output@@AEAA_NXZ@PEAU1?1??234@AEAA_NXZ@@?$standard_base@DV?$string_output_adapter@D@__crt_stdio_output@@@__crt_stdio_output@@IEAA_NAEAPEAUansi_string@?1??type_case_Z@?$output_processor@DV?$string_output_adapter@D@__crt_stdio_output@@V?$standard_base@DV?$string_output_adapter@D@__crt_stdio_output@@@2@@1@AEAA_NXZ@@Z 00000001800266a0 f i libucrt:output.obj
 0001:000256b4       ??$extract_argument_from_va_list@PEAUansi_string@?1??type_case_Z@?$output_processor@_WV?$stream_output_adapter@_W@__crt_stdio_output@@V?$format_validation_base@_WV?$stream_output_adapter@_W@__crt_stdio_output@@@2@@__crt_stdio_output@@AEAA_NXZ@PEAU1?1??234@AEAA_NXZ@@?$standard_base@_WV?$stream_output_adapter@_W@__crt_stdio_output@@@__crt_stdio_output@@IEAA_NAEAPEAUansi_string@?1??type_case_Z@?$output_processor@_WV?$stream_output_adapter@_W@__crt_stdio_output@@V?$format_validation_base@_WV?$stream_output_adapter@_W@__crt_stdio_output@@@2@@1@AEAA_NXZ@@Z 00000001800266b4 f i libucrt:output.obj
 0001:000256c8       ??$extract_argument_from_va_list@PEAUansi_string@?1??type_case_Z@?$output_processor@_WV?$stream_output_adapter@_W@__crt_stdio_output@@V?$positional_parameter_base@_WV?$stream_output_adapter@_W@__crt_stdio_output@@@2@@__crt_stdio_output@@AEAA_NXZ@PEAU1?1??234@AEAA_NXZ@@?$positional_parameter_base@_WV?$stream_output_adapter@_W@__crt_stdio_output@@@__crt_stdio_output@@IEAA_NAEAPEAUansi_string@?1??type_case_Z@?$output_processor@_WV?$stream_output_adapter@_W@__crt_stdio_output@@V?$positional_parameter_base@_WV?$stream_output_adapter@_W@__crt_stdio_output@@@2@@1@AEAA_NXZ@@Z 00000001800266c8 f i libucrt:output.obj
 0001:000257d0       ??$extract_argument_from_va_list@PEAUansi_string@?1??type_case_Z@?$output_processor@_WV?$stream_output_adapter@_W@__crt_stdio_output@@V?$positional_parameter_base@_WV?$stream_output_adapter@_W@__crt_stdio_output@@@2@@__crt_stdio_output@@AEAA_NXZ@PEAU1?1??234@AEAA_NXZ@@?$standard_base@_WV?$stream_output_adapter@_W@__crt_stdio_output@@@__crt_stdio_output@@IEAA_NAEAPEAUansi_string@?1??type_case_Z@?$output_processor@_WV?$stream_output_adapter@_W@__crt_stdio_output@@V?$positional_parameter_base@_WV?$stream_output_adapter@_W@__crt_stdio_output@@@2@@1@AEAA_NXZ@@Z 00000001800267d0 f i libucrt:output.obj
 0001:000257e4       ??$extract_argument_from_va_list@PEAUansi_string@?1??type_case_Z@?$output_processor@_WV?$stream_output_adapter@_W@__crt_stdio_output@@V?$standard_base@_WV?$stream_output_adapter@_W@__crt_stdio_output@@@2@@__crt_stdio_output@@AEAA_NXZ@PEAU1?1??234@AEAA_NXZ@@?$standard_base@_WV?$stream_output_adapter@_W@__crt_stdio_output@@@__crt_stdio_output@@IEAA_NAEAPEAUansi_string@?1??type_case_Z@?$output_processor@_WV?$stream_output_adapter@_W@__crt_stdio_output@@V?$standard_base@_WV?$stream_output_adapter@_W@__crt_stdio_output@@@2@@1@AEAA_NXZ@@Z 00000001800267e4 f i libucrt:output.obj
 0001:000257f8       ??$extract_argument_from_va_list@PEAUansi_string@?1??type_case_Z@?$output_processor@_WV?$string_output_adapter@_W@__crt_stdio_output@@V?$format_validation_base@_WV?$string_output_adapter@_W@__crt_stdio_output@@@2@@__crt_stdio_output@@AEAA_NXZ@PEAU1?1??234@AEAA_NXZ@@?$standard_base@_WV?$string_output_adapter@_W@__crt_stdio_output@@@__crt_stdio_output@@IEAA_NAEAPEAUansi_string@?1??type_case_Z@?$output_processor@_WV?$string_output_adapter@_W@__crt_stdio_output@@V?$format_validation_base@_WV?$string_output_adapter@_W@__crt_stdio_output@@@2@@1@AEAA_NXZ@@Z 00000001800267f8 f i libucrt:output.obj
 0001:0002580c       ??$extract_argument_from_va_list@PEAUansi_string@?1??type_case_Z@?$output_processor@_WV?$string_output_adapter@_W@__crt_stdio_output@@V?$positional_parameter_base@_WV?$string_output_adapter@_W@__crt_stdio_output@@@2@@__crt_stdio_output@@AEAA_NXZ@PEAU1?1??234@AEAA_NXZ@@?$positional_parameter_base@_WV?$string_output_adapter@_W@__crt_stdio_output@@@__crt_stdio_output@@IEAA_NAEAPEAUansi_string@?1??type_case_Z@?$output_processor@_WV?$string_output_adapter@_W@__crt_stdio_output@@V?$positional_parameter_base@_WV?$string_output_adapter@_W@__crt_stdio_output@@@2@@1@AEAA_NXZ@@Z 000000018002680c f i libucrt:output.obj
 0001:00025914       ??$extract_argument_from_va_list@PEAUansi_string@?1??type_case_Z@?$output_processor@_WV?$string_output_adapter@_W@__crt_stdio_output@@V?$positional_parameter_base@_WV?$string_output_adapter@_W@__crt_stdio_output@@@2@@__crt_stdio_output@@AEAA_NXZ@PEAU1?1??234@AEAA_NXZ@@?$standard_base@_WV?$string_output_adapter@_W@__crt_stdio_output@@@__crt_stdio_output@@IEAA_NAEAPEAUansi_string@?1??type_case_Z@?$output_processor@_WV?$string_output_adapter@_W@__crt_stdio_output@@V?$positional_parameter_base@_WV?$string_output_adapter@_W@__crt_stdio_output@@@2@@1@AEAA_NXZ@@Z 0000000180026914 f i libucrt:output.obj
 0001:00025928       ??$extract_argument_from_va_list@PEAUansi_string@?1??type_case_Z@?$output_processor@_WV?$string_output_adapter@_W@__crt_stdio_output@@V?$standard_base@_WV?$string_output_adapter@_W@__crt_stdio_output@@@2@@__crt_stdio_output@@AEAA_NXZ@PEAU1?1??234@AEAA_NXZ@@?$standard_base@_WV?$string_output_adapter@_W@__crt_stdio_output@@@__crt_stdio_output@@IEAA_NAEAPEAUansi_string@?1??type_case_Z@?$output_processor@_WV?$string_output_adapter@_W@__crt_stdio_output@@V?$standard_base@_WV?$string_output_adapter@_W@__crt_stdio_output@@@2@@1@AEAA_NXZ@@Z 0000000180026928 f i libucrt:output.obj
 0001:0002593c       ??$extract_argument_from_va_list@PEAXPEAX@?$positional_parameter_base@DV?$stream_output_adapter@D@__crt_stdio_output@@@__crt_stdio_output@@IEAA_NAEAPEAX@Z 000000018002693c f i libucrt:output.obj
 0001:00025a44       ??$extract_argument_from_va_list@PEAXPEAX@?$positional_parameter_base@DV?$string_output_adapter@D@__crt_stdio_output@@@__crt_stdio_output@@IEAA_NAEAPEAX@Z 0000000180026a44 f i libucrt:output.obj
 0001:00025b4c       ??$extract_argument_from_va_list@PEAXPEAX@?$positional_parameter_base@_WV?$stream_output_adapter@_W@__crt_stdio_output@@@__crt_stdio_output@@IEAA_NAEAPEAX@Z 0000000180026b4c f i libucrt:output.obj
 0001:00025c54       ??$extract_argument_from_va_list@PEAXPEAX@?$positional_parameter_base@_WV?$string_output_adapter@_W@__crt_stdio_output@@@__crt_stdio_output@@IEAA_NAEAPEAX@Z 0000000180026c54 f i libucrt:output.obj
 0001:00025d5c       ??$extract_argument_from_va_list@PEAXPEAX@?$standard_base@DV?$stream_output_adapter@D@__crt_stdio_output@@@__crt_stdio_output@@IEAA_NAEAPEAX@Z 0000000180026d5c f i libucrt:output.obj
 0001:00025d70       ??$extract_argument_from_va_list@PEAXPEAX@?$standard_base@DV?$string_output_adapter@D@__crt_stdio_output@@@__crt_stdio_output@@IEAA_NAEAPEAX@Z 0000000180026d70 f i libucrt:output.obj
 0001:00025d84       ??$extract_argument_from_va_list@PEAXPEAX@?$standard_base@_WV?$stream_output_adapter@_W@__crt_stdio_output@@@__crt_stdio_output@@IEAA_NAEAPEAX@Z 0000000180026d84 f i libucrt:output.obj
 0001:00025d98       ??$extract_argument_from_va_list@PEAXPEAX@?$standard_base@_WV?$string_output_adapter@_W@__crt_stdio_output@@@__crt_stdio_output@@IEAA_NAEAPEAX@Z 0000000180026d98 f i libucrt:output.obj
 0001:00025dac       ??$extract_argument_from_va_list@U_CRT_DOUBLE@@U1@@?$positional_parameter_base@DV?$stream_output_adapter@D@__crt_stdio_output@@@__crt_stdio_output@@IEAA_NAEAU_CRT_DOUBLE@@@Z 0000000180026dac f i libucrt:output.obj
 0001:00025eb4       ??$extract_argument_from_va_list@U_CRT_DOUBLE@@U1@@?$positional_parameter_base@DV?$string_output_adapter@D@__crt_stdio_output@@@__crt_stdio_output@@IEAA_NAEAU_CRT_DOUBLE@@@Z 0000000180026eb4 f i libucrt:output.obj
 0001:00025fbc       ??$extract_argument_from_va_list@U_CRT_DOUBLE@@U1@@?$positional_parameter_base@_WV?$stream_output_adapter@_W@__crt_stdio_output@@@__crt_stdio_output@@IEAA_NAEAU_CRT_DOUBLE@@@Z 0000000180026fbc f i libucrt:output.obj
 0001:000260c4       ??$extract_argument_from_va_list@U_CRT_DOUBLE@@U1@@?$positional_parameter_base@_WV?$string_output_adapter@_W@__crt_stdio_output@@@__crt_stdio_output@@IEAA_NAEAU_CRT_DOUBLE@@@Z 00000001800270c4 f i libucrt:output.obj
 0001:000261cc       ??$extract_argument_from_va_list@U_CRT_DOUBLE@@U1@@?$standard_base@DV?$stream_output_adapter@D@__crt_stdio_output@@@__crt_stdio_output@@IEAA_NAEAU_CRT_DOUBLE@@@Z 00000001800271cc f i libucrt:output.obj
 0001:000261e4       ??$extract_argument_from_va_list@U_CRT_DOUBLE@@U1@@?$standard_base@DV?$string_output_adapter@D@__crt_stdio_output@@@__crt_stdio_output@@IEAA_NAEAU_CRT_DOUBLE@@@Z 00000001800271e4 f i libucrt:output.obj
 0001:000261fc       ??$extract_argument_from_va_list@U_CRT_DOUBLE@@U1@@?$standard_base@_WV?$stream_output_adapter@_W@__crt_stdio_output@@@__crt_stdio_output@@IEAA_NAEAU_CRT_DOUBLE@@@Z 00000001800271fc f i libucrt:output.obj
 0001:00026214       ??$extract_argument_from_va_list@U_CRT_DOUBLE@@U1@@?$standard_base@_WV?$string_output_adapter@_W@__crt_stdio_output@@@__crt_stdio_output@@IEAA_NAEAU_CRT_DOUBLE@@@Z 0000000180027214 f i libucrt:output.obj
 0001:0002622c       ??$extract_argument_from_va_list@_J_J@?$positional_parameter_base@DV?$stream_output_adapter@D@__crt_stdio_output@@@__crt_stdio_output@@IEAA_NAEA_J@Z 000000018002722c f i libucrt:output.obj
 0001:00026334       ??$extract_argument_from_va_list@_J_J@?$positional_parameter_base@DV?$string_output_adapter@D@__crt_stdio_output@@@__crt_stdio_output@@IEAA_NAEA_J@Z 0000000180027334 f i libucrt:output.obj
 0001:0002643c       ??$extract_argument_from_va_list@_J_J@?$positional_parameter_base@_WV?$stream_output_adapter@_W@__crt_stdio_output@@@__crt_stdio_output@@IEAA_NAEA_J@Z 000000018002743c f i libucrt:output.obj
 0001:00026544       ??$extract_argument_from_va_list@_J_J@?$positional_parameter_base@_WV?$string_output_adapter@_W@__crt_stdio_output@@@__crt_stdio_output@@IEAA_NAEA_J@Z 0000000180027544 f i libucrt:output.obj
 0001:0002664c       ??$extract_argument_from_va_list@_J_J@?$standard_base@DV?$stream_output_adapter@D@__crt_stdio_output@@@__crt_stdio_output@@IEAA_NAEA_J@Z 000000018002764c f i libucrt:output.obj
 0001:00026660       ??$extract_argument_from_va_list@_J_J@?$standard_base@DV?$string_output_adapter@D@__crt_stdio_output@@@__crt_stdio_output@@IEAA_NAEA_J@Z 0000000180027660 f i libucrt:output.obj
 0001:00026674       ??$extract_argument_from_va_list@_J_J@?$standard_base@_WV?$stream_output_adapter@_W@__crt_stdio_output@@@__crt_stdio_output@@IEAA_NAEA_J@Z 0000000180027674 f i libucrt:output.obj
 0001:00026688       ??$extract_argument_from_va_list@_J_J@?$standard_base@_WV?$string_output_adapter@_W@__crt_stdio_output@@@__crt_stdio_output@@IEAA_NAEA_J@Z 0000000180027688 f i libucrt:output.obj
 0001:0002669c       ??$extract_argument_from_va_list@_K_J@?$positional_parameter_base@DV?$stream_output_adapter@D@__crt_stdio_output@@@__crt_stdio_output@@IEAA_NAEA_J@Z 000000018002769c f i libucrt:output.obj
 0001:000267a4       ??$extract_argument_from_va_list@_K_J@?$positional_parameter_base@DV?$string_output_adapter@D@__crt_stdio_output@@@__crt_stdio_output@@IEAA_NAEA_J@Z 00000001800277a4 f i libucrt:output.obj
 0001:000268ac       ??$extract_argument_from_va_list@_K_J@?$positional_parameter_base@_WV?$stream_output_adapter@_W@__crt_stdio_output@@@__crt_stdio_output@@IEAA_NAEA_J@Z 00000001800278ac f i libucrt:output.obj
 0001:000269b4       ??$extract_argument_from_va_list@_K_J@?$positional_parameter_base@_WV?$string_output_adapter@_W@__crt_stdio_output@@@__crt_stdio_output@@IEAA_NAEA_J@Z 00000001800279b4 f i libucrt:output.obj
 0001:00026abc       ??$extract_argument_from_va_list@_K_J@?$standard_base@DV?$stream_output_adapter@D@__crt_stdio_output@@@__crt_stdio_output@@IEAA_NAEA_J@Z 0000000180027abc f i libucrt:output.obj
 0001:00026ad0       ??$extract_argument_from_va_list@_K_J@?$standard_base@DV?$string_output_adapter@D@__crt_stdio_output@@@__crt_stdio_output@@IEAA_NAEA_J@Z 0000000180027ad0 f i libucrt:output.obj
 0001:00026ae4       ??$extract_argument_from_va_list@_K_J@?$standard_base@_WV?$stream_output_adapter@_W@__crt_stdio_output@@@__crt_stdio_output@@IEAA_NAEA_J@Z 0000000180027ae4 f i libucrt:output.obj
 0001:00026af8       ??$extract_argument_from_va_list@_K_J@?$standard_base@_WV?$string_output_adapter@_W@__crt_stdio_output@@@__crt_stdio_output@@IEAA_NAEA_J@Z 0000000180027af8 f i libucrt:output.obj
 0001:00026b0c       ??$extract_argument_from_va_list@_W_W@?$positional_parameter_base@DV?$stream_output_adapter@D@__crt_stdio_output@@@__crt_stdio_output@@IEAA_NAEA_W@Z 0000000180027b0c f i libucrt:output.obj
 0001:00026c14       ??$extract_argument_from_va_list@_W_W@?$positional_parameter_base@DV?$string_output_adapter@D@__crt_stdio_output@@@__crt_stdio_output@@IEAA_NAEA_W@Z 0000000180027c14 f i libucrt:output.obj
 0001:00026d1c       ??$extract_argument_from_va_list@_W_W@?$positional_parameter_base@_WV?$stream_output_adapter@_W@__crt_stdio_output@@@__crt_stdio_output@@IEAA_NAEA_W@Z 0000000180027d1c f i libucrt:output.obj
 0001:00026e28       ??$extract_argument_from_va_list@_W_W@?$positional_parameter_base@_WV?$string_output_adapter@_W@__crt_stdio_output@@@__crt_stdio_output@@IEAA_NAEA_W@Z 0000000180027e28 f i libucrt:output.obj
 0001:00026f34       ??$extract_argument_from_va_list@_W_W@?$standard_base@DV?$stream_output_adapter@D@__crt_stdio_output@@@__crt_stdio_output@@IEAA_NAEA_W@Z 0000000180027f34 f i libucrt:output.obj
 0001:00026f48       ??$extract_argument_from_va_list@_W_W@?$standard_base@DV?$string_output_adapter@D@__crt_stdio_output@@@__crt_stdio_output@@IEAA_NAEA_W@Z 0000000180027f48 f i libucrt:output.obj
 0001:00026f5c       ??$extract_argument_from_va_list@_W_W@?$standard_base@_WV?$stream_output_adapter@_W@__crt_stdio_output@@@__crt_stdio_output@@IEAA_NAEA_W@Z 0000000180027f5c f i libucrt:output.obj
 0001:00026f70       ??$extract_argument_from_va_list@_W_W@?$standard_base@_WV?$string_output_adapter@_W@__crt_stdio_output@@@__crt_stdio_output@@IEAA_NAEA_W@Z 0000000180027f70 f i libucrt:output.obj
 0001:00026f84       ??$get_parameter_type@D@?$positional_parameter_base@DV?$stream_output_adapter@D@__crt_stdio_output@@@__crt_stdio_output@@CA?AW4parameter_type@01@PEAD@Z 0000000180027f84 f i libucrt:output.obj
 0001:00026f8c       ??$get_parameter_type@D@?$positional_parameter_base@DV?$string_output_adapter@D@__crt_stdio_output@@@__crt_stdio_output@@CA?AW4parameter_type@01@PEAD@Z 0000000180027f8c f i libucrt:output.obj
 0001:00026f94       ??$get_parameter_type@D@?$positional_parameter_base@_WV?$stream_output_adapter@_W@__crt_stdio_output@@@__crt_stdio_output@@CA?AW4parameter_type@01@PEAD@Z 0000000180027f94 f i libucrt:output.obj
 0001:00026f9c       ??$get_parameter_type@D@?$positional_parameter_base@_WV?$string_output_adapter@_W@__crt_stdio_output@@@__crt_stdio_output@@CA?AW4parameter_type@01@PEAD@Z 0000000180027f9c f i libucrt:output.obj
 0001:00026fa4       ??$get_parameter_type@Uansi_string@?1??type_case_Z@?$output_processor@DV?$stream_output_adapter@D@__crt_stdio_output@@V?$positional_parameter_base@DV?$stream_output_adapter@D@__crt_stdio_output@@@2@@__crt_stdio_output@@AEAA_NXZ@@?$positional_parameter_base@DV?$stream_output_adapter@D@__crt_stdio_output@@@__crt_stdio_output@@CA?AW4parameter_type@01@PEAUansi_string@?1??type_case_Z@?$output_processor@DV?$stream_output_adapter@D@__crt_stdio_output@@V?$positional_parameter_base@DV?$stream_output_adapter@D@__crt_stdio_output@@@2@@1@AEAA_NXZ@@Z 0000000180027fa4 f i libucrt:output.obj
 0001:00026fac       ??$get_parameter_type@Uansi_string@?1??type_case_Z@?$output_processor@DV?$string_output_adapter@D@__crt_stdio_output@@V?$positional_parameter_base@DV?$string_output_adapter@D@__crt_stdio_output@@@2@@__crt_stdio_output@@AEAA_NXZ@@?$positional_parameter_base@DV?$string_output_adapter@D@__crt_stdio_output@@@__crt_stdio_output@@CA?AW4parameter_type@01@PEAUansi_string@?1??type_case_Z@?$output_processor@DV?$string_output_adapter@D@__crt_stdio_output@@V?$positional_parameter_base@DV?$string_output_adapter@D@__crt_stdio_output@@@2@@1@AEAA_NXZ@@Z 0000000180027fac f i libucrt:output.obj
 0001:00026fb4       ??$get_parameter_type@Uansi_string@?1??type_case_Z@?$output_processor@_WV?$stream_output_adapter@_W@__crt_stdio_output@@V?$positional_parameter_base@_WV?$stream_output_adapter@_W@__crt_stdio_output@@@2@@__crt_stdio_output@@AEAA_NXZ@@?$positional_parameter_base@_WV?$stream_output_adapter@_W@__crt_stdio_output@@@__crt_stdio_output@@CA?AW4parameter_type@01@PEAUansi_string@?1??type_case_Z@?$output_processor@_WV?$stream_output_adapter@_W@__crt_stdio_output@@V?$positional_parameter_base@_WV?$stream_output_adapter@_W@__crt_stdio_output@@@2@@1@AEAA_NXZ@@Z 0000000180027fb4 f i libucrt:output.obj
 0001:00026fbc       ??$get_parameter_type@Uansi_string@?1??type_case_Z@?$output_processor@_WV?$string_output_adapter@_W@__crt_stdio_output@@V?$positional_parameter_base@_WV?$string_output_adapter@_W@__crt_stdio_output@@@2@@__crt_stdio_output@@AEAA_NXZ@@?$positional_parameter_base@_WV?$string_output_adapter@_W@__crt_stdio_output@@@__crt_stdio_output@@CA?AW4parameter_type@01@PEAUansi_string@?1??type_case_Z@?$output_processor@_WV?$string_output_adapter@_W@__crt_stdio_output@@V?$positional_parameter_base@_WV?$string_output_adapter@_W@__crt_stdio_output@@@2@@1@AEAA_NXZ@@Z 0000000180027fbc f i libucrt:output.obj
 0001:00026fc4       ??$get_parameter_type@X@?$positional_parameter_base@DV?$stream_output_adapter@D@__crt_stdio_output@@@__crt_stdio_output@@CA?AW4parameter_type@01@PEAX@Z 0000000180027fc4 f i libucrt:output.obj
 0001:00026fcc       ??$get_parameter_type@X@?$positional_parameter_base@DV?$string_output_adapter@D@__crt_stdio_output@@@__crt_stdio_output@@CA?AW4parameter_type@01@PEAX@Z 0000000180027fcc f i libucrt:output.obj
 0001:00026fd4       ??$get_parameter_type@X@?$positional_parameter_base@_WV?$stream_output_adapter@_W@__crt_stdio_output@@@__crt_stdio_output@@CA?AW4parameter_type@01@PEAX@Z 0000000180027fd4 f i libucrt:output.obj
 0001:00026fdc       ??$get_parameter_type@X@?$positional_parameter_base@_WV?$string_output_adapter@_W@__crt_stdio_output@@@__crt_stdio_output@@CA?AW4parameter_type@01@PEAX@Z 0000000180027fdc f i libucrt:output.obj
 0001:00026fe4       ??$is_character_specifier@D@?$positional_parameter_base@DV?$stream_output_adapter@D@__crt_stdio_output@@@__crt_stdio_output@@CA_ND@Z 0000000180027fe4 f i libucrt:output.obj
 0001:00026ff0       ??$is_character_specifier@D@?$positional_parameter_base@DV?$string_output_adapter@D@__crt_stdio_output@@@__crt_stdio_output@@CA_ND@Z 0000000180027ff0 f i libucrt:output.obj
 0001:00026ffc       ??$is_character_specifier@_W@?$positional_parameter_base@_WV?$stream_output_adapter@_W@__crt_stdio_output@@@__crt_stdio_output@@CA_N_W@Z 0000000180027ffc f i libucrt:output.obj
 0001:0002700c       ??$is_character_specifier@_W@?$positional_parameter_base@_WV?$string_output_adapter@_W@__crt_stdio_output@@@__crt_stdio_output@@CA_N_W@Z 000000018002800c f i libucrt:output.obj
 0001:0002701c       ??$is_integral_specifier@D@?$positional_parameter_base@DV?$stream_output_adapter@D@__crt_stdio_output@@@__crt_stdio_output@@CA_ND@Z 000000018002801c f i libucrt:output.obj
 0001:00027040       ??$is_integral_specifier@D@?$positional_parameter_base@DV?$string_output_adapter@D@__crt_stdio_output@@@__crt_stdio_output@@CA_ND@Z 0000000180028040 f i libucrt:output.obj
 0001:00027064       ??$is_integral_specifier@_W@?$positional_parameter_base@_WV?$stream_output_adapter@_W@__crt_stdio_output@@@__crt_stdio_output@@CA_N_W@Z 0000000180028064 f i libucrt:output.obj
 0001:0002708c       ??$is_integral_specifier@_W@?$positional_parameter_base@_WV?$string_output_adapter@_W@__crt_stdio_output@@@__crt_stdio_output@@CA_N_W@Z 000000018002808c f i libucrt:output.obj
 0001:000270b4       ??$is_overflow_condition@K@__crt_strtox@@YA_NIK@Z 00000001800280b4 f i libucrt:output.obj
 0001:000270d8       ??$is_pointer_specifier@D@?$positional_parameter_base@DV?$stream_output_adapter@D@__crt_stdio_output@@@__crt_stdio_output@@CA_ND@Z 00000001800280d8 f i libucrt:output.obj
 0001:000270e0       ??$is_pointer_specifier@D@?$positional_parameter_base@DV?$string_output_adapter@D@__crt_stdio_output@@@__crt_stdio_output@@CA_ND@Z 00000001800280e0 f i libucrt:output.obj
 0001:000270e8       ??$is_pointer_specifier@_W@?$positional_parameter_base@_WV?$stream_output_adapter@_W@__crt_stdio_output@@@__crt_stdio_output@@CA_N_W@Z 00000001800280e8 f i libucrt:output.obj
 0001:000270f0       ??$is_pointer_specifier@_W@?$positional_parameter_base@_WV?$string_output_adapter@_W@__crt_stdio_output@@@__crt_stdio_output@@CA_N_W@Z 00000001800280f0 f i libucrt:output.obj
 0001:000270f8       ??$is_string_specifier@D@?$positional_parameter_base@DV?$stream_output_adapter@D@__crt_stdio_output@@@__crt_stdio_output@@CA_ND@Z 00000001800280f8 f i libucrt:output.obj
 0001:00027104       ??$is_string_specifier@D@?$positional_parameter_base@DV?$string_output_adapter@D@__crt_stdio_output@@@__crt_stdio_output@@CA_ND@Z 0000000180028104 f i libucrt:output.obj
 0001:00027110       ??$is_string_specifier@_W@?$positional_parameter_base@_WV?$stream_output_adapter@_W@__crt_stdio_output@@@__crt_stdio_output@@CA_N_W@Z 0000000180028110 f i libucrt:output.obj
 0001:00027120       ??$is_string_specifier@_W@?$positional_parameter_base@_WV?$string_output_adapter@_W@__crt_stdio_output@@@__crt_stdio_output@@CA_N_W@Z 0000000180028120 f i libucrt:output.obj
 0001:00027130       ??$is_wide_character_specifier@D@__crt_stdio_output@@YA_N_KDW4length_modifier@0@@Z 0000000180028130 f i libucrt:output.obj
 0001:00027158       ??$is_wide_character_specifier@_W@__crt_stdio_output@@YA_N_K_WW4length_modifier@0@@Z 0000000180028158 f i libucrt:output.obj
 0001:00027198       ??$make_c_string_character_source@DPEAPEAD@__crt_strtox@@YA?AV?$c_string_character_source@D@0@QEBDQEAPEAD@Z 0000000180028198 f i libucrt:output.obj
 0001:000271ac       ??$make_c_string_character_source@_WPEAPEA_W@__crt_strtox@@YA?AV?$c_string_character_source@_W@0@QEB_WQEAPEA_W@Z 00000001800281ac f i libucrt:output.obj
 0001:000271c0       ??$parse_integer@KV?$c_string_character_source@D@__crt_strtox@@$0A@@__crt_strtox@@YAKAEAV__crt_cached_ptd_host@@V?$c_string_character_source@D@0@H_N@Z 00000001800281c0 f i libucrt:output.obj
 0001:00027470       ??$parse_integer@KV?$c_string_character_source@_W@__crt_strtox@@$0A@@__crt_strtox@@YAKAEAV__crt_cached_ptd_host@@V?$c_string_character_source@_W@0@H_N@Z 0000000180028470 f i libucrt:output.obj
 0001:00027bc8       ??$peek_va_arg@C@__crt_stdio_output@@YACPEAD@Z 0000000180028bc8 f i libucrt:output.obj
 0001:00027bcc       ??$peek_va_arg@E@__crt_stdio_output@@YAEPEAD@Z 0000000180028bcc f i libucrt:output.obj
 0001:00027bd0       ??$peek_va_arg@F@__crt_stdio_output@@YAFPEAD@Z 0000000180028bd0 f i libucrt:output.obj
 0001:00027bd4       ??$peek_va_arg@G@__crt_stdio_output@@YAGPEAD@Z 0000000180028bd4 f i libucrt:output.obj
 0001:00027bd8       ??$peek_va_arg@H@__crt_stdio_output@@YAHPEAD@Z 0000000180028bd8 f i libucrt:output.obj
 0001:00027bdc       ??$peek_va_arg@I@__crt_stdio_output@@YAIPEAD@Z 0000000180028bdc f i libucrt:output.obj
 0001:00027be0       ??$peek_va_arg@PEAD@__crt_stdio_output@@YAPEADPEAD@Z 0000000180028be0 f i libucrt:output.obj
 0001:00027be4       ??$peek_va_arg@PEAUansi_string@?1??type_case_Z@?$output_processor@DV?$stream_output_adapter@D@__crt_stdio_output@@V?$positional_parameter_base@DV?$stream_output_adapter@D@__crt_stdio_output@@@2@@__crt_stdio_output@@AEAA_NXZ@@__crt_stdio_output@@YAPEAUansi_string@?1??type_case_Z@?$output_processor@DV?$stream_output_adapter@D@__crt_stdio_output@@V?$positional_parameter_base@DV?$stream_output_adapter@D@__crt_stdio_output@@@2@@0@AEAA_NXZ@PEAD@Z 0000000180028be4 f i libucrt:output.obj
 0001:00027be8       ??$peek_va_arg@PEAUansi_string@?1??type_case_Z@?$output_processor@DV?$string_output_adapter@D@__crt_stdio_output@@V?$positional_parameter_base@DV?$string_output_adapter@D@__crt_stdio_output@@@2@@__crt_stdio_output@@AEAA_NXZ@@__crt_stdio_output@@YAPEAUansi_string@?1??type_case_Z@?$output_processor@DV?$string_output_adapter@D@__crt_stdio_output@@V?$positional_parameter_base@DV?$string_output_adapter@D@__crt_stdio_output@@@2@@0@AEAA_NXZ@PEAD@Z 0000000180028be8 f i libucrt:output.obj
 0001:00027bec       ??$peek_va_arg@PEAUansi_string@?1??type_case_Z@?$output_processor@_WV?$stream_output_adapter@_W@__crt_stdio_output@@V?$positional_parameter_base@_WV?$stream_output_adapter@_W@__crt_stdio_output@@@2@@__crt_stdio_output@@AEAA_NXZ@@__crt_stdio_output@@YAPEAUansi_string@?1??type_case_Z@?$output_processor@_WV?$stream_output_adapter@_W@__crt_stdio_output@@V?$positional_parameter_base@_WV?$stream_output_adapter@_W@__crt_stdio_output@@@2@@0@AEAA_NXZ@PEAD@Z 0000000180028bec f i libucrt:output.obj
 0001:00027bf0       ??$peek_va_arg@PEAUansi_string@?1??type_case_Z@?$output_processor@_WV?$string_output_adapter@_W@__crt_stdio_output@@V?$positional_parameter_base@_WV?$string_output_adapter@_W@__crt_stdio_output@@@2@@__crt_stdio_output@@AEAA_NXZ@@__crt_stdio_output@@YAPEAUansi_string@?1??type_case_Z@?$output_processor@_WV?$string_output_adapter@_W@__crt_stdio_output@@V?$positional_parameter_base@_WV?$string_output_adapter@_W@__crt_stdio_output@@@2@@0@AEAA_NXZ@PEAD@Z 0000000180028bf0 f i libucrt:output.obj
 0001:00027bf4       ??$peek_va_arg@PEAX@__crt_stdio_output@@YAPEAXPEAD@Z 0000000180028bf4 f i libucrt:output.obj
 0001:00027bf8       ??$peek_va_arg@U_CRT_DOUBLE@@@__crt_stdio_output@@YA?AU_CRT_DOUBLE@@PEAD@Z 0000000180028bf8 f i libucrt:output.obj
 0001:00027bfc       ??$peek_va_arg@_J@__crt_stdio_output@@YA_JPEAD@Z 0000000180028bfc f i libucrt:output.obj
 0001:00027c00       ??$peek_va_arg@_K@__crt_stdio_output@@YA_KPEAD@Z 0000000180028c00 f i libucrt:output.obj
 0001:00027c04       ??$peek_va_arg@_W@__crt_stdio_output@@YA_WPEAD@Z 0000000180028c04 f i libucrt:output.obj
 0001:00027c08       ??$puttc_nolock_internal@AEBDPEAU_iobuf@@AEAV__crt_cached_ptd_host@@@?$__crt_char_traits@D@@SAHAEBD$$QEAPEAU_iobuf@@AEAV__crt_cached_ptd_host@@@Z 0000000180028c08 f i libucrt:output.obj
 0001:00027c14       ??$puttc_nolock_internal@AEB_WPEAU_iobuf@@AEAV__crt_cached_ptd_host@@@?$__crt_char_traits@_W@@SAGAEB_W$$QEAPEAU_iobuf@@AEAV__crt_cached_ptd_host@@@Z 0000000180028c14 f i libucrt:output.obj
 0001:00027c20       ??$read_va_arg@C@__crt_stdio_output@@YACAEAPEAD@Z 0000000180028c20 f i libucrt:output.obj
 0001:00027c2c       ??$read_va_arg@E@__crt_stdio_output@@YAEAEAPEAD@Z 0000000180028c2c f i libucrt:output.obj
 0001:00027c38       ??$read_va_arg@F@__crt_stdio_output@@YAFAEAPEAD@Z 0000000180028c38 f i libucrt:output.obj
 0001:00027c44       ??$read_va_arg@G@__crt_stdio_output@@YAGAEAPEAD@Z 0000000180028c44 f i libucrt:output.obj
 0001:00027c50       ??$read_va_arg@H@__crt_stdio_output@@YAHAEAPEAD@Z 0000000180028c50 f i libucrt:output.obj
 0001:00027c5c       ??$read_va_arg@I@__crt_stdio_output@@YAIAEAPEAD@Z 0000000180028c5c f i libucrt:output.obj
 0001:00027c68       ??$read_va_arg@PEAD@__crt_stdio_output@@YAPEADAEAPEAD@Z 0000000180028c68 f i libucrt:output.obj
 0001:00027c74       ??$read_va_arg@PEAUansi_string@?1??type_case_Z@?$output_processor@DV?$stream_output_adapter@D@__crt_stdio_output@@V?$format_validation_base@DV?$stream_output_adapter@D@__crt_stdio_output@@@2@@__crt_stdio_output@@AEAA_NXZ@@__crt_stdio_output@@YAPEAUansi_string@?1??type_case_Z@?$output_processor@DV?$stream_output_adapter@D@__crt_stdio_output@@V?$format_validation_base@DV?$stream_output_adapter@D@__crt_stdio_output@@@2@@0@AEAA_NXZ@AEAPEAD@Z 0000000180028c74 f i libucrt:output.obj
 0001:00027c80       ??$read_va_arg@PEAUansi_string@?1??type_case_Z@?$output_processor@DV?$stream_output_adapter@D@__crt_stdio_output@@V?$positional_parameter_base@DV?$stream_output_adapter@D@__crt_stdio_output@@@2@@__crt_stdio_output@@AEAA_NXZ@@__crt_stdio_output@@YAPEAUansi_string@?1??type_case_Z@?$output_processor@DV?$stream_output_adapter@D@__crt_stdio_output@@V?$positional_parameter_base@DV?$stream_output_adapter@D@__crt_stdio_output@@@2@@0@AEAA_NXZ@AEAPEAD@Z 0000000180028c80 f i libucrt:output.obj
 0001:00027c8c       ??$read_va_arg@PEAUansi_string@?1??type_case_Z@?$output_processor@DV?$stream_output_adapter@D@__crt_stdio_output@@V?$standard_base@DV?$stream_output_adapter@D@__crt_stdio_output@@@2@@__crt_stdio_output@@AEAA_NXZ@@__crt_stdio_output@@YAPEAUansi_string@?1??type_case_Z@?$output_processor@DV?$stream_output_adapter@D@__crt_stdio_output@@V?$standard_base@DV?$stream_output_adapter@D@__crt_stdio_output@@@2@@0@AEAA_NXZ@AEAPEAD@Z 0000000180028c8c f i libucrt:output.obj
 0001:00027c98       ??$read_va_arg@PEAUansi_string@?1??type_case_Z@?$output_processor@DV?$string_output_adapter@D@__crt_stdio_output@@V?$format_validation_base@DV?$string_output_adapter@D@__crt_stdio_output@@@2@@__crt_stdio_output@@AEAA_NXZ@@__crt_stdio_output@@YAPEAUansi_string@?1??type_case_Z@?$output_processor@DV?$string_output_adapter@D@__crt_stdio_output@@V?$format_validation_base@DV?$string_output_adapter@D@__crt_stdio_output@@@2@@0@AEAA_NXZ@AEAPEAD@Z 0000000180028c98 f i libucrt:output.obj
 0001:00027ca4       ??$read_va_arg@PEAUansi_string@?1??type_case_Z@?$output_processor@DV?$string_output_adapter@D@__crt_stdio_output@@V?$positional_parameter_base@DV?$string_output_adapter@D@__crt_stdio_output@@@2@@__crt_stdio_output@@AEAA_NXZ@@__crt_stdio_output@@YAPEAUansi_string@?1??type_case_Z@?$output_processor@DV?$string_output_adapter@D@__crt_stdio_output@@V?$positional_parameter_base@DV?$string_output_adapter@D@__crt_stdio_output@@@2@@0@AEAA_NXZ@AEAPEAD@Z 0000000180028ca4 f i libucrt:output.obj
 0001:00027cb0       ??$read_va_arg@PEAUansi_string@?1??type_case_Z@?$output_processor@DV?$string_output_adapter@D@__crt_stdio_output@@V?$standard_base@DV?$string_output_adapter@D@__crt_stdio_output@@@2@@__crt_stdio_output@@AEAA_NXZ@@__crt_stdio_output@@YAPEAUansi_string@?1??type_case_Z@?$output_processor@DV?$string_output_adapter@D@__crt_stdio_output@@V?$standard_base@DV?$string_output_adapter@D@__crt_stdio_output@@@2@@0@AEAA_NXZ@AEAPEAD@Z 0000000180028cb0 f i libucrt:output.obj
 0001:00027cbc       ??$read_va_arg@PEAUansi_string@?1??type_case_Z@?$output_processor@_WV?$stream_output_adapter@_W@__crt_stdio_output@@V?$format_validation_base@_WV?$stream_output_adapter@_W@__crt_stdio_output@@@2@@__crt_stdio_output@@AEAA_NXZ@@__crt_stdio_output@@YAPEAUansi_string@?1??type_case_Z@?$output_processor@_WV?$stream_output_adapter@_W@__crt_stdio_output@@V?$format_validation_base@_WV?$stream_output_adapter@_W@__crt_stdio_output@@@2@@0@AEAA_NXZ@AEAPEAD@Z 0000000180028cbc f i libucrt:output.obj
 0001:00027cc8       ??$read_va_arg@PEAUansi_string@?1??type_case_Z@?$output_processor@_WV?$stream_output_adapter@_W@__crt_stdio_output@@V?$positional_parameter_base@_WV?$stream_output_adapter@_W@__crt_stdio_output@@@2@@__crt_stdio_output@@AEAA_NXZ@@__crt_stdio_output@@YAPEAUansi_string@?1??type_case_Z@?$output_processor@_WV?$stream_output_adapter@_W@__crt_stdio_output@@V?$positional_parameter_base@_WV?$stream_output_adapter@_W@__crt_stdio_output@@@2@@0@AEAA_NXZ@AEAPEAD@Z 0000000180028cc8 f i libucrt:output.obj
 0001:00027cd4       ??$read_va_arg@PEAUansi_string@?1??type_case_Z@?$output_processor@_WV?$stream_output_adapter@_W@__crt_stdio_output@@V?$standard_base@_WV?$stream_output_adapter@_W@__crt_stdio_output@@@2@@__crt_stdio_output@@AEAA_NXZ@@__crt_stdio_output@@YAPEAUansi_string@?1??type_case_Z@?$output_processor@_WV?$stream_output_adapter@_W@__crt_stdio_output@@V?$standard_base@_WV?$stream_output_adapter@_W@__crt_stdio_output@@@2@@0@AEAA_NXZ@AEAPEAD@Z 0000000180028cd4 f i libucrt:output.obj
 0001:00027ce0       ??$read_va_arg@PEAUansi_string@?1??type_case_Z@?$output_processor@_WV?$string_output_adapter@_W@__crt_stdio_output@@V?$format_validation_base@_WV?$string_output_adapter@_W@__crt_stdio_output@@@2@@__crt_stdio_output@@AEAA_NXZ@@__crt_stdio_output@@YAPEAUansi_string@?1??type_case_Z@?$output_processor@_WV?$string_output_adapter@_W@__crt_stdio_output@@V?$format_validation_base@_WV?$string_output_adapter@_W@__crt_stdio_output@@@2@@0@AEAA_NXZ@AEAPEAD@Z 0000000180028ce0 f i libucrt:output.obj
 0001:00027cec       ??$read_va_arg@PEAUansi_string@?1??type_case_Z@?$output_processor@_WV?$string_output_adapter@_W@__crt_stdio_output@@V?$positional_parameter_base@_WV?$string_output_adapter@_W@__crt_stdio_output@@@2@@__crt_stdio_output@@AEAA_NXZ@@__crt_stdio_output@@YAPEAUansi_string@?1??type_case_Z@?$output_processor@_WV?$string_output_adapter@_W@__crt_stdio_output@@V?$positional_parameter_base@_WV?$string_output_adapter@_W@__crt_stdio_output@@@2@@0@AEAA_NXZ@AEAPEAD@Z 0000000180028cec f i libucrt:output.obj
 0001:00027cf8       ??$read_va_arg@PEAUansi_string@?1??type_case_Z@?$output_processor@_WV?$string_output_adapter@_W@__crt_stdio_output@@V?$standard_base@_WV?$string_output_adapter@_W@__crt_stdio_output@@@2@@__crt_stdio_output@@AEAA_NXZ@@__crt_stdio_output@@YAPEAUansi_string@?1??type_case_Z@?$output_processor@_WV?$string_output_adapter@_W@__crt_stdio_output@@V?$standard_base@_WV?$string_output_adapter@_W@__crt_stdio_output@@@2@@0@AEAA_NXZ@AEAPEAD@Z 0000000180028cf8 f i libucrt:output.obj
 0001:00027d04       ??$read_va_arg@PEAX@__crt_stdio_output@@YAPEAXAEAPEAD@Z 0000000180028d04 f i libucrt:output.obj
 0001:00027d10       ??$read_va_arg@U_CRT_DOUBLE@@@__crt_stdio_output@@YA?AU_CRT_DOUBLE@@AEAPEAD@Z 0000000180028d10 f i libucrt:output.obj
 0001:00027d20       ??$read_va_arg@_J@__crt_stdio_output@@YA_JAEAPEAD@Z 0000000180028d20 f i libucrt:output.obj
 0001:00027d2c       ??$read_va_arg@_K@__crt_stdio_output@@YA_KAEAPEAD@Z 0000000180028d2c f i libucrt:output.obj
 0001:00027d38       ??$read_va_arg@_W@__crt_stdio_output@@YA_WAEAPEAD@Z 0000000180028d38 f i libucrt:output.obj
 0001:00027d44       ??$scratch_count@D@formatting_buffer@__crt_stdio_output@@QEBA_KXZ 0000000180028d44 f i libucrt:output.obj
 0001:00027d60       ??$scratch_data@D@formatting_buffer@__crt_stdio_output@@QEAAPEADXZ 0000000180028d60 f i libucrt:output.obj
 0001:00027d84       ??$type_case_integer@$07@?$output_processor@DV?$stream_output_adapter@D@__crt_stdio_output@@V?$format_validation_base@DV?$stream_output_adapter@D@__crt_stdio_output@@@2@@__crt_stdio_output@@AEAA_N_N@Z 0000000180028d84 f i libucrt:output.obj
 0001:00027f6c       ??$type_case_integer@$07@?$output_processor@DV?$stream_output_adapter@D@__crt_stdio_output@@V?$positional_parameter_base@DV?$stream_output_adapter@D@__crt_stdio_output@@@2@@__crt_stdio_output@@AEAA_N_N@Z 0000000180028f6c f i libucrt:output.obj
 0001:00028198       ??$type_case_integer@$07@?$output_processor@DV?$stream_output_adapter@D@__crt_stdio_output@@V?$standard_base@DV?$stream_output_adapter@D@__crt_stdio_output@@@2@@__crt_stdio_output@@AEAA_N_N@Z 0000000180029198 f i libucrt:output.obj
 0001:00028380       ??$type_case_integer@$07@?$output_processor@DV?$string_output_adapter@D@__crt_stdio_output@@V?$format_validation_base@DV?$string_output_adapter@D@__crt_stdio_output@@@2@@__crt_stdio_output@@AEAA_N_N@Z 0000000180029380 f i libucrt:output.obj
 0001:00028568       ??$type_case_integer@$07@?$output_processor@DV?$string_output_adapter@D@__crt_stdio_output@@V?$positional_parameter_base@DV?$string_output_adapter@D@__crt_stdio_output@@@2@@__crt_stdio_output@@AEAA_N_N@Z 0000000180029568 f i libucrt:output.obj
 0001:00028794       ??$type_case_integer@$07@?$output_processor@DV?$string_output_adapter@D@__crt_stdio_output@@V?$standard_base@DV?$string_output_adapter@D@__crt_stdio_output@@@2@@__crt_stdio_output@@AEAA_N_N@Z 0000000180029794 f i libucrt:output.obj
 0001:0002897c       ??$type_case_integer@$07@?$output_processor@_WV?$stream_output_adapter@_W@__crt_stdio_output@@V?$format_validation_base@_WV?$stream_output_adapter@_W@__crt_stdio_output@@@2@@__crt_stdio_output@@AEAA_N_N@Z 000000018002997c f i libucrt:output.obj
 0001:00028b68       ??$type_case_integer@$07@?$output_processor@_WV?$stream_output_adapter@_W@__crt_stdio_output@@V?$positional_parameter_base@_WV?$stream_output_adapter@_W@__crt_stdio_output@@@2@@__crt_stdio_output@@AEAA_N_N@Z 0000000180029b68 f i libucrt:output.obj
 0001:00028d98       ??$type_case_integer@$07@?$output_processor@_WV?$stream_output_adapter@_W@__crt_stdio_output@@V?$standard_base@_WV?$stream_output_adapter@_W@__crt_stdio_output@@@2@@__crt_stdio_output@@AEAA_N_N@Z 0000000180029d98 f i libucrt:output.obj
 0001:00028f84       ??$type_case_integer@$07@?$output_processor@_WV?$string_output_adapter@_W@__crt_stdio_output@@V?$format_validation_base@_WV?$string_output_adapter@_W@__crt_stdio_output@@@2@@__crt_stdio_output@@AEAA_N_N@Z 0000000180029f84 f i libucrt:output.obj
 0001:00029170       ??$type_case_integer@$07@?$output_processor@_WV?$string_output_adapter@_W@__crt_stdio_output@@V?$positional_parameter_base@_WV?$string_output_adapter@_W@__crt_stdio_output@@@2@@__crt_stdio_output@@AEAA_N_N@Z 000000018002a170 f i libucrt:output.obj
 0001:000293a0       ??$type_case_integer@$07@?$output_processor@_WV?$string_output_adapter@_W@__crt_stdio_output@@V?$standard_base@_WV?$string_output_adapter@_W@__crt_stdio_output@@@2@@__crt_stdio_output@@AEAA_N_N@Z 000000018002a3a0 f i libucrt:output.obj
 0001:0002958c       ??$type_case_integer@$09@?$output_processor@DV?$stream_output_adapter@D@__crt_stdio_output@@V?$format_validation_base@DV?$stream_output_adapter@D@__crt_stdio_output@@@2@@__crt_stdio_output@@AEAA_N_N@Z 000000018002a58c f i libucrt:output.obj
 0001:00029774       ??$type_case_integer@$09@?$output_processor@DV?$stream_output_adapter@D@__crt_stdio_output@@V?$positional_parameter_base@DV?$stream_output_adapter@D@__crt_stdio_output@@@2@@__crt_stdio_output@@AEAA_N_N@Z 000000018002a774 f i libucrt:output.obj
 0001:000299a0       ??$type_case_integer@$09@?$output_processor@DV?$stream_output_adapter@D@__crt_stdio_output@@V?$standard_base@DV?$stream_output_adapter@D@__crt_stdio_output@@@2@@__crt_stdio_output@@AEAA_N_N@Z 000000018002a9a0 f i libucrt:output.obj
 0001:00029b88       ??$type_case_integer@$09@?$output_processor@DV?$string_output_adapter@D@__crt_stdio_output@@V?$format_validation_base@DV?$string_output_adapter@D@__crt_stdio_output@@@2@@__crt_stdio_output@@AEAA_N_N@Z 000000018002ab88 f i libucrt:output.obj
 0001:00029d70       ??$type_case_integer@$09@?$output_processor@DV?$string_output_adapter@D@__crt_stdio_output@@V?$positional_parameter_base@DV?$string_output_adapter@D@__crt_stdio_output@@@2@@__crt_stdio_output@@AEAA_N_N@Z 000000018002ad70 f i libucrt:output.obj
 0001:00029f9c       ??$type_case_integer@$09@?$output_processor@DV?$string_output_adapter@D@__crt_stdio_output@@V?$standard_base@DV?$string_output_adapter@D@__crt_stdio_output@@@2@@__crt_stdio_output@@AEAA_N_N@Z 000000018002af9c f i libucrt:output.obj
 0001:0002a184       ??$type_case_integer@$09@?$output_processor@_WV?$stream_output_adapter@_W@__crt_stdio_output@@V?$format_validation_base@_WV?$stream_output_adapter@_W@__crt_stdio_output@@@2@@__crt_stdio_output@@AEAA_N_N@Z 000000018002b184 f i libucrt:output.obj
 0001:0002a370       ??$type_case_integer@$09@?$output_processor@_WV?$stream_output_adapter@_W@__crt_stdio_output@@V?$positional_parameter_base@_WV?$stream_output_adapter@_W@__crt_stdio_output@@@2@@__crt_stdio_output@@AEAA_N_N@Z 000000018002b370 f i libucrt:output.obj
 0001:0002a5a0       ??$type_case_integer@$09@?$output_processor@_WV?$stream_output_adapter@_W@__crt_stdio_output@@V?$standard_base@_WV?$stream_output_adapter@_W@__crt_stdio_output@@@2@@__crt_stdio_output@@AEAA_N_N@Z 000000018002b5a0 f i libucrt:output.obj
 0001:0002a78c       ??$type_case_integer@$09@?$output_processor@_WV?$string_output_adapter@_W@__crt_stdio_output@@V?$format_validation_base@_WV?$string_output_adapter@_W@__crt_stdio_output@@@2@@__crt_stdio_output@@AEAA_N_N@Z 000000018002b78c f i libucrt:output.obj
 0001:0002a978       ??$type_case_integer@$09@?$output_processor@_WV?$string_output_adapter@_W@__crt_stdio_output@@V?$positional_parameter_base@_WV?$string_output_adapter@_W@__crt_stdio_output@@@2@@__crt_stdio_output@@AEAA_N_N@Z 000000018002b978 f i libucrt:output.obj
 0001:0002aba8       ??$type_case_integer@$09@?$output_processor@_WV?$string_output_adapter@_W@__crt_stdio_output@@V?$standard_base@_WV?$string_output_adapter@_W@__crt_stdio_output@@@2@@__crt_stdio_output@@AEAA_N_N@Z 000000018002bba8 f i libucrt:output.obj
 0001:0002ad94       ??$type_case_integer@$0BA@@?$output_processor@DV?$stream_output_adapter@D@__crt_stdio_output@@V?$format_validation_base@DV?$stream_output_adapter@D@__crt_stdio_output@@@2@@__crt_stdio_output@@AEAA_N_N@Z 000000018002bd94 f i libucrt:output.obj
 0001:0002af7c       ??$type_case_integer@$0BA@@?$output_processor@DV?$stream_output_adapter@D@__crt_stdio_output@@V?$positional_parameter_base@DV?$stream_output_adapter@D@__crt_stdio_output@@@2@@__crt_stdio_output@@AEAA_N_N@Z 000000018002bf7c f i libucrt:output.obj
 0001:0002b1a8       ??$type_case_integer@$0BA@@?$output_processor@DV?$stream_output_adapter@D@__crt_stdio_output@@V?$standard_base@DV?$stream_output_adapter@D@__crt_stdio_output@@@2@@__crt_stdio_output@@AEAA_N_N@Z 000000018002c1a8 f i libucrt:output.obj
 0001:0002b390       ??$type_case_integer@$0BA@@?$output_processor@DV?$string_output_adapter@D@__crt_stdio_output@@V?$format_validation_base@DV?$string_output_adapter@D@__crt_stdio_output@@@2@@__crt_stdio_output@@AEAA_N_N@Z 000000018002c390 f i libucrt:output.obj
 0001:0002b578       ??$type_case_integer@$0BA@@?$output_processor@DV?$string_output_adapter@D@__crt_stdio_output@@V?$positional_parameter_base@DV?$string_output_adapter@D@__crt_stdio_output@@@2@@__crt_stdio_output@@AEAA_N_N@Z 000000018002c578 f i libucrt:output.obj
 0001:0002b7a4       ??$type_case_integer@$0BA@@?$output_processor@DV?$string_output_adapter@D@__crt_stdio_output@@V?$standard_base@DV?$string_output_adapter@D@__crt_stdio_output@@@2@@__crt_stdio_output@@AEAA_N_N@Z 000000018002c7a4 f i libucrt:output.obj
 0001:0002b98c       ??$type_case_integer@$0BA@@?$output_processor@_WV?$stream_output_adapter@_W@__crt_stdio_output@@V?$format_validation_base@_WV?$stream_output_adapter@_W@__crt_stdio_output@@@2@@__crt_stdio_output@@AEAA_N_N@Z 000000018002c98c f i libucrt:output.obj
 0001:0002bb78       ??$type_case_integer@$0BA@@?$output_processor@_WV?$stream_output_adapter@_W@__crt_stdio_output@@V?$positional_parameter_base@_WV?$stream_output_adapter@_W@__crt_stdio_output@@@2@@__crt_stdio_output@@AEAA_N_N@Z 000000018002cb78 f i libucrt:output.obj
 0001:0002bda8       ??$type_case_integer@$0BA@@?$output_processor@_WV?$stream_output_adapter@_W@__crt_stdio_output@@V?$standard_base@_WV?$stream_output_adapter@_W@__crt_stdio_output@@@2@@__crt_stdio_output@@AEAA_N_N@Z 000000018002cda8 f i libucrt:output.obj
 0001:0002bf94       ??$type_case_integer@$0BA@@?$output_processor@_WV?$string_output_adapter@_W@__crt_stdio_output@@V?$format_validation_base@_WV?$string_output_adapter@_W@__crt_stdio_output@@@2@@__crt_stdio_output@@AEAA_N_N@Z 000000018002cf94 f i libucrt:output.obj
 0001:0002c180       ??$type_case_integer@$0BA@@?$output_processor@_WV?$string_output_adapter@_W@__crt_stdio_output@@V?$positional_parameter_base@_WV?$string_output_adapter@_W@__crt_stdio_output@@@2@@__crt_stdio_output@@AEAA_N_N@Z 000000018002d180 f i libucrt:output.obj
 0001:0002c3b0       ??$type_case_integer@$0BA@@?$output_processor@_WV?$string_output_adapter@_W@__crt_stdio_output@@V?$standard_base@_WV?$string_output_adapter@_W@__crt_stdio_output@@@2@@__crt_stdio_output@@AEAA_N_N@Z 000000018002d3b0 f i libucrt:output.obj
 0001:0002c59c       ??$type_case_integer_parse_into_buffer@I$07@?$output_processor@DV?$stream_output_adapter@D@__crt_stdio_output@@V?$format_validation_base@DV?$stream_output_adapter@D@__crt_stdio_output@@@2@@__crt_stdio_output@@AEAAXI_N@Z 000000018002d59c f i libucrt:output.obj
 0001:0002c618       ??$type_case_integer_parse_into_buffer@I$07@?$output_processor@DV?$stream_output_adapter@D@__crt_stdio_output@@V?$positional_parameter_base@DV?$stream_output_adapter@D@__crt_stdio_output@@@2@@__crt_stdio_output@@AEAAXI_N@Z 000000018002d618 f i libucrt:output.obj
 0001:0002c694       ??$type_case_integer_parse_into_buffer@I$07@?$output_processor@DV?$stream_output_adapter@D@__crt_stdio_output@@V?$standard_base@DV?$stream_output_adapter@D@__crt_stdio_output@@@2@@__crt_stdio_output@@AEAAXI_N@Z 000000018002d694 f i libucrt:output.obj
 0001:0002c710       ??$type_case_integer_parse_into_buffer@I$07@?$output_processor@DV?$string_output_adapter@D@__crt_stdio_output@@V?$format_validation_base@DV?$string_output_adapter@D@__crt_stdio_output@@@2@@__crt_stdio_output@@AEAAXI_N@Z 000000018002d710 f i libucrt:output.obj
 0001:0002c78c       ??$type_case_integer_parse_into_buffer@I$07@?$output_processor@DV?$string_output_adapter@D@__crt_stdio_output@@V?$positional_parameter_base@DV?$string_output_adapter@D@__crt_stdio_output@@@2@@__crt_stdio_output@@AEAAXI_N@Z 000000018002d78c f i libucrt:output.obj
 0001:0002c808       ??$type_case_integer_parse_into_buffer@I$07@?$output_processor@DV?$string_output_adapter@D@__crt_stdio_output@@V?$standard_base@DV?$string_output_adapter@D@__crt_stdio_output@@@2@@__crt_stdio_output@@AEAAXI_N@Z 000000018002d808 f i libucrt:output.obj
 0001:0002c884       ??$type_case_integer_parse_into_buffer@I$07@?$output_processor@_WV?$stream_output_adapter@_W@__crt_stdio_output@@V?$format_validation_base@_WV?$stream_output_adapter@_W@__crt_stdio_output@@@2@@__crt_stdio_output@@AEAAXI_N@Z 000000018002d884 f i libucrt:output.obj
 0001:0002c90c       ??$type_case_integer_parse_into_buffer@I$07@?$output_processor@_WV?$stream_output_adapter@_W@__crt_stdio_output@@V?$positional_parameter_base@_WV?$stream_output_adapter@_W@__crt_stdio_output@@@2@@__crt_stdio_output@@AEAAXI_N@Z 000000018002d90c f i libucrt:output.obj
 0001:0002c994       ??$type_case_integer_parse_into_buffer@I$07@?$output_processor@_WV?$stream_output_adapter@_W@__crt_stdio_output@@V?$standard_base@_WV?$stream_output_adapter@_W@__crt_stdio_output@@@2@@__crt_stdio_output@@AEAAXI_N@Z 000000018002d994 f i libucrt:output.obj
 0001:0002ca1c       ??$type_case_integer_parse_into_buffer@I$07@?$output_processor@_WV?$string_output_adapter@_W@__crt_stdio_output@@V?$format_validation_base@_WV?$string_output_adapter@_W@__crt_stdio_output@@@2@@__crt_stdio_output@@AEAAXI_N@Z 000000018002da1c f i libucrt:output.obj
 0001:0002caa4       ??$type_case_integer_parse_into_buffer@I$07@?$output_processor@_WV?$string_output_adapter@_W@__crt_stdio_output@@V?$positional_parameter_base@_WV?$string_output_adapter@_W@__crt_stdio_output@@@2@@__crt_stdio_output@@AEAAXI_N@Z 000000018002daa4 f i libucrt:output.obj
 0001:0002cb2c       ??$type_case_integer_parse_into_buffer@I$07@?$output_processor@_WV?$string_output_adapter@_W@__crt_stdio_output@@V?$standard_base@_WV?$string_output_adapter@_W@__crt_stdio_output@@@2@@__crt_stdio_output@@AEAAXI_N@Z 000000018002db2c f i libucrt:output.obj
 0001:0002cbb4       ??$type_case_integer_parse_into_buffer@I$09@?$output_processor@DV?$stream_output_adapter@D@__crt_stdio_output@@V?$format_validation_base@DV?$stream_output_adapter@D@__crt_stdio_output@@@2@@__crt_stdio_output@@AEAAXI_N@Z 000000018002dbb4 f i libucrt:output.obj
 0001:0002cc5c       ??$type_case_integer_parse_into_buffer@I$09@?$output_processor@DV?$stream_output_adapter@D@__crt_stdio_output@@V?$positional_parameter_base@DV?$stream_output_adapter@D@__crt_stdio_output@@@2@@__crt_stdio_output@@AEAAXI_N@Z 000000018002dc5c f i libucrt:output.obj
 0001:0002cd04       ??$type_case_integer_parse_into_buffer@I$09@?$output_processor@DV?$stream_output_adapter@D@__crt_stdio_output@@V?$standard_base@DV?$stream_output_adapter@D@__crt_stdio_output@@@2@@__crt_stdio_output@@AEAAXI_N@Z 000000018002dd04 f i libucrt:output.obj
 0001:0002cdac       ??$type_case_integer_parse_into_buffer@I$09@?$output_processor@DV?$string_output_adapter@D@__crt_stdio_output@@V?$format_validation_base@DV?$string_output_adapter@D@__crt_stdio_output@@@2@@__crt_stdio_output@@AEAAXI_N@Z 000000018002ddac f i libucrt:output.obj
 0001:0002ce54       ??$type_case_integer_parse_into_buffer@I$09@?$output_processor@DV?$string_output_adapter@D@__crt_stdio_output@@V?$positional_parameter_base@DV?$string_output_adapter@D@__crt_stdio_output@@@2@@__crt_stdio_output@@AEAAXI_N@Z 000000018002de54 f i libucrt:output.obj
 0001:0002cefc       ??$type_case_integer_parse_into_buffer@I$09@?$output_processor@DV?$string_output_adapter@D@__crt_stdio_output@@V?$standard_base@DV?$string_output_adapter@D@__crt_stdio_output@@@2@@__crt_stdio_output@@AEAAXI_N@Z 000000018002defc f i libucrt:output.obj
 0001:0002cfa4       ??$type_case_integer_parse_into_buffer@I$09@?$output_processor@_WV?$stream_output_adapter@_W@__crt_stdio_output@@V?$format_validation_base@_WV?$stream_output_adapter@_W@__crt_stdio_output@@@2@@__crt_stdio_output@@AEAAXI_N@Z 000000018002dfa4 f i libucrt:output.obj
 0001:0002d05c       ??$type_case_integer_parse_into_buffer@I$09@?$output_processor@_WV?$stream_output_adapter@_W@__crt_stdio_output@@V?$positional_parameter_base@_WV?$stream_output_adapter@_W@__crt_stdio_output@@@2@@__crt_stdio_output@@AEAAXI_N@Z 000000018002e05c f i libucrt:output.obj
 0001:0002d114       ??$type_case_integer_parse_into_buffer@I$09@?$output_processor@_WV?$stream_output_adapter@_W@__crt_stdio_output@@V?$standard_base@_WV?$stream_output_adapter@_W@__crt_stdio_output@@@2@@__crt_stdio_output@@AEAAXI_N@Z 000000018002e114 f i libucrt:output.obj
 0001:0002d1cc       ??$type_case_integer_parse_into_buffer@I$09@?$output_processor@_WV?$string_output_adapter@_W@__crt_stdio_output@@V?$format_validation_base@_WV?$string_output_adapter@_W@__crt_stdio_output@@@2@@__crt_stdio_output@@AEAAXI_N@Z 000000018002e1cc f i libucrt:output.obj
 0001:0002d284       ??$type_case_integer_parse_into_buffer@I$09@?$output_processor@_WV?$string_output_adapter@_W@__crt_stdio_output@@V?$positional_parameter_base@_WV?$string_output_adapter@_W@__crt_stdio_output@@@2@@__crt_stdio_output@@AEAAXI_N@Z 000000018002e284 f i libucrt:output.obj
 0001:0002d33c       ??$type_case_integer_parse_into_buffer@I$09@?$output_processor@_WV?$string_output_adapter@_W@__crt_stdio_output@@V?$standard_base@_WV?$string_output_adapter@_W@__crt_stdio_output@@@2@@__crt_stdio_output@@AEAAXI_N@Z 000000018002e33c f i libucrt:output.obj
 0001:0002d3f4       ??$type_case_integer_parse_into_buffer@I$0BA@@?$output_processor@DV?$stream_output_adapter@D@__crt_stdio_output@@V?$format_validation_base@DV?$stream_output_adapter@D@__crt_stdio_output@@@2@@__crt_stdio_output@@AEAAXI_N@Z 000000018002e3f4 f i libucrt:output.obj
 0001:0002d480       ??$type_case_integer_parse_into_buffer@I$0BA@@?$output_processor@DV?$stream_output_adapter@D@__crt_stdio_output@@V?$positional_parameter_base@DV?$stream_output_adapter@D@__crt_stdio_output@@@2@@__crt_stdio_output@@AEAAXI_N@Z 000000018002e480 f i libucrt:output.obj
 0001:0002d50c       ??$type_case_integer_parse_into_buffer@I$0BA@@?$output_processor@DV?$stream_output_adapter@D@__crt_stdio_output@@V?$standard_base@DV?$stream_output_adapter@D@__crt_stdio_output@@@2@@__crt_stdio_output@@AEAAXI_N@Z 000000018002e50c f i libucrt:output.obj
 0001:0002d598       ??$type_case_integer_parse_into_buffer@I$0BA@@?$output_processor@DV?$string_output_adapter@D@__crt_stdio_output@@V?$format_validation_base@DV?$string_output_adapter@D@__crt_stdio_output@@@2@@__crt_stdio_output@@AEAAXI_N@Z 000000018002e598 f i libucrt:output.obj
 0001:0002d624       ??$type_case_integer_parse_into_buffer@I$0BA@@?$output_processor@DV?$string_output_adapter@D@__crt_stdio_output@@V?$positional_parameter_base@DV?$string_output_adapter@D@__crt_stdio_output@@@2@@__crt_stdio_output@@AEAAXI_N@Z 000000018002e624 f i libucrt:output.obj
 0001:0002d6b0       ??$type_case_integer_parse_into_buffer@I$0BA@@?$output_processor@DV?$string_output_adapter@D@__crt_stdio_output@@V?$standard_base@DV?$string_output_adapter@D@__crt_stdio_output@@@2@@__crt_stdio_output@@AEAAXI_N@Z 000000018002e6b0 f i libucrt:output.obj
 0001:0002d73c       ??$type_case_integer_parse_into_buffer@I$0BA@@?$output_processor@_WV?$stream_output_adapter@_W@__crt_stdio_output@@V?$format_validation_base@_WV?$stream_output_adapter@_W@__crt_stdio_output@@@2@@__crt_stdio_output@@AEAAXI_N@Z 000000018002e73c f i libucrt:output.obj
 0001:0002d7e0       ??$type_case_integer_parse_into_buffer@I$0BA@@?$output_processor@_WV?$stream_output_adapter@_W@__crt_stdio_output@@V?$positional_parameter_base@_WV?$stream_output_adapter@_W@__crt_stdio_output@@@2@@__crt_stdio_output@@AEAAXI_N@Z 000000018002e7e0 f i libucrt:output.obj
 0001:0002d884       ??$type_case_integer_parse_into_buffer@I$0BA@@?$output_processor@_WV?$stream_output_adapter@_W@__crt_stdio_output@@V?$standard_base@_WV?$stream_output_adapter@_W@__crt_stdio_output@@@2@@__crt_stdio_output@@AEAAXI_N@Z 000000018002e884 f i libucrt:output.obj
 0001:0002d928       ??$type_case_integer_parse_into_buffer@I$0BA@@?$output_processor@_WV?$string_output_adapter@_W@__crt_stdio_output@@V?$format_validation_base@_WV?$string_output_adapter@_W@__crt_stdio_output@@@2@@__crt_stdio_output@@AEAAXI_N@Z 000000018002e928 f i libucrt:output.obj
 0001:0002d9cc       ??$type_case_integer_parse_into_buffer@I$0BA@@?$output_processor@_WV?$string_output_adapter@_W@__crt_stdio_output@@V?$positional_parameter_base@_WV?$string_output_adapter@_W@__crt_stdio_output@@@2@@__crt_stdio_output@@AEAAXI_N@Z 000000018002e9cc f i libucrt:output.obj
 0001:0002da70       ??$type_case_integer_parse_into_buffer@I$0BA@@?$output_processor@_WV?$string_output_adapter@_W@__crt_stdio_output@@V?$standard_base@_WV?$string_output_adapter@_W@__crt_stdio_output@@@2@@__crt_stdio_output@@AEAAXI_N@Z 000000018002ea70 f i libucrt:output.obj
 0001:0002db14       ??$type_case_integer_parse_into_buffer@_K$07@?$output_processor@DV?$stream_output_adapter@D@__crt_stdio_output@@V?$format_validation_base@DV?$stream_output_adapter@D@__crt_stdio_output@@@2@@__crt_stdio_output@@AEAAX_K_N@Z 000000018002eb14 f i libucrt:output.obj
 0001:0002db90       ??$type_case_integer_parse_into_buffer@_K$07@?$output_processor@DV?$stream_output_adapter@D@__crt_stdio_output@@V?$positional_parameter_base@DV?$stream_output_adapter@D@__crt_stdio_output@@@2@@__crt_stdio_output@@AEAAX_K_N@Z 000000018002eb90 f i libucrt:output.obj
 0001:0002dc0c       ??$type_case_integer_parse_into_buffer@_K$07@?$output_processor@DV?$stream_output_adapter@D@__crt_stdio_output@@V?$standard_base@DV?$stream_output_adapter@D@__crt_stdio_output@@@2@@__crt_stdio_output@@AEAAX_K_N@Z 000000018002ec0c f i libucrt:output.obj
 0001:0002dc88       ??$type_case_integer_parse_into_buffer@_K$07@?$output_processor@DV?$string_output_adapter@D@__crt_stdio_output@@V?$format_validation_base@DV?$string_output_adapter@D@__crt_stdio_output@@@2@@__crt_stdio_output@@AEAAX_K_N@Z 000000018002ec88 f i libucrt:output.obj
 0001:0002dd04       ??$type_case_integer_parse_into_buffer@_K$07@?$output_processor@DV?$string_output_adapter@D@__crt_stdio_output@@V?$positional_parameter_base@DV?$string_output_adapter@D@__crt_stdio_output@@@2@@__crt_stdio_output@@AEAAX_K_N@Z 000000018002ed04 f i libucrt:output.obj
 0001:0002dd80       ??$type_case_integer_parse_into_buffer@_K$07@?$output_processor@DV?$string_output_adapter@D@__crt_stdio_output@@V?$standard_base@DV?$string_output_adapter@D@__crt_stdio_output@@@2@@__crt_stdio_output@@AEAAX_K_N@Z 000000018002ed80 f i libucrt:output.obj
 0001:0002ddfc       ??$type_case_integer_parse_into_buffer@_K$07@?$output_processor@_WV?$stream_output_adapter@_W@__crt_stdio_output@@V?$format_validation_base@_WV?$stream_output_adapter@_W@__crt_stdio_output@@@2@@__crt_stdio_output@@AEAAX_K_N@Z 000000018002edfc f i libucrt:output.obj
 0001:0002de84       ??$type_case_integer_parse_into_buffer@_K$07@?$output_processor@_WV?$stream_output_adapter@_W@__crt_stdio_output@@V?$positional_parameter_base@_WV?$stream_output_adapter@_W@__crt_stdio_output@@@2@@__crt_stdio_output@@AEAAX_K_N@Z 000000018002ee84 f i libucrt:output.obj
 0001:0002df0c       ??$type_case_integer_parse_into_buffer@_K$07@?$output_processor@_WV?$stream_output_adapter@_W@__crt_stdio_output@@V?$standard_base@_WV?$stream_output_adapter@_W@__crt_stdio_output@@@2@@__crt_stdio_output@@AEAAX_K_N@Z 000000018002ef0c f i libucrt:output.obj
 0001:0002df94       ??$type_case_integer_parse_into_buffer@_K$07@?$output_processor@_WV?$string_output_adapter@_W@__crt_stdio_output@@V?$format_validation_base@_WV?$string_output_adapter@_W@__crt_stdio_output@@@2@@__crt_stdio_output@@AEAAX_K_N@Z 000000018002ef94 f i libucrt:output.obj
 0001:0002e01c       ??$type_case_integer_parse_into_buffer@_K$07@?$output_processor@_WV?$string_output_adapter@_W@__crt_stdio_output@@V?$positional_parameter_base@_WV?$string_output_adapter@_W@__crt_stdio_output@@@2@@__crt_stdio_output@@AEAAX_K_N@Z 000000018002f01c f i libucrt:output.obj
 0001:0002e0a4       ??$type_case_integer_parse_into_buffer@_K$07@?$output_processor@_WV?$string_output_adapter@_W@__crt_stdio_output@@V?$standard_base@_WV?$string_output_adapter@_W@__crt_stdio_output@@@2@@__crt_stdio_output@@AEAAX_K_N@Z 000000018002f0a4 f i libucrt:output.obj
 0001:0002e12c       ??$type_case_integer_parse_into_buffer@_K$09@?$output_processor@DV?$stream_output_adapter@D@__crt_stdio_output@@V?$format_validation_base@DV?$stream_output_adapter@D@__crt_stdio_output@@@2@@__crt_stdio_output@@AEAAX_K_N@Z 000000018002f12c f i libucrt:output.obj
 0001:0002e1d8       ??$type_case_integer_parse_into_buffer@_K$09@?$output_processor@DV?$stream_output_adapter@D@__crt_stdio_output@@V?$positional_parameter_base@DV?$stream_output_adapter@D@__crt_stdio_output@@@2@@__crt_stdio_output@@AEAAX_K_N@Z 000000018002f1d8 f i libucrt:output.obj
 0001:0002e284       ??$type_case_integer_parse_into_buffer@_K$09@?$output_processor@DV?$stream_output_adapter@D@__crt_stdio_output@@V?$standard_base@DV?$stream_output_adapter@D@__crt_stdio_output@@@2@@__crt_stdio_output@@AEAAX_K_N@Z 000000018002f284 f i libucrt:output.obj
 0001:0002e330       ??$type_case_integer_parse_into_buffer@_K$09@?$output_processor@DV?$string_output_adapter@D@__crt_stdio_output@@V?$format_validation_base@DV?$string_output_adapter@D@__crt_stdio_output@@@2@@__crt_stdio_output@@AEAAX_K_N@Z 000000018002f330 f i libucrt:output.obj
 0001:0002e3dc       ??$type_case_integer_parse_into_buffer@_K$09@?$output_processor@DV?$string_output_adapter@D@__crt_stdio_output@@V?$positional_parameter_base@DV?$string_output_adapter@D@__crt_stdio_output@@@2@@__crt_stdio_output@@AEAAX_K_N@Z 000000018002f3dc f i libucrt:output.obj
 0001:0002e488       ??$type_case_integer_parse_into_buffer@_K$09@?$output_processor@DV?$string_output_adapter@D@__crt_stdio_output@@V?$standard_base@DV?$string_output_adapter@D@__crt_stdio_output@@@2@@__crt_stdio_output@@AEAAX_K_N@Z 000000018002f488 f i libucrt:output.obj
 0001:0002e534       ??$type_case_integer_parse_into_buffer@_K$09@?$output_processor@_WV?$stream_output_adapter@_W@__crt_stdio_output@@V?$format_validation_base@_WV?$stream_output_adapter@_W@__crt_stdio_output@@@2@@__crt_stdio_output@@AEAAX_K_N@Z 000000018002f534 f i libucrt:output.obj
 0001:0002e5f4       ??$type_case_integer_parse_into_buffer@_K$09@?$output_processor@_WV?$stream_output_adapter@_W@__crt_stdio_output@@V?$positional_parameter_base@_WV?$stream_output_adapter@_W@__crt_stdio_output@@@2@@__crt_stdio_output@@AEAAX_K_N@Z 000000018002f5f4 f i libucrt:output.obj
 0001:0002e6b4       ??$type_case_integer_parse_into_buffer@_K$09@?$output_processor@_WV?$stream_output_adapter@_W@__crt_stdio_output@@V?$standard_base@_WV?$stream_output_adapter@_W@__crt_stdio_output@@@2@@__crt_stdio_output@@AEAAX_K_N@Z 000000018002f6b4 f i libucrt:output.obj
 0001:0002e774       ??$type_case_integer_parse_into_buffer@_K$09@?$output_processor@_WV?$string_output_adapter@_W@__crt_stdio_output@@V?$format_validation_base@_WV?$string_output_adapter@_W@__crt_stdio_output@@@2@@__crt_stdio_output@@AEAAX_K_N@Z 000000018002f774 f i libucrt:output.obj
 0001:0002e834       ??$type_case_integer_parse_into_buffer@_K$09@?$output_processor@_WV?$string_output_adapter@_W@__crt_stdio_output@@V?$positional_parameter_base@_WV?$string_output_adapter@_W@__crt_stdio_output@@@2@@__crt_stdio_output@@AEAAX_K_N@Z 000000018002f834 f i libucrt:output.obj
 0001:0002e8f4       ??$type_case_integer_parse_into_buffer@_K$09@?$output_processor@_WV?$string_output_adapter@_W@__crt_stdio_output@@V?$standard_base@_WV?$string_output_adapter@_W@__crt_stdio_output@@@2@@__crt_stdio_output@@AEAAX_K_N@Z 000000018002f8f4 f i libucrt:output.obj
 0001:0002e9b4       ??$type_case_integer_parse_into_buffer@_K$0BA@@?$output_processor@DV?$stream_output_adapter@D@__crt_stdio_output@@V?$format_validation_base@DV?$stream_output_adapter@D@__crt_stdio_output@@@2@@__crt_stdio_output@@AEAAX_K_N@Z 000000018002f9b4 f i libucrt:output.obj
 0001:0002ea40       ??$type_case_integer_parse_into_buffer@_K$0BA@@?$output_processor@DV?$stream_output_adapter@D@__crt_stdio_output@@V?$positional_parameter_base@DV?$stream_output_adapter@D@__crt_stdio_output@@@2@@__crt_stdio_output@@AEAAX_K_N@Z 000000018002fa40 f i libucrt:output.obj
 0001:0002eacc       ??$type_case_integer_parse_into_buffer@_K$0BA@@?$output_processor@DV?$stream_output_adapter@D@__crt_stdio_output@@V?$standard_base@DV?$stream_output_adapter@D@__crt_stdio_output@@@2@@__crt_stdio_output@@AEAAX_K_N@Z 000000018002facc f i libucrt:output.obj
 0001:0002eb58       ??$type_case_integer_parse_into_buffer@_K$0BA@@?$output_processor@DV?$string_output_adapter@D@__crt_stdio_output@@V?$format_validation_base@DV?$string_output_adapter@D@__crt_stdio_output@@@2@@__crt_stdio_output@@AEAAX_K_N@Z 000000018002fb58 f i libucrt:output.obj
 0001:0002ebe4       ??$type_case_integer_parse_into_buffer@_K$0BA@@?$output_processor@DV?$string_output_adapter@D@__crt_stdio_output@@V?$positional_parameter_base@DV?$string_output_adapter@D@__crt_stdio_output@@@2@@__crt_stdio_output@@AEAAX_K_N@Z 000000018002fbe4 f i libucrt:output.obj
 0001:0002ec70       ??$type_case_integer_parse_into_buffer@_K$0BA@@?$output_processor@DV?$string_output_adapter@D@__crt_stdio_output@@V?$standard_base@DV?$string_output_adapter@D@__crt_stdio_output@@@2@@__crt_stdio_output@@AEAAX_K_N@Z 000000018002fc70 f i libucrt:output.obj
 0001:0002ecfc       ??$type_case_integer_parse_into_buffer@_K$0BA@@?$output_processor@_WV?$stream_output_adapter@_W@__crt_stdio_output@@V?$format_validation_base@_WV?$stream_output_adapter@_W@__crt_stdio_output@@@2@@__crt_stdio_output@@AEAAX_K_N@Z 000000018002fcfc f i libucrt:output.obj
 0001:0002eda0       ??$type_case_integer_parse_into_buffer@_K$0BA@@?$output_processor@_WV?$stream_output_adapter@_W@__crt_stdio_output@@V?$positional_parameter_base@_WV?$stream_output_adapter@_W@__crt_stdio_output@@@2@@__crt_stdio_output@@AEAAX_K_N@Z 000000018002fda0 f i libucrt:output.obj
 0001:0002ee44       ??$type_case_integer_parse_into_buffer@_K$0BA@@?$output_processor@_WV?$stream_output_adapter@_W@__crt_stdio_output@@V?$standard_base@_WV?$stream_output_adapter@_W@__crt_stdio_output@@@2@@__crt_stdio_output@@AEAAX_K_N@Z 000000018002fe44 f i libucrt:output.obj
 0001:0002eee8       ??$type_case_integer_parse_into_buffer@_K$0BA@@?$output_processor@_WV?$string_output_adapter@_W@__crt_stdio_output@@V?$format_validation_base@_WV?$string_output_adapter@_W@__crt_stdio_output@@@2@@__crt_stdio_output@@AEAAX_K_N@Z 000000018002fee8 f i libucrt:output.obj
 0001:0002ef8c       ??$type_case_integer_parse_into_buffer@_K$0BA@@?$output_processor@_WV?$string_output_adapter@_W@__crt_stdio_output@@V?$positional_parameter_base@_WV?$string_output_adapter@_W@__crt_stdio_output@@@2@@__crt_stdio_output@@AEAAX_K_N@Z 000000018002ff8c f i libucrt:output.obj
 0001:0002f030       ??$type_case_integer_parse_into_buffer@_K$0BA@@?$output_processor@_WV?$string_output_adapter@_W@__crt_stdio_output@@V?$standard_base@_WV?$string_output_adapter@_W@__crt_stdio_output@@@2@@__crt_stdio_output@@AEAAX_K_N@Z 0000000180030030 f i libucrt:output.obj
 0001:0002f0d4       ??$write_multiple_characters@V?$stream_output_adapter@D@__crt_stdio_output@@D@__crt_stdio_output@@YAXAEBV?$stream_output_adapter@D@0@DHQEAHAEAV__crt_cached_ptd_host@@@Z 00000001800300d4 f i libucrt:output.obj
 0001:0002f164       ??$write_multiple_characters@V?$stream_output_adapter@_W@__crt_stdio_output@@D@__crt_stdio_output@@YAXAEBV?$stream_output_adapter@_W@0@DHQEAHAEAV__crt_cached_ptd_host@@@Z 0000000180030164 f i libucrt:output.obj
 0001:0002f1fc       ??$write_multiple_characters@V?$string_output_adapter@D@__crt_stdio_output@@D@__crt_stdio_output@@YAXAEBV?$string_output_adapter@D@0@DHQEAHAEAV__crt_cached_ptd_host@@@Z 00000001800301fc f i libucrt:output.obj
 0001:0002f274       ??$write_multiple_characters@V?$string_output_adapter@_W@__crt_stdio_output@@D@__crt_stdio_output@@YAXAEBV?$string_output_adapter@_W@0@DHQEAHAEAV__crt_cached_ptd_host@@@Z 0000000180030274 f i libucrt:output.obj
 0001:0002f454       ??0?$c_string_character_source@D@__crt_strtox@@QEAA@QEBDQEAPEBD@Z 0000000180030454 f i libucrt:output.obj
 0001:0002f468       ??0?$c_string_character_source@_W@__crt_strtox@@QEAA@QEB_WQEAPEB_W@Z 0000000180030468 f i libucrt:output.obj
 0001:0002f47c       ??0?$common_data@D@__crt_stdio_output@@IEAA@AEAV__crt_cached_ptd_host@@@Z 000000018003047c f i libucrt:output.obj
 0001:0002f4b8       ??0?$common_data@_W@__crt_stdio_output@@IEAA@AEAV__crt_cached_ptd_host@@@Z 00000001800304b8 f i libucrt:output.obj
 0001:0002f4f8       ??0?$output_adapter_data@DV?$stream_output_adapter@D@__crt_stdio_output@@@__crt_stdio_output@@IEAA@AEBV?$stream_output_adapter@D@1@_KQEBDAEAV__crt_cached_ptd_host@@QEAD@Z 00000001800304f8 f i libucrt:output.obj
 0001:0002f558       ??0?$output_adapter_data@DV?$string_output_adapter@D@__crt_stdio_output@@@__crt_stdio_output@@IEAA@AEBV?$string_output_adapter@D@1@_KQEBDAEAV__crt_cached_ptd_host@@QEAD@Z 0000000180030558 f i libucrt:output.obj
 0001:0002f5b8       ??0?$output_adapter_data@_WV?$stream_output_adapter@_W@__crt_stdio_output@@@__crt_stdio_output@@IEAA@AEBV?$stream_output_adapter@_W@1@_KQEB_WAEAV__crt_cached_ptd_host@@QEAD@Z 00000001800305b8 f i libucrt:output.obj
 0001:0002f61c       ??0?$output_adapter_data@_WV?$string_output_adapter@_W@__crt_stdio_output@@@__crt_stdio_output@@IEAA@AEBV?$string_output_adapter@_W@1@_KQEB_WAEAV__crt_cached_ptd_host@@QEAD@Z 000000018003061c f i libucrt:output.obj
 0001:0002f680       ??0?$output_processor@DV?$stream_output_adapter@D@__crt_stdio_output@@V?$format_validation_base@DV?$stream_output_adapter@D@__crt_stdio_output@@@2@@__crt_stdio_output@@QEAA@AEBV?$stream_output_adapter@D@1@_KQEBDAEAV__crt_cached_ptd_host@@QEAD@Z 0000000180030680 f i libucrt:output.obj
 0001:0002f6e8       ??0?$output_processor@DV?$stream_output_adapter@D@__crt_stdio_output@@V?$positional_parameter_base@DV?$stream_output_adapter@D@__crt_stdio_output@@@2@@__crt_stdio_output@@QEAA@AEBV?$stream_output_adapter@D@1@_KQEBDAEAV__crt_cached_ptd_host@@QEAD@Z 00000001800306e8 f i libucrt:output.obj
 0001:0002f76c       ??0?$output_processor@DV?$stream_output_adapter@D@__crt_stdio_output@@V?$standard_base@DV?$stream_output_adapter@D@__crt_stdio_output@@@2@@__crt_stdio_output@@QEAA@AEBV?$stream_output_adapter@D@1@_KQEBDAEAV__crt_cached_ptd_host@@QEAD@Z 000000018003076c f i libucrt:output.obj
 0001:0002f7d4       ??0?$output_processor@DV?$string_output_adapter@D@__crt_stdio_output@@V?$format_validation_base@DV?$string_output_adapter@D@__crt_stdio_output@@@2@@__crt_stdio_output@@QEAA@AEBV?$string_output_adapter@D@1@_KQEBDAEAV__crt_cached_ptd_host@@QEAD@Z 00000001800307d4 f i libucrt:output.obj
 0001:0002f83c       ??0?$output_processor@DV?$string_output_adapter@D@__crt_stdio_output@@V?$positional_parameter_base@DV?$string_output_adapter@D@__crt_stdio_output@@@2@@__crt_stdio_output@@QEAA@AEBV?$string_output_adapter@D@1@_KQEBDAEAV__crt_cached_ptd_host@@QEAD@Z 000000018003083c f i libucrt:output.obj
 0001:0002f8c0       ??0?$output_processor@DV?$string_output_adapter@D@__crt_stdio_output@@V?$standard_base@DV?$string_output_adapter@D@__crt_stdio_output@@@2@@__crt_stdio_output@@QEAA@AEBV?$string_output_adapter@D@1@_KQEBDAEAV__crt_cached_ptd_host@@QEAD@Z 00000001800308c0 f i libucrt:output.obj
 0001:0002f928       ??0?$output_processor@_WV?$stream_output_adapter@_W@__crt_stdio_output@@V?$format_validation_base@_WV?$stream_output_adapter@_W@__crt_stdio_output@@@2@@__crt_stdio_output@@QEAA@AEBV?$stream_output_adapter@_W@1@_KQEB_WAEAV__crt_cached_ptd_host@@QEAD@Z 0000000180030928 f i libucrt:output.obj
 0001:0002f994       ??0?$output_processor@_WV?$stream_output_adapter@_W@__crt_stdio_output@@V?$positional_parameter_base@_WV?$stream_output_adapter@_W@__crt_stdio_output@@@2@@__crt_stdio_output@@QEAA@AEBV?$stream_output_adapter@_W@1@_KQEB_WAEAV__crt_cached_ptd_host@@QEAD@Z 0000000180030994 f i libucrt:output.obj
 0001:0002fa1c       ??0?$output_processor@_WV?$stream_output_adapter@_W@__crt_stdio_output@@V?$standard_base@_WV?$stream_output_adapter@_W@__crt_stdio_output@@@2@@__crt_stdio_output@@QEAA@AEBV?$stream_output_adapter@_W@1@_KQEB_WAEAV__crt_cached_ptd_host@@QEAD@Z 0000000180030a1c f i libucrt:output.obj
 0001:0002fa88       ??0?$output_processor@_WV?$string_output_adapter@_W@__crt_stdio_output@@V?$format_validation_base@_WV?$string_output_adapter@_W@__crt_stdio_output@@@2@@__crt_stdio_output@@QEAA@AEBV?$string_output_adapter@_W@1@_KQEB_WAEAV__crt_cached_ptd_host@@QEAD@Z 0000000180030a88 f i libucrt:output.obj
 0001:0002faf4       ??0?$output_processor@_WV?$string_output_adapter@_W@__crt_stdio_output@@V?$positional_parameter_base@_WV?$string_output_adapter@_W@__crt_stdio_output@@@2@@__crt_stdio_output@@QEAA@AEBV?$string_output_adapter@_W@1@_KQEB_WAEAV__crt_cached_ptd_host@@QEAD@Z 0000000180030af4 f i libucrt:output.obj
 0001:0002fb7c       ??0?$output_processor@_WV?$string_output_adapter@_W@__crt_stdio_output@@V?$standard_base@_WV?$string_output_adapter@_W@__crt_stdio_output@@@2@@__crt_stdio_output@@QEAA@AEBV?$string_output_adapter@_W@1@_KQEB_WAEAV__crt_cached_ptd_host@@QEAD@Z 0000000180030b7c f i libucrt:output.obj
 0001:0002fbe8       ??0?$stream_output_adapter@D@__crt_stdio_output@@QEAA@QEAU_iobuf@@@Z 0000000180030be8 f i libucrt:output.obj
 0001:0002fbf0       ??0?$stream_output_adapter@_W@__crt_stdio_output@@QEAA@QEAU_iobuf@@@Z 0000000180030bf0 f i libucrt:output.obj
 0001:0002fbf8       ??0?$string_output_adapter@D@__crt_stdio_output@@QEAA@QEAU?$string_output_adapter_context@D@1@@Z 0000000180030bf8 f i libucrt:output.obj
 0001:0002fc00       ??0?$string_output_adapter@_W@__crt_stdio_output@@QEAA@QEAU?$string_output_adapter_context@_W@1@@Z 0000000180030c00 f i libucrt:output.obj
 0001:0002fc08       ??0__acrt_stdio_temporary_buffering_guard@@QEAA@QEAU_iobuf@@AEAV__crt_cached_ptd_host@@@Z 0000000180030c08 f i libucrt:output.obj
 0001:0002fc2c       ??0__crt_stdio_stream@@QEAA@QEAU_iobuf@@@Z 0000000180030c2c f i libucrt:output.obj
 0001:0002fc34       ??0formatting_buffer@__crt_stdio_output@@QEAA@XZ 0000000180030c34 f i libucrt:output.obj
 0001:0002fc48       ??0guard@?$cached@H@__crt_cached_ptd_host@@QEAA@AEAU12@@Z 0000000180030c48 f i libucrt:output.obj
 0001:0002fc5c       ??1?$c_string_character_source@D@__crt_strtox@@QEAA@XZ 0000000180030c5c f i libucrt:output.obj
 0001:0002fc6c       ??1?$c_string_character_source@_W@__crt_strtox@@QEAA@XZ 0000000180030c6c f i libucrt:output.obj
 0001:0002fc7c       ??1?$common_data@D@__crt_stdio_output@@QEAA@XZ 0000000180030c7c f i libucrt:output.obj
 0001:0002fca0       ??1?$common_data@_W@__crt_stdio_output@@QEAA@XZ 0000000180030ca0 f i libucrt:output.obj
 0001:0002fcc4       ??1?$format_validation_base@DV?$stream_output_adapter@D@__crt_stdio_output@@@__crt_stdio_output@@QEAA@XZ 0000000180030cc4 f i libucrt:output.obj
 0001:0002fce8       ??1?$format_validation_base@DV?$string_output_adapter@D@__crt_stdio_output@@@__crt_stdio_output@@QEAA@XZ 0000000180030ce8 f i libucrt:output.obj
 0001:0002fd0c       ??1?$format_validation_base@_WV?$stream_output_adapter@_W@__crt_stdio_output@@@__crt_stdio_output@@QEAA@XZ 0000000180030d0c f i libucrt:output.obj
 0001:0002fd30       ??1?$format_validation_base@_WV?$string_output_adapter@_W@__crt_stdio_output@@@__crt_stdio_output@@QEAA@XZ 0000000180030d30 f i libucrt:output.obj
 0001:0002fd54       ??1?$output_adapter_data@DV?$stream_output_adapter@D@__crt_stdio_output@@@__crt_stdio_output@@QEAA@XZ 0000000180030d54 f i libucrt:output.obj
 0001:0002fd78       ??1?$output_adapter_data@DV?$string_output_adapter@D@__crt_stdio_output@@@__crt_stdio_output@@QEAA@XZ 0000000180030d78 f i libucrt:output.obj
 0001:0002fd9c       ??1?$output_adapter_data@_WV?$stream_output_adapter@_W@__crt_stdio_output@@@__crt_stdio_output@@QEAA@XZ 0000000180030d9c f i libucrt:output.obj
 0001:0002fdc0       ??1?$output_adapter_data@_WV?$string_output_adapter@_W@__crt_stdio_output@@@__crt_stdio_output@@QEAA@XZ 0000000180030dc0 f i libucrt:output.obj
 0001:0002fde4       ??1?$output_processor@DV?$stream_output_adapter@D@__crt_stdio_output@@V?$format_validation_base@DV?$stream_output_adapter@D@__crt_stdio_output@@@2@@__crt_stdio_output@@QEAA@XZ 0000000180030de4 f i libucrt:output.obj
 0001:0002fe08       ??1?$output_processor@DV?$stream_output_adapter@D@__crt_stdio_output@@V?$positional_parameter_base@DV?$stream_output_adapter@D@__crt_stdio_output@@@2@@__crt_stdio_output@@QEAA@XZ 0000000180030e08 f i libucrt:output.obj
 0001:0002fe2c       ??1?$output_processor@DV?$stream_output_adapter@D@__crt_stdio_output@@V?$standard_base@DV?$stream_output_adapter@D@__crt_stdio_output@@@2@@__crt_stdio_output@@QEAA@XZ 0000000180030e2c f i libucrt:output.obj
 0001:0002fe50       ??1?$output_processor@DV?$string_output_adapter@D@__crt_stdio_output@@V?$format_validation_base@DV?$string_output_adapter@D@__crt_stdio_output@@@2@@__crt_stdio_output@@QEAA@XZ 0000000180030e50 f i libucrt:output.obj
 0001:0002fe74       ??1?$output_processor@DV?$string_output_adapter@D@__crt_stdio_output@@V?$positional_parameter_base@DV?$string_output_adapter@D@__crt_stdio_output@@@2@@__crt_stdio_output@@QEAA@XZ 0000000180030e74 f i libucrt:output.obj
 0001:0002fe98       ??1?$output_processor@DV?$string_output_adapter@D@__crt_stdio_output@@V?$standard_base@DV?$string_output_adapter@D@__crt_stdio_output@@@2@@__crt_stdio_output@@QEAA@XZ 0000000180030e98 f i libucrt:output.obj
 0001:0002febc       ??1?$output_processor@_WV?$stream_output_adapter@_W@__crt_stdio_output@@V?$format_validation_base@_WV?$stream_output_adapter@_W@__crt_stdio_output@@@2@@__crt_stdio_output@@QEAA@XZ 0000000180030ebc f i libucrt:output.obj
 0001:0002fee0       ??1?$output_processor@_WV?$stream_output_adapter@_W@__crt_stdio_output@@V?$positional_parameter_base@_WV?$stream_output_adapter@_W@__crt_stdio_output@@@2@@__crt_stdio_output@@QEAA@XZ 0000000180030ee0 f i libucrt:output.obj
 0001:0002ff04       ??1?$output_processor@_WV?$stream_output_adapter@_W@__crt_stdio_output@@V?$standard_base@_WV?$stream_output_adapter@_W@__crt_stdio_output@@@2@@__crt_stdio_output@@QEAA@XZ 0000000180030f04 f i libucrt:output.obj
 0001:0002ff28       ??1?$output_processor@_WV?$string_output_adapter@_W@__crt_stdio_output@@V?$format_validation_base@_WV?$string_output_adapter@_W@__crt_stdio_output@@@2@@__crt_stdio_output@@QEAA@XZ 0000000180030f28 f i libucrt:output.obj
 0001:0002ff4c       ??1?$output_processor@_WV?$string_output_adapter@_W@__crt_stdio_output@@V?$positional_parameter_base@_WV?$string_output_adapter@_W@__crt_stdio_output@@@2@@__crt_stdio_output@@QEAA@XZ 0000000180030f4c f i libucrt:output.obj
 0001:0002ff70       ??1?$output_processor@_WV?$string_output_adapter@_W@__crt_stdio_output@@V?$standard_base@_WV?$string_output_adapter@_W@__crt_stdio_output@@@2@@__crt_stdio_output@@QEAA@XZ 0000000180030f70 f i libucrt:output.obj
 0001:0002ff94       ??1?$positional_parameter_base@DV?$stream_output_adapter@D@__crt_stdio_output@@@__crt_stdio_output@@QEAA@XZ 0000000180030f94 f i libucrt:output.obj
 0001:0002ffb8       ??1?$positional_parameter_base@DV?$string_output_adapter@D@__crt_stdio_output@@@__crt_stdio_output@@QEAA@XZ 0000000180030fb8 f i libucrt:output.obj
 0001:0002ffdc       ??1?$positional_parameter_base@_WV?$stream_output_adapter@_W@__crt_stdio_output@@@__crt_stdio_output@@QEAA@XZ 0000000180030fdc f i libucrt:output.obj
 0001:00030000       ??1?$positional_parameter_base@_WV?$string_output_adapter@_W@__crt_stdio_output@@@__crt_stdio_output@@QEAA@XZ 0000000180031000 f i libucrt:output.obj
 0001:00030024       ??1?$standard_base@DV?$stream_output_adapter@D@__crt_stdio_output@@@__crt_stdio_output@@QEAA@XZ 0000000180031024 f i libucrt:output.obj
 0001:00030048       ??1?$standard_base@DV?$string_output_adapter@D@__crt_stdio_output@@@__crt_stdio_output@@QEAA@XZ 0000000180031048 f i libucrt:output.obj
 0001:0003006c       ??1?$standard_base@_WV?$stream_output_adapter@_W@__crt_stdio_output@@@__crt_stdio_output@@QEAA@XZ 000000018003106c f i libucrt:output.obj
 0001:00030090       ??1?$standard_base@_WV?$string_output_adapter@_W@__crt_stdio_output@@@__crt_stdio_output@@QEAA@XZ 0000000180031090 f i libucrt:output.obj
 0001:000300b4       ??1__acrt_stdio_temporary_buffering_guard@@QEAA@XZ 00000001800310b4 f i libucrt:output.obj
 0001:000300c4       ??1formatting_buffer@__crt_stdio_output@@QEAA@XZ 00000001800310c4 f i libucrt:output.obj
 0001:000300e8       ??1guard@?$cached@H@__crt_cached_ptd_host@@QEAA@XZ 00000001800310e8 f i libucrt:output.obj
 0001:000300fc       ??4?$__crt_unique_heap_ptr@DU__crt_internal_free_policy@@@@QEAAAEAV0@$$QEAV0@@Z 00000001800310fc f i libucrt:output.obj
 0001:00030130       ??A?$spectre_mitigated_lookup_table@Ustate_transition_pair@__crt_stdio_output@@$0IA@@__crt_stdio_output@@QEBAAEBUstate_transition_pair@1@_K@Z 0000000180031130 f i libucrt:output.obj
 0001:00030138       ??C__crt_stdio_stream@@QEBAPEAU__crt_stdio_stream_data@@XZ 0000000180031138 f i libucrt:output.obj
 0001:00030880       ?__crt_interlocked_read_32@@YAHPEDH@Z 0000000180031880 f i libucrt:output.obj
 0001:00030884       ?adjust_hexit@?$output_processor@DV?$stream_output_adapter@D@__crt_stdio_output@@V?$format_validation_base@DV?$stream_output_adapter@D@__crt_stdio_output@@@2@@__crt_stdio_output@@CADH_N@Z 0000000180031884 f i libucrt:output.obj
 0001:00030890       ?adjust_hexit@?$output_processor@DV?$stream_output_adapter@D@__crt_stdio_output@@V?$positional_parameter_base@DV?$stream_output_adapter@D@__crt_stdio_output@@@2@@__crt_stdio_output@@CADH_N@Z 0000000180031890 f i libucrt:output.obj
 0001:0003089c       ?adjust_hexit@?$output_processor@DV?$stream_output_adapter@D@__crt_stdio_output@@V?$standard_base@DV?$stream_output_adapter@D@__crt_stdio_output@@@2@@__crt_stdio_output@@CADH_N@Z 000000018003189c f i libucrt:output.obj
 0001:000308a8       ?adjust_hexit@?$output_processor@DV?$string_output_adapter@D@__crt_stdio_output@@V?$format_validation_base@DV?$string_output_adapter@D@__crt_stdio_output@@@2@@__crt_stdio_output@@CADH_N@Z 00000001800318a8 f i libucrt:output.obj
 0001:000308b4       ?adjust_hexit@?$output_processor@DV?$string_output_adapter@D@__crt_stdio_output@@V?$positional_parameter_base@DV?$string_output_adapter@D@__crt_stdio_output@@@2@@__crt_stdio_output@@CADH_N@Z 00000001800318b4 f i libucrt:output.obj
 0001:000308c0       ?adjust_hexit@?$output_processor@DV?$string_output_adapter@D@__crt_stdio_output@@V?$standard_base@DV?$string_output_adapter@D@__crt_stdio_output@@@2@@__crt_stdio_output@@CADH_N@Z 00000001800318c0 f i libucrt:output.obj
 0001:000308cc       ?adjust_hexit@?$output_processor@_WV?$stream_output_adapter@_W@__crt_stdio_output@@V?$format_validation_base@_WV?$stream_output_adapter@_W@__crt_stdio_output@@@2@@__crt_stdio_output@@CADH_N@Z 00000001800318cc f i libucrt:output.obj
 0001:000308d8       ?adjust_hexit@?$output_processor@_WV?$stream_output_adapter@_W@__crt_stdio_output@@V?$positional_parameter_base@_WV?$stream_output_adapter@_W@__crt_stdio_output@@@2@@__crt_stdio_output@@CADH_N@Z 00000001800318d8 f i libucrt:output.obj
 0001:000308e4       ?adjust_hexit@?$output_processor@_WV?$stream_output_adapter@_W@__crt_stdio_output@@V?$standard_base@_WV?$stream_output_adapter@_W@__crt_stdio_output@@@2@@__crt_stdio_output@@CADH_N@Z 00000001800318e4 f i libucrt:output.obj
 0001:000308f0       ?adjust_hexit@?$output_processor@_WV?$string_output_adapter@_W@__crt_stdio_output@@V?$format_validation_base@_WV?$string_output_adapter@_W@__crt_stdio_output@@@2@@__crt_stdio_output@@CADH_N@Z 00000001800318f0 f i libucrt:output.obj
 0001:000308fc       ?adjust_hexit@?$output_processor@_WV?$string_output_adapter@_W@__crt_stdio_output@@V?$positional_parameter_base@_WV?$string_output_adapter@_W@__crt_stdio_output@@@2@@__crt_stdio_output@@CADH_N@Z 00000001800318fc f i libucrt:output.obj
 0001:00030908       ?adjust_hexit@?$output_processor@_WV?$string_output_adapter@_W@__crt_stdio_output@@V?$standard_base@_WV?$string_output_adapter@_W@__crt_stdio_output@@@2@@__crt_stdio_output@@CADH_N@Z 0000000180031908 f i libucrt:output.obj
 0001:00030914       ?advance_to_next_pass@?$positional_parameter_base@DV?$stream_output_adapter@D@__crt_stdio_output@@@__crt_stdio_output@@IEAA_NXZ 0000000180031914 f i libucrt:output.obj
 0001:00030964       ?advance_to_next_pass@?$positional_parameter_base@DV?$string_output_adapter@D@__crt_stdio_output@@@__crt_stdio_output@@IEAA_NXZ 0000000180031964 f i libucrt:output.obj
 0001:000309b4       ?advance_to_next_pass@?$positional_parameter_base@_WV?$stream_output_adapter@_W@__crt_stdio_output@@@__crt_stdio_output@@IEAA_NXZ 00000001800319b4 f i libucrt:output.obj
 0001:00030a04       ?advance_to_next_pass@?$positional_parameter_base@_WV?$string_output_adapter@_W@__crt_stdio_output@@@__crt_stdio_output@@IEAA_NXZ 0000000180031a04 f i libucrt:output.obj
 0001:00030a54       ?advance_to_next_pass@?$standard_base@DV?$stream_output_adapter@D@__crt_stdio_output@@@__crt_stdio_output@@IEAA_NXZ 0000000180031a54 f i libucrt:output.obj
 0001:00030a68       ?advance_to_next_pass@?$standard_base@DV?$string_output_adapter@D@__crt_stdio_output@@@__crt_stdio_output@@IEAA_NXZ 0000000180031a68 f i libucrt:output.obj
 0001:00030a7c       ?advance_to_next_pass@?$standard_base@_WV?$stream_output_adapter@_W@__crt_stdio_output@@@__crt_stdio_output@@IEAA_NXZ 0000000180031a7c f i libucrt:output.obj
 0001:00030a90       ?advance_to_next_pass@?$standard_base@_WV?$string_output_adapter@_W@__crt_stdio_output@@@__crt_stdio_output@@IEAA_NXZ 0000000180031a90 f i libucrt:output.obj
 0001:00030aa4       ?check@?$cached@H@__crt_cached_ptd_host@@QEBA_NH@Z 0000000180031aa4 f i libucrt:output.obj
 0001:00030ab4       ?create_guard@?$cached@H@__crt_cached_ptd_host@@QEAA?AVguard@12@XZ 0000000180031ab4 f i libucrt:output.obj
 0001:00030ac8       ?crop_zeroes@__crt_stdio_output@@YAXPEADQEAU__crt_locale_pointers@@@Z 0000000180031ac8 f i libucrt:output.obj
 0001:00030b34       ?disable@guard@?$cached@H@__crt_cached_ptd_host@@QEAAXXZ 0000000180031b34 f i libucrt:output.obj
 0001:00030b3c       ?enable@guard@?$cached@H@__crt_cached_ptd_host@@QEAAXXZ 0000000180031b3c f i libucrt:output.obj
 0001:00030b44       ?find_next_state@?$output_processor@DV?$stream_output_adapter@D@__crt_stdio_output@@V?$format_validation_base@DV?$stream_output_adapter@D@__crt_stdio_output@@@2@@__crt_stdio_output@@AEBA?AW4state@2@DW432@@Z 0000000180031b44 f i libucrt:output.obj
 0001:00030b7c       ?find_next_state@?$output_processor@DV?$stream_output_adapter@D@__crt_stdio_output@@V?$positional_parameter_base@DV?$stream_output_adapter@D@__crt_stdio_output@@@2@@__crt_stdio_output@@AEBA?AW4state@2@DW432@@Z 0000000180031b7c f i libucrt:output.obj
 0001:00030bb4       ?find_next_state@?$output_processor@DV?$stream_output_adapter@D@__crt_stdio_output@@V?$standard_base@DV?$stream_output_adapter@D@__crt_stdio_output@@@2@@__crt_stdio_output@@AEBA?AW4state@2@DW432@@Z 0000000180031bb4 f i libucrt:output.obj
 0001:00030be8       ?find_next_state@?$output_processor@DV?$string_output_adapter@D@__crt_stdio_output@@V?$format_validation_base@DV?$string_output_adapter@D@__crt_stdio_output@@@2@@__crt_stdio_output@@AEBA?AW4state@2@DW432@@Z 0000000180031be8 f i libucrt:output.obj
 0001:00030c20       ?find_next_state@?$output_processor@DV?$string_output_adapter@D@__crt_stdio_output@@V?$positional_parameter_base@DV?$string_output_adapter@D@__crt_stdio_output@@@2@@__crt_stdio_output@@AEBA?AW4state@2@DW432@@Z 0000000180031c20 f i libucrt:output.obj
 0001:00030c58       ?find_next_state@?$output_processor@DV?$string_output_adapter@D@__crt_stdio_output@@V?$standard_base@DV?$string_output_adapter@D@__crt_stdio_output@@@2@@__crt_stdio_output@@AEBA?AW4state@2@DW432@@Z 0000000180031c58 f i libucrt:output.obj
 0001:00030c8c       ?find_next_state@?$output_processor@_WV?$stream_output_adapter@_W@__crt_stdio_output@@V?$format_validation_base@_WV?$stream_output_adapter@_W@__crt_stdio_output@@@2@@__crt_stdio_output@@AEBA?AW4state@2@_WW432@@Z 0000000180031c8c f i libucrt:output.obj
 0001:00030ccc       ?find_next_state@?$output_processor@_WV?$stream_output_adapter@_W@__crt_stdio_output@@V?$positional_parameter_base@_WV?$stream_output_adapter@_W@__crt_stdio_output@@@2@@__crt_stdio_output@@AEBA?AW4state@2@_WW432@@Z 0000000180031ccc f i libucrt:output.obj
 0001:00030d0c       ?find_next_state@?$output_processor@_WV?$stream_output_adapter@_W@__crt_stdio_output@@V?$standard_base@_WV?$stream_output_adapter@_W@__crt_stdio_output@@@2@@__crt_stdio_output@@AEBA?AW4state@2@_WW432@@Z 0000000180031d0c f i libucrt:output.obj
 0001:00030d48       ?find_next_state@?$output_processor@_WV?$string_output_adapter@_W@__crt_stdio_output@@V?$format_validation_base@_WV?$string_output_adapter@_W@__crt_stdio_output@@@2@@__crt_stdio_output@@AEBA?AW4state@2@_WW432@@Z 0000000180031d48 f i libucrt:output.obj
 0001:00030d88       ?find_next_state@?$output_processor@_WV?$string_output_adapter@_W@__crt_stdio_output@@V?$positional_parameter_base@_WV?$string_output_adapter@_W@__crt_stdio_output@@@2@@__crt_stdio_output@@AEBA?AW4state@2@_WW432@@Z 0000000180031d88 f i libucrt:output.obj
 0001:00030dc8       ?find_next_state@?$output_processor@_WV?$string_output_adapter@_W@__crt_stdio_output@@V?$standard_base@_WV?$string_output_adapter@_W@__crt_stdio_output@@@2@@__crt_stdio_output@@AEBA?AW4state@2@_WW432@@Z 0000000180031dc8 f i libucrt:output.obj
 0001:00030e04       ?force_decimal_point@__crt_stdio_output@@YAXPEADQEAU__crt_locale_pointers@@@Z 0000000180031e04 f i libucrt:output.obj
 0001:00030e64       ?get@?$c_string_character_source@D@__crt_strtox@@QEAADXZ 0000000180031e64 f i libucrt:output.obj
 0001:00030e70       ?get@?$c_string_character_source@_W@__crt_strtox@@QEAA_WXZ 0000000180031e70 f i libucrt:output.obj
 0001:00030e80       ?get_flags@__crt_stdio_stream@@QEBAJXZ 0000000180031e80 f i libucrt:output.obj
 0001:00030e90       ?get_locale@__crt_cached_ptd_host@@QEAAPEAU__crt_locale_pointers@@XZ 0000000180031e90 f i libucrt:output.obj
 0001:00030eb8       ?get_parameter_type@?$positional_parameter_base@DV?$stream_output_adapter@D@__crt_stdio_output@@@__crt_stdio_output@@CA?AW4parameter_type@12@F@Z 0000000180031eb8 f i libucrt:output.obj
 0001:00030ec0       ?get_parameter_type@?$positional_parameter_base@DV?$stream_output_adapter@D@__crt_stdio_output@@@__crt_stdio_output@@CA?AW4parameter_type@12@G@Z 0000000180031ec0 f i libucrt:output.obj
 0001:00030ec8       ?get_parameter_type@?$positional_parameter_base@DV?$stream_output_adapter@D@__crt_stdio_output@@@__crt_stdio_output@@CA?AW4parameter_type@12@H@Z 0000000180031ec8 f i libucrt:output.obj
 0001:00030ed0       ?get_parameter_type@?$positional_parameter_base@DV?$stream_output_adapter@D@__crt_stdio_output@@@__crt_stdio_output@@CA?AW4parameter_type@12@I@Z 0000000180031ed0 f i libucrt:output.obj
 0001:00030ed8       ?get_parameter_type@?$positional_parameter_base@DV?$stream_output_adapter@D@__crt_stdio_output@@@__crt_stdio_output@@CA?AW4parameter_type@12@U_CRT_DOUBLE@@@Z 0000000180031ed8 f i libucrt:output.obj
 0001:00030ee0       ?get_parameter_type@?$positional_parameter_base@DV?$stream_output_adapter@D@__crt_stdio_output@@@__crt_stdio_output@@CA?AW4parameter_type@12@_J@Z 0000000180031ee0 f i libucrt:output.obj
 0001:00030ee8       ?get_parameter_type@?$positional_parameter_base@DV?$stream_output_adapter@D@__crt_stdio_output@@@__crt_stdio_output@@CA?AW4parameter_type@12@_K@Z 0000000180031ee8 f i libucrt:output.obj
 0001:00030ef0       ?get_parameter_type@?$positional_parameter_base@DV?$stream_output_adapter@D@__crt_stdio_output@@@__crt_stdio_output@@CA?AW4parameter_type@12@_W@Z 0000000180031ef0 f i libucrt:output.obj
 0001:00030ef8       ?get_parameter_type@?$positional_parameter_base@DV?$string_output_adapter@D@__crt_stdio_output@@@__crt_stdio_output@@CA?AW4parameter_type@12@F@Z 0000000180031ef8 f i libucrt:output.obj
 0001:00030f00       ?get_parameter_type@?$positional_parameter_base@DV?$string_output_adapter@D@__crt_stdio_output@@@__crt_stdio_output@@CA?AW4parameter_type@12@G@Z 0000000180031f00 f i libucrt:output.obj
 0001:00030f08       ?get_parameter_type@?$positional_parameter_base@DV?$string_output_adapter@D@__crt_stdio_output@@@__crt_stdio_output@@CA?AW4parameter_type@12@H@Z 0000000180031f08 f i libucrt:output.obj
 0001:00030f10       ?get_parameter_type@?$positional_parameter_base@DV?$string_output_adapter@D@__crt_stdio_output@@@__crt_stdio_output@@CA?AW4parameter_type@12@I@Z 0000000180031f10 f i libucrt:output.obj
 0001:00030f18       ?get_parameter_type@?$positional_parameter_base@DV?$string_output_adapter@D@__crt_stdio_output@@@__crt_stdio_output@@CA?AW4parameter_type@12@U_CRT_DOUBLE@@@Z 0000000180031f18 f i libucrt:output.obj
 0001:00030f20       ?get_parameter_type@?$positional_parameter_base@DV?$string_output_adapter@D@__crt_stdio_output@@@__crt_stdio_output@@CA?AW4parameter_type@12@_J@Z 0000000180031f20 f i libucrt:output.obj
 0001:00030f28       ?get_parameter_type@?$positional_parameter_base@DV?$string_output_adapter@D@__crt_stdio_output@@@__crt_stdio_output@@CA?AW4parameter_type@12@_K@Z 0000000180031f28 f i libucrt:output.obj
 0001:00030f30       ?get_parameter_type@?$positional_parameter_base@DV?$string_output_adapter@D@__crt_stdio_output@@@__crt_stdio_output@@CA?AW4parameter_type@12@_W@Z 0000000180031f30 f i libucrt:output.obj
 0001:00030f38       ?get_parameter_type@?$positional_parameter_base@_WV?$stream_output_adapter@_W@__crt_stdio_output@@@__crt_stdio_output@@CA?AW4parameter_type@12@F@Z 0000000180031f38 f i libucrt:output.obj
 0001:00030f40       ?get_parameter_type@?$positional_parameter_base@_WV?$stream_output_adapter@_W@__crt_stdio_output@@@__crt_stdio_output@@CA?AW4parameter_type@12@G@Z 0000000180031f40 f i libucrt:output.obj
 0001:00030f48       ?get_parameter_type@?$positional_parameter_base@_WV?$stream_output_adapter@_W@__crt_stdio_output@@@__crt_stdio_output@@CA?AW4parameter_type@12@H@Z 0000000180031f48 f i libucrt:output.obj
 0001:00030f50       ?get_parameter_type@?$positional_parameter_base@_WV?$stream_output_adapter@_W@__crt_stdio_output@@@__crt_stdio_output@@CA?AW4parameter_type@12@I@Z 0000000180031f50 f i libucrt:output.obj
 0001:00030f58       ?get_parameter_type@?$positional_parameter_base@_WV?$stream_output_adapter@_W@__crt_stdio_output@@@__crt_stdio_output@@CA?AW4parameter_type@12@U_CRT_DOUBLE@@@Z 0000000180031f58 f i libucrt:output.obj
 0001:00030f60       ?get_parameter_type@?$positional_parameter_base@_WV?$stream_output_adapter@_W@__crt_stdio_output@@@__crt_stdio_output@@CA?AW4parameter_type@12@_J@Z 0000000180031f60 f i libucrt:output.obj
 0001:00030f68       ?get_parameter_type@?$positional_parameter_base@_WV?$stream_output_adapter@_W@__crt_stdio_output@@@__crt_stdio_output@@CA?AW4parameter_type@12@_K@Z 0000000180031f68 f i libucrt:output.obj
 0001:00030f70       ?get_parameter_type@?$positional_parameter_base@_WV?$stream_output_adapter@_W@__crt_stdio_output@@@__crt_stdio_output@@CA?AW4parameter_type@12@_W@Z 0000000180031f70 f i libucrt:output.obj
 0001:00030f78       ?get_parameter_type@?$positional_parameter_base@_WV?$string_output_adapter@_W@__crt_stdio_output@@@__crt_stdio_output@@CA?AW4parameter_type@12@F@Z 0000000180031f78 f i libucrt:output.obj
 0001:00030f80       ?get_parameter_type@?$positional_parameter_base@_WV?$string_output_adapter@_W@__crt_stdio_output@@@__crt_stdio_output@@CA?AW4parameter_type@12@G@Z 0000000180031f80 f i libucrt:output.obj
 0001:00030f88       ?get_parameter_type@?$positional_parameter_base@_WV?$string_output_adapter@_W@__crt_stdio_output@@@__crt_stdio_output@@CA?AW4parameter_type@12@H@Z 0000000180031f88 f i libucrt:output.obj
 0001:00030f90       ?get_parameter_type@?$positional_parameter_base@_WV?$string_output_adapter@_W@__crt_stdio_output@@@__crt_stdio_output@@CA?AW4parameter_type@12@I@Z 0000000180031f90 f i libucrt:output.obj
 0001:00030f98       ?get_parameter_type@?$positional_parameter_base@_WV?$string_output_adapter@_W@__crt_stdio_output@@@__crt_stdio_output@@CA?AW4parameter_type@12@U_CRT_DOUBLE@@@Z 0000000180031f98 f i libucrt:output.obj
 0001:00030fa0       ?get_parameter_type@?$positional_parameter_base@_WV?$string_output_adapter@_W@__crt_stdio_output@@@__crt_stdio_output@@CA?AW4parameter_type@12@_J@Z 0000000180031fa0 f i libucrt:output.obj
 0001:00030fa8       ?get_parameter_type@?$positional_parameter_base@_WV?$string_output_adapter@_W@__crt_stdio_output@@@__crt_stdio_output@@CA?AW4parameter_type@12@_K@Z 0000000180031fa8 f i libucrt:output.obj
 0001:00030fb0       ?get_parameter_type@?$positional_parameter_base@_WV?$string_output_adapter@_W@__crt_stdio_output@@@__crt_stdio_output@@CA?AW4parameter_type@12@_W@Z 0000000180031fb0 f i libucrt:output.obj
 0001:00030fb8       ?has_flag@?$output_processor@DV?$stream_output_adapter@D@__crt_stdio_output@@V?$format_validation_base@DV?$stream_output_adapter@D@__crt_stdio_output@@@2@@__crt_stdio_output@@AEBA_NI@Z 0000000180031fb8 f i libucrt:output.obj
 0001:00030fc0       ?has_flag@?$output_processor@DV?$stream_output_adapter@D@__crt_stdio_output@@V?$positional_parameter_base@DV?$stream_output_adapter@D@__crt_stdio_output@@@2@@__crt_stdio_output@@AEBA_NI@Z 0000000180031fc0 f i libucrt:output.obj
 0001:00030fc8       ?has_flag@?$output_processor@DV?$stream_output_adapter@D@__crt_stdio_output@@V?$standard_base@DV?$stream_output_adapter@D@__crt_stdio_output@@@2@@__crt_stdio_output@@AEBA_NI@Z 0000000180031fc8 f i libucrt:output.obj
 0001:00030fd0       ?has_flag@?$output_processor@DV?$string_output_adapter@D@__crt_stdio_output@@V?$format_validation_base@DV?$string_output_adapter@D@__crt_stdio_output@@@2@@__crt_stdio_output@@AEBA_NI@Z 0000000180031fd0 f i libucrt:output.obj
 0001:00030fd8       ?has_flag@?$output_processor@DV?$string_output_adapter@D@__crt_stdio_output@@V?$positional_parameter_base@DV?$string_output_adapter@D@__crt_stdio_output@@@2@@__crt_stdio_output@@AEBA_NI@Z 0000000180031fd8 f i libucrt:output.obj
 0001:00030fe0       ?has_flag@?$output_processor@DV?$string_output_adapter@D@__crt_stdio_output@@V?$standard_base@DV?$string_output_adapter@D@__crt_stdio_output@@@2@@__crt_stdio_output@@AEBA_NI@Z 0000000180031fe0 f i libucrt:output.obj
 0001:00030fe8       ?has_flag@?$output_processor@_WV?$stream_output_adapter@_W@__crt_stdio_output@@V?$format_validation_base@_WV?$stream_output_adapter@_W@__crt_stdio_output@@@2@@__crt_stdio_output@@AEBA_NI@Z 0000000180031fe8 f i libucrt:output.obj
 0001:00030ff0       ?has_flag@?$output_processor@_WV?$stream_output_adapter@_W@__crt_stdio_output@@V?$positional_parameter_base@_WV?$stream_output_adapter@_W@__crt_stdio_output@@@2@@__crt_stdio_output@@AEBA_NI@Z 0000000180031ff0 f i libucrt:output.obj
 0001:00030ff8       ?has_flag@?$output_processor@_WV?$stream_output_adapter@_W@__crt_stdio_output@@V?$standard_base@_WV?$stream_output_adapter@_W@__crt_stdio_output@@@2@@__crt_stdio_output@@AEBA_NI@Z 0000000180031ff8 f i libucrt:output.obj
 0001:00031000       ?has_flag@?$output_processor@_WV?$string_output_adapter@_W@__crt_stdio_output@@V?$format_validation_base@_WV?$string_output_adapter@_W@__crt_stdio_output@@@2@@__crt_stdio_output@@AEBA_NI@Z 0000000180032000 f i libucrt:output.obj
 0001:00031008       ?has_flag@?$output_processor@_WV?$string_output_adapter@_W@__crt_stdio_output@@V?$positional_parameter_base@_WV?$string_output_adapter@_W@__crt_stdio_output@@@2@@__crt_stdio_output@@AEBA_NI@Z 0000000180032008 f i libucrt:output.obj
 0001:00031010       ?has_flag@?$output_processor@_WV?$string_output_adapter@_W@__crt_stdio_output@@V?$standard_base@_WV?$string_output_adapter@_W@__crt_stdio_output@@@2@@__crt_stdio_output@@AEBA_NI@Z 0000000180032010 f i libucrt:output.obj
 0001:00031018       ?is_positional_parameter_reappearance_consistent@?$positional_parameter_base@DV?$stream_output_adapter@D@__crt_stdio_output@@@__crt_stdio_output@@AEAA_NAEBUparameter_data@12@W4parameter_type@12@DW4length_modifier@2@@Z 0000000180032018 f i libucrt:output.obj
 0001:0003124c       ?is_positional_parameter_reappearance_consistent@?$positional_parameter_base@DV?$string_output_adapter@D@__crt_stdio_output@@@__crt_stdio_output@@AEAA_NAEBUparameter_data@12@W4parameter_type@12@DW4length_modifier@2@@Z 000000018003224c f i libucrt:output.obj
 0001:00031480       ?is_positional_parameter_reappearance_consistent@?$positional_parameter_base@_WV?$stream_output_adapter@_W@__crt_stdio_output@@@__crt_stdio_output@@AEAA_NAEBUparameter_data@12@W4parameter_type@12@_WW4length_modifier@2@@Z 0000000180032480 f i libucrt:output.obj
 0001:00031684       ?is_positional_parameter_reappearance_consistent@?$positional_parameter_base@_WV?$string_output_adapter@_W@__crt_stdio_output@@@__crt_stdio_output@@AEAA_NAEBUparameter_data@12@W4parameter_type@12@_WW4length_modifier@2@@Z 0000000180032684 f i libucrt:output.obj
 0001:00031888       ?is_string_backed@__crt_stdio_stream@@QEBA_NXZ 0000000180032888 f i libucrt:output.obj
 0001:00031894       ?maximum_signed_value@__crt_strtox@@YAJK@Z 0000000180032894 f i libucrt:output.obj
 0001:0003189c       ?minimum_signed_value@__crt_strtox@@YAJK@Z 000000018003289c f i libucrt:output.obj
 0001:000318a4       ?narrow_null_string@?$output_processor@DV?$stream_output_adapter@D@__crt_stdio_output@@V?$format_validation_base@DV?$stream_output_adapter@D@__crt_stdio_output@@@2@@__crt_stdio_output@@CAPEADXZ 00000001800328a4 f i libucrt:output.obj
 0001:000318ac       ?narrow_null_string@?$output_processor@DV?$stream_output_adapter@D@__crt_stdio_output@@V?$positional_parameter_base@DV?$stream_output_adapter@D@__crt_stdio_output@@@2@@__crt_stdio_output@@CAPEADXZ 00000001800328ac f i libucrt:output.obj
 0001:000318b4       ?narrow_null_string@?$output_processor@DV?$stream_output_adapter@D@__crt_stdio_output@@V?$standard_base@DV?$stream_output_adapter@D@__crt_stdio_output@@@2@@__crt_stdio_output@@CAPEADXZ 00000001800328b4 f i libucrt:output.obj
 0001:000318bc       ?narrow_null_string@?$output_processor@DV?$string_output_adapter@D@__crt_stdio_output@@V?$format_validation_base@DV?$string_output_adapter@D@__crt_stdio_output@@@2@@__crt_stdio_output@@CAPEADXZ 00000001800328bc f i libucrt:output.obj
 0001:000318c4       ?narrow_null_string@?$output_processor@DV?$string_output_adapter@D@__crt_stdio_output@@V?$positional_parameter_base@DV?$string_output_adapter@D@__crt_stdio_output@@@2@@__crt_stdio_output@@CAPEADXZ 00000001800328c4 f i libucrt:output.obj
 0001:000318cc       ?narrow_null_string@?$output_processor@DV?$string_output_adapter@D@__crt_stdio_output@@V?$standard_base@DV?$string_output_adapter@D@__crt_stdio_output@@@2@@__crt_stdio_output@@CAPEADXZ 00000001800328cc f i libucrt:output.obj
 0001:000318d4       ?narrow_null_string@?$output_processor@_WV?$stream_output_adapter@_W@__crt_stdio_output@@V?$format_validation_base@_WV?$stream_output_adapter@_W@__crt_stdio_output@@@2@@__crt_stdio_output@@CAPEADXZ 00000001800328d4 f i libucrt:output.obj
 0001:000318dc       ?narrow_null_string@?$output_processor@_WV?$stream_output_adapter@_W@__crt_stdio_output@@V?$positional_parameter_base@_WV?$stream_output_adapter@_W@__crt_stdio_output@@@2@@__crt_stdio_output@@CAPEADXZ 00000001800328dc f i libucrt:output.obj
 0001:000318e4       ?narrow_null_string@?$output_processor@_WV?$stream_output_adapter@_W@__crt_stdio_output@@V?$standard_base@_WV?$stream_output_adapter@_W@__crt_stdio_output@@@2@@__crt_stdio_output@@CAPEADXZ 00000001800328e4 f i libucrt:output.obj
 0001:000318ec       ?narrow_null_string@?$output_processor@_WV?$string_output_adapter@_W@__crt_stdio_output@@V?$format_validation_base@_WV?$string_output_adapter@_W@__crt_stdio_output@@@2@@__crt_stdio_output@@CAPEADXZ 00000001800328ec f i libucrt:output.obj
 0001:000318f4       ?narrow_null_string@?$output_processor@_WV?$string_output_adapter@_W@__crt_stdio_output@@V?$positional_parameter_base@_WV?$string_output_adapter@_W@__crt_stdio_output@@@2@@__crt_stdio_output@@CAPEADXZ 00000001800328f4 f i libucrt:output.obj
 0001:000318fc       ?narrow_null_string@?$output_processor@_WV?$string_output_adapter@_W@__crt_stdio_output@@V?$standard_base@_WV?$string_output_adapter@_W@__crt_stdio_output@@@2@@__crt_stdio_output@@CAPEADXZ 00000001800328fc f i libucrt:output.obj
 0001:00031904       ?parse_digit@__crt_strtox@@YAID@Z 0000000180032904 f i libucrt:output.obj
 0001:00031934       ?parse_digit@__crt_strtox@@YAI_W@Z 0000000180032934 f i libucrt:output.obj
 0001:00031af0       ?parse_int_from_format_string@?$output_processor@DV?$stream_output_adapter@D@__crt_stdio_output@@V?$format_validation_base@DV?$stream_output_adapter@D@__crt_stdio_output@@@2@@__crt_stdio_output@@AEAA_NQEAH@Z 0000000180032af0 f i libucrt:output.obj
 0001:00031b80       ?parse_int_from_format_string@?$output_processor@DV?$stream_output_adapter@D@__crt_stdio_output@@V?$positional_parameter_base@DV?$stream_output_adapter@D@__crt_stdio_output@@@2@@__crt_stdio_output@@AEAA_NQEAH@Z 0000000180032b80 f i libucrt:output.obj
 0001:00031c10       ?parse_int_from_format_string@?$output_processor@DV?$stream_output_adapter@D@__crt_stdio_output@@V?$standard_base@DV?$stream_output_adapter@D@__crt_stdio_output@@@2@@__crt_stdio_output@@AEAA_NQEAH@Z 0000000180032c10 f i libucrt:output.obj
 0001:00031ca0       ?parse_int_from_format_string@?$output_processor@DV?$string_output_adapter@D@__crt_stdio_output@@V?$format_validation_base@DV?$string_output_adapter@D@__crt_stdio_output@@@2@@__crt_stdio_output@@AEAA_NQEAH@Z 0000000180032ca0 f i libucrt:output.obj
 0001:00031d30       ?parse_int_from_format_string@?$output_processor@DV?$string_output_adapter@D@__crt_stdio_output@@V?$positional_parameter_base@DV?$string_output_adapter@D@__crt_stdio_output@@@2@@__crt_stdio_output@@AEAA_NQEAH@Z 0000000180032d30 f i libucrt:output.obj
 0001:00031dc0       ?parse_int_from_format_string@?$output_processor@DV?$string_output_adapter@D@__crt_stdio_output@@V?$standard_base@DV?$string_output_adapter@D@__crt_stdio_output@@@2@@__crt_stdio_output@@AEAA_NQEAH@Z 0000000180032dc0 f i libucrt:output.obj
 0001:00031e50       ?parse_int_from_format_string@?$output_processor@_WV?$stream_output_adapter@_W@__crt_stdio_output@@V?$format_validation_base@_WV?$stream_output_adapter@_W@__crt_stdio_output@@@2@@__crt_stdio_output@@AEAA_NQEAH@Z 0000000180032e50 f i libucrt:output.obj
 0001:00031ee0       ?parse_int_from_format_string@?$output_processor@_WV?$stream_output_adapter@_W@__crt_stdio_output@@V?$positional_parameter_base@_WV?$stream_output_adapter@_W@__crt_stdio_output@@@2@@__crt_stdio_output@@AEAA_NQEAH@Z 0000000180032ee0 f i libucrt:output.obj
 0001:00031f70       ?parse_int_from_format_string@?$output_processor@_WV?$stream_output_adapter@_W@__crt_stdio_output@@V?$standard_base@_WV?$stream_output_adapter@_W@__crt_stdio_output@@@2@@__crt_stdio_output@@AEAA_NQEAH@Z 0000000180032f70 f i libucrt:output.obj
 0001:00032000       ?parse_int_from_format_string@?$output_processor@_WV?$string_output_adapter@_W@__crt_stdio_output@@V?$format_validation_base@_WV?$string_output_adapter@_W@__crt_stdio_output@@@2@@__crt_stdio_output@@AEAA_NQEAH@Z 0000000180033000 f i libucrt:output.obj
 0001:00032090       ?parse_int_from_format_string@?$output_processor@_WV?$string_output_adapter@_W@__crt_stdio_output@@V?$positional_parameter_base@_WV?$string_output_adapter@_W@__crt_stdio_output@@@2@@__crt_stdio_output@@AEAA_NQEAH@Z 0000000180033090 f i libucrt:output.obj
 0001:00032120       ?parse_int_from_format_string@?$output_processor@_WV?$string_output_adapter@_W@__crt_stdio_output@@V?$standard_base@_WV?$string_output_adapter@_W@__crt_stdio_output@@@2@@__crt_stdio_output@@AEAA_NQEAH@Z 0000000180033120 f i libucrt:output.obj
 0001:000321b0       ?process@?$output_processor@DV?$stream_output_adapter@D@__crt_stdio_output@@V?$format_validation_base@DV?$stream_output_adapter@D@__crt_stdio_output@@@2@@__crt_stdio_output@@QEAAHXZ 00000001800331b0 f i libucrt:output.obj
 0001:00032544       ?process@?$output_processor@DV?$stream_output_adapter@D@__crt_stdio_output@@V?$positional_parameter_base@DV?$stream_output_adapter@D@__crt_stdio_output@@@2@@__crt_stdio_output@@QEAAHXZ 0000000180033544 f i libucrt:output.obj
 0001:0003296c       ?process@?$output_processor@DV?$stream_output_adapter@D@__crt_stdio_output@@V?$standard_base@DV?$stream_output_adapter@D@__crt_stdio_output@@@2@@__crt_stdio_output@@QEAAHXZ 000000018003396c f i libucrt:output.obj
 0001:00032cf8       ?process@?$output_processor@DV?$string_output_adapter@D@__crt_stdio_output@@V?$format_validation_base@DV?$string_output_adapter@D@__crt_stdio_output@@@2@@__crt_stdio_output@@QEAAHXZ 0000000180033cf8 f i libucrt:output.obj
 0001:00033088       ?process@?$output_processor@DV?$string_output_adapter@D@__crt_stdio_output@@V?$positional_parameter_base@DV?$string_output_adapter@D@__crt_stdio_output@@@2@@__crt_stdio_output@@QEAAHXZ 0000000180034088 f i libucrt:output.obj
 0001:00033494       ?process@?$output_processor@DV?$string_output_adapter@D@__crt_stdio_output@@V?$standard_base@DV?$string_output_adapter@D@__crt_stdio_output@@@2@@__crt_stdio_output@@QEAAHXZ 0000000180034494 f i libucrt:output.obj
 0001:00033818       ?process@?$output_processor@_WV?$stream_output_adapter@_W@__crt_stdio_output@@V?$format_validation_base@_WV?$stream_output_adapter@_W@__crt_stdio_output@@@2@@__crt_stdio_output@@QEAAHXZ 0000000180034818 f i libucrt:output.obj
 0001:00033afc       ?process@?$output_processor@_WV?$stream_output_adapter@_W@__crt_stdio_output@@V?$positional_parameter_base@_WV?$stream_output_adapter@_W@__crt_stdio_output@@@2@@__crt_stdio_output@@QEAAHXZ 0000000180034afc f i libucrt:output.obj
 0001:00033e78       ?process@?$output_processor@_WV?$stream_output_adapter@_W@__crt_stdio_output@@V?$standard_base@_WV?$stream_output_adapter@_W@__crt_stdio_output@@@2@@__crt_stdio_output@@QEAAHXZ 0000000180034e78 f i libucrt:output.obj
 0001:00034134       ?process@?$output_processor@_WV?$string_output_adapter@_W@__crt_stdio_output@@V?$format_validation_base@_WV?$string_output_adapter@_W@__crt_stdio_output@@@2@@__crt_stdio_output@@QEAAHXZ 0000000180035134 f i libucrt:output.obj
 0001:00034410       ?process@?$output_processor@_WV?$string_output_adapter@_W@__crt_stdio_output@@V?$positional_parameter_base@_WV?$string_output_adapter@_W@__crt_stdio_output@@@2@@__crt_stdio_output@@QEAAHXZ 0000000180035410 f i libucrt:output.obj
 0001:0003478c       ?process@?$output_processor@_WV?$string_output_adapter@_W@__crt_stdio_output@@V?$standard_base@_WV?$string_output_adapter@_W@__crt_stdio_output@@@2@@__crt_stdio_output@@QEAAHXZ 000000018003578c f i libucrt:output.obj
 0001:00034a50       ?public_stream@__crt_stdio_stream@@QEBAPEAU_iobuf@@XZ 0000000180035a50 f i libucrt:output.obj
 0001:00034a54       ?restore_state@?$c_string_character_source@D@__crt_strtox@@QEAA_NQEBD@Z 0000000180035a54 f i libucrt:output.obj
 0001:00034a5c       ?restore_state@?$c_string_character_source@_W@__crt_strtox@@QEAA_NQEB_W@Z 0000000180035a5c f i libucrt:output.obj
 0001:00034a64       ?save_state@?$c_string_character_source@D@__crt_strtox@@QEBAPEBDXZ 0000000180035a64 f i libucrt:output.obj
 0001:00034a68       ?save_state@?$c_string_character_source@_W@__crt_strtox@@QEBAPEB_WXZ 0000000180035a68 f i libucrt:output.obj
 0001:00034a6c       ?set_flag@?$output_processor@DV?$stream_output_adapter@D@__crt_stdio_output@@V?$format_validation_base@DV?$stream_output_adapter@D@__crt_stdio_output@@@2@@__crt_stdio_output@@AEAAXI@Z 0000000180035a6c f i libucrt:output.obj
 0001:00034a70       ?set_flag@?$output_processor@DV?$stream_output_adapter@D@__crt_stdio_output@@V?$positional_parameter_base@DV?$stream_output_adapter@D@__crt_stdio_output@@@2@@__crt_stdio_output@@AEAAXI@Z 0000000180035a70 f i libucrt:output.obj
 0001:00034a74       ?set_flag@?$output_processor@DV?$stream_output_adapter@D@__crt_stdio_output@@V?$standard_base@DV?$stream_output_adapter@D@__crt_stdio_output@@@2@@__crt_stdio_output@@AEAAXI@Z 0000000180035a74 f i libucrt:output.obj
 0001:00034a78       ?set_flag@?$output_processor@DV?$string_output_adapter@D@__crt_stdio_output@@V?$format_validation_base@DV?$string_output_adapter@D@__crt_stdio_output@@@2@@__crt_stdio_output@@AEAAXI@Z 0000000180035a78 f i libucrt:output.obj
 0001:00034a7c       ?set_flag@?$output_processor@DV?$string_output_adapter@D@__crt_stdio_output@@V?$positional_parameter_base@DV?$string_output_adapter@D@__crt_stdio_output@@@2@@__crt_stdio_output@@AEAAXI@Z 0000000180035a7c f i libucrt:output.obj
 0001:00034a80       ?set_flag@?$output_processor@DV?$string_output_adapter@D@__crt_stdio_output@@V?$standard_base@DV?$string_output_adapter@D@__crt_stdio_output@@@2@@__crt_stdio_output@@AEAAXI@Z 0000000180035a80 f i libucrt:output.obj
 0001:00034a84       ?set_flag@?$output_processor@_WV?$stream_output_adapter@_W@__crt_stdio_output@@V?$format_validation_base@_WV?$stream_output_adapter@_W@__crt_stdio_output@@@2@@__crt_stdio_output@@AEAAXI@Z 0000000180035a84 f i libucrt:output.obj
 0001:00034a88       ?set_flag@?$output_processor@_WV?$stream_output_adapter@_W@__crt_stdio_output@@V?$positional_parameter_base@_WV?$stream_output_adapter@_W@__crt_stdio_output@@@2@@__crt_stdio_output@@AEAAXI@Z 0000000180035a88 f i libucrt:output.obj
 0001:00034a8c       ?set_flag@?$output_processor@_WV?$stream_output_adapter@_W@__crt_stdio_output@@V?$standard_base@_WV?$stream_output_adapter@_W@__crt_stdio_output@@@2@@__crt_stdio_output@@AEAAXI@Z 0000000180035a8c f i libucrt:output.obj
 0001:00034a90       ?set_flag@?$output_processor@_WV?$string_output_adapter@_W@__crt_stdio_output@@V?$format_validation_base@_WV?$string_output_adapter@_W@__crt_stdio_output@@@2@@__crt_stdio_output@@AEAAXI@Z 0000000180035a90 f i libucrt:output.obj
 0001:00034a94       ?set_flag@?$output_processor@_WV?$string_output_adapter@_W@__crt_stdio_output@@V?$positional_parameter_base@_WV?$string_output_adapter@_W@__crt_stdio_output@@@2@@__crt_stdio_output@@AEAAXI@Z 0000000180035a94 f i libucrt:output.obj
 0001:00034a98       ?set_flag@?$output_processor@_WV?$string_output_adapter@_W@__crt_stdio_output@@V?$standard_base@_WV?$string_output_adapter@_W@__crt_stdio_output@@@2@@__crt_stdio_output@@AEAAXI@Z 0000000180035a98 f i libucrt:output.obj
 0001:00034a9c       ?should_format@?$positional_parameter_base@DV?$stream_output_adapter@D@__crt_stdio_output@@@__crt_stdio_output@@IEAA_NXZ 0000000180035a9c f i libucrt:output.obj
 0001:00034ab4       ?should_format@?$positional_parameter_base@DV?$string_output_adapter@D@__crt_stdio_output@@@__crt_stdio_output@@IEAA_NXZ 0000000180035ab4 f i libucrt:output.obj
 0001:00034acc       ?should_format@?$positional_parameter_base@_WV?$stream_output_adapter@_W@__crt_stdio_output@@@__crt_stdio_output@@IEAA_NXZ 0000000180035acc f i libucrt:output.obj
 0001:00034ae4       ?should_format@?$positional_parameter_base@_WV?$string_output_adapter@_W@__crt_stdio_output@@@__crt_stdio_output@@IEAA_NXZ 0000000180035ae4 f i libucrt:output.obj
 0001:00034afc       ?should_format@?$standard_base@DV?$stream_output_adapter@D@__crt_stdio_output@@@__crt_stdio_output@@IEAA_NXZ 0000000180035afc f i libucrt:output.obj
 0001:00034b00       ?should_format@?$standard_base@DV?$string_output_adapter@D@__crt_stdio_output@@@__crt_stdio_output@@IEAA_NXZ 0000000180035b00 f i libucrt:output.obj
 0001:00034b04       ?should_format@?$standard_base@_WV?$stream_output_adapter@_W@__crt_stdio_output@@@__crt_stdio_output@@IEAA_NXZ 0000000180035b04 f i libucrt:output.obj
 0001:00034b08       ?should_format@?$standard_base@_WV?$string_output_adapter@_W@__crt_stdio_output@@@__crt_stdio_output@@IEAA_NXZ 0000000180035b08 f i libucrt:output.obj
 0001:00034b0c       ?should_skip_normal_state_processing@?$positional_parameter_base@DV?$stream_output_adapter@D@__crt_stdio_output@@@__crt_stdio_output@@IEAA_NXZ 0000000180035b0c f i libucrt:output.obj
 0001:00034b34       ?should_skip_normal_state_processing@?$positional_parameter_base@DV?$string_output_adapter@D@__crt_stdio_output@@@__crt_stdio_output@@IEAA_NXZ 0000000180035b34 f i libucrt:output.obj
 0001:00034b5c       ?should_skip_normal_state_processing@?$positional_parameter_base@_WV?$stream_output_adapter@_W@__crt_stdio_output@@@__crt_stdio_output@@IEAA_NXZ 0000000180035b5c f i libucrt:output.obj
 0001:00034b84       ?should_skip_normal_state_processing@?$positional_parameter_base@_WV?$string_output_adapter@_W@__crt_stdio_output@@@__crt_stdio_output@@IEAA_NXZ 0000000180035b84 f i libucrt:output.obj
 0001:00034bac       ?should_skip_normal_state_processing@?$standard_base@DV?$stream_output_adapter@D@__crt_stdio_output@@@__crt_stdio_output@@IEAA_NXZ 0000000180035bac f i libucrt:output.obj
 0001:00034bb0       ?should_skip_normal_state_processing@?$standard_base@DV?$string_output_adapter@D@__crt_stdio_output@@@__crt_stdio_output@@IEAA_NXZ 0000000180035bb0 f i libucrt:output.obj
 0001:00034bb4       ?should_skip_normal_state_processing@?$standard_base@_WV?$stream_output_adapter@_W@__crt_stdio_output@@@__crt_stdio_output@@IEAA_NXZ 0000000180035bb4 f i libucrt:output.obj
 0001:00034bb8       ?should_skip_normal_state_processing@?$standard_base@_WV?$string_output_adapter@_W@__crt_stdio_output@@@__crt_stdio_output@@IEAA_NXZ 0000000180035bb8 f i libucrt:output.obj
 0001:00034bbc       ?should_skip_type_state_output@?$positional_parameter_base@DV?$stream_output_adapter@D@__crt_stdio_output@@@__crt_stdio_output@@IEBA_NXZ 0000000180035bbc f i libucrt:output.obj
 0001:00034bd8       ?should_skip_type_state_output@?$positional_parameter_base@DV?$string_output_adapter@D@__crt_stdio_output@@@__crt_stdio_output@@IEBA_NXZ 0000000180035bd8 f i libucrt:output.obj
 0001:00034bf4       ?should_skip_type_state_output@?$positional_parameter_base@_WV?$stream_output_adapter@_W@__crt_stdio_output@@@__crt_stdio_output@@IEBA_NXZ 0000000180035bf4 f i libucrt:output.obj
 0001:00034c10       ?should_skip_type_state_output@?$positional_parameter_base@_WV?$string_output_adapter@_W@__crt_stdio_output@@@__crt_stdio_output@@IEBA_NXZ 0000000180035c10 f i libucrt:output.obj
 0001:00034c2c       ?should_skip_type_state_output@?$standard_base@DV?$stream_output_adapter@D@__crt_stdio_output@@@__crt_stdio_output@@IEBA_NXZ 0000000180035c2c f i libucrt:output.obj
 0001:00034c30       ?should_skip_type_state_output@?$standard_base@DV?$string_output_adapter@D@__crt_stdio_output@@@__crt_stdio_output@@IEBA_NXZ 0000000180035c30 f i libucrt:output.obj
 0001:00034c34       ?should_skip_type_state_output@?$standard_base@_WV?$stream_output_adapter@_W@__crt_stdio_output@@@__crt_stdio_output@@IEBA_NXZ 0000000180035c34 f i libucrt:output.obj
 0001:00034c38       ?should_skip_type_state_output@?$standard_base@_WV?$string_output_adapter@_W@__crt_stdio_output@@@__crt_stdio_output@@IEBA_NXZ 0000000180035c38 f i libucrt:output.obj
 0001:00034c3c       ?state_case_dot@?$output_processor@DV?$stream_output_adapter@D@__crt_stdio_output@@V?$format_validation_base@DV?$stream_output_adapter@D@__crt_stdio_output@@@2@@__crt_stdio_output@@AEAA_NXZ 0000000180035c3c f i libucrt:output.obj
 0001:00034c44       ?state_case_dot@?$output_processor@DV?$stream_output_adapter@D@__crt_stdio_output@@V?$positional_parameter_base@DV?$stream_output_adapter@D@__crt_stdio_output@@@2@@__crt_stdio_output@@AEAA_NXZ 0000000180035c44 f i libucrt:output.obj
 0001:00034c4c       ?state_case_dot@?$output_processor@DV?$stream_output_adapter@D@__crt_stdio_output@@V?$standard_base@DV?$stream_output_adapter@D@__crt_stdio_output@@@2@@__crt_stdio_output@@AEAA_NXZ 0000000180035c4c f i libucrt:output.obj
 0001:00034c54       ?state_case_dot@?$output_processor@DV?$string_output_adapter@D@__crt_stdio_output@@V?$format_validation_base@DV?$string_output_adapter@D@__crt_stdio_output@@@2@@__crt_stdio_output@@AEAA_NXZ 0000000180035c54 f i libucrt:output.obj
 0001:00034c5c       ?state_case_dot@?$output_processor@DV?$string_output_adapter@D@__crt_stdio_output@@V?$positional_parameter_base@DV?$string_output_adapter@D@__crt_stdio_output@@@2@@__crt_stdio_output@@AEAA_NXZ 0000000180035c5c f i libucrt:output.obj
 0001:00034c64       ?state_case_dot@?$output_processor@DV?$string_output_adapter@D@__crt_stdio_output@@V?$standard_base@DV?$string_output_adapter@D@__crt_stdio_output@@@2@@__crt_stdio_output@@AEAA_NXZ 0000000180035c64 f i libucrt:output.obj
 0001:00034c6c       ?state_case_dot@?$output_processor@_WV?$stream_output_adapter@_W@__crt_stdio_output@@V?$format_validation_base@_WV?$stream_output_adapter@_W@__crt_stdio_output@@@2@@__crt_stdio_output@@AEAA_NXZ 0000000180035c6c f i libucrt:output.obj
 0001:00034c74       ?state_case_dot@?$output_processor@_WV?$stream_output_adapter@_W@__crt_stdio_output@@V?$positional_parameter_base@_WV?$stream_output_adapter@_W@__crt_stdio_output@@@2@@__crt_stdio_output@@AEAA_NXZ 0000000180035c74 f i libucrt:output.obj
 0001:00034c7c       ?state_case_dot@?$output_processor@_WV?$stream_output_adapter@_W@__crt_stdio_output@@V?$standard_base@_WV?$stream_output_adapter@_W@__crt_stdio_output@@@2@@__crt_stdio_output@@AEAA_NXZ 0000000180035c7c f i libucrt:output.obj
 0001:00034c84       ?state_case_dot@?$output_processor@_WV?$string_output_adapter@_W@__crt_stdio_output@@V?$format_validation_base@_WV?$string_output_adapter@_W@__crt_stdio_output@@@2@@__crt_stdio_output@@AEAA_NXZ 0000000180035c84 f i libucrt:output.obj
 0001:00034c8c       ?state_case_dot@?$output_processor@_WV?$string_output_adapter@_W@__crt_stdio_output@@V?$positional_parameter_base@_WV?$string_output_adapter@_W@__crt_stdio_output@@@2@@__crt_stdio_output@@AEAA_NXZ 0000000180035c8c f i libucrt:output.obj
 0001:00034c94       ?state_case_dot@?$output_processor@_WV?$string_output_adapter@_W@__crt_stdio_output@@V?$standard_base@_WV?$string_output_adapter@_W@__crt_stdio_output@@@2@@__crt_stdio_output@@AEAA_NXZ 0000000180035c94 f i libucrt:output.obj
 0001:00034c9c       ?state_case_flag@?$output_processor@DV?$stream_output_adapter@D@__crt_stdio_output@@V?$format_validation_base@DV?$stream_output_adapter@D@__crt_stdio_output@@@2@@__crt_stdio_output@@AEAA_NXZ 0000000180035c9c f i libucrt:output.obj
 0001:00034cd4       ?state_case_flag@?$output_processor@DV?$stream_output_adapter@D@__crt_stdio_output@@V?$positional_parameter_base@DV?$stream_output_adapter@D@__crt_stdio_output@@@2@@__crt_stdio_output@@AEAA_NXZ 0000000180035cd4 f i libucrt:output.obj
 0001:00034d0c       ?state_case_flag@?$output_processor@DV?$stream_output_adapter@D@__crt_stdio_output@@V?$standard_base@DV?$stream_output_adapter@D@__crt_stdio_output@@@2@@__crt_stdio_output@@AEAA_NXZ 0000000180035d0c f i libucrt:output.obj
 0001:00034d44       ?state_case_flag@?$output_processor@DV?$string_output_adapter@D@__crt_stdio_output@@V?$format_validation_base@DV?$string_output_adapter@D@__crt_stdio_output@@@2@@__crt_stdio_output@@AEAA_NXZ 0000000180035d44 f i libucrt:output.obj
 0001:00034d7c       ?state_case_flag@?$output_processor@DV?$string_output_adapter@D@__crt_stdio_output@@V?$positional_parameter_base@DV?$string_output_adapter@D@__crt_stdio_output@@@2@@__crt_stdio_output@@AEAA_NXZ 0000000180035d7c f i libucrt:output.obj
 0001:00034db4       ?state_case_flag@?$output_processor@DV?$string_output_adapter@D@__crt_stdio_output@@V?$standard_base@DV?$string_output_adapter@D@__crt_stdio_output@@@2@@__crt_stdio_output@@AEAA_NXZ 0000000180035db4 f i libucrt:output.obj
 0001:00034dec       ?state_case_flag@?$output_processor@_WV?$stream_output_adapter@_W@__crt_stdio_output@@V?$format_validation_base@_WV?$stream_output_adapter@_W@__crt_stdio_output@@@2@@__crt_stdio_output@@AEAA_NXZ 0000000180035dec f i libucrt:output.obj
 0001:00034e30       ?state_case_flag@?$output_processor@_WV?$stream_output_adapter@_W@__crt_stdio_output@@V?$positional_parameter_base@_WV?$stream_output_adapter@_W@__crt_stdio_output@@@2@@__crt_stdio_output@@AEAA_NXZ 0000000180035e30 f i libucrt:output.obj
 0001:00034e74       ?state_case_flag@?$output_processor@_WV?$stream_output_adapter@_W@__crt_stdio_output@@V?$standard_base@_WV?$stream_output_adapter@_W@__crt_stdio_output@@@2@@__crt_stdio_output@@AEAA_NXZ 0000000180035e74 f i libucrt:output.obj
 0001:00034eb8       ?state_case_flag@?$output_processor@_WV?$string_output_adapter@_W@__crt_stdio_output@@V?$format_validation_base@_WV?$string_output_adapter@_W@__crt_stdio_output@@@2@@__crt_stdio_output@@AEAA_NXZ 0000000180035eb8 f i libucrt:output.obj
 0001:00034efc       ?state_case_flag@?$output_processor@_WV?$string_output_adapter@_W@__crt_stdio_output@@V?$positional_parameter_base@_WV?$string_output_adapter@_W@__crt_stdio_output@@@2@@__crt_stdio_output@@AEAA_NXZ 0000000180035efc f i libucrt:output.obj
 0001:00034f40       ?state_case_flag@?$output_processor@_WV?$string_output_adapter@_W@__crt_stdio_output@@V?$standard_base@_WV?$string_output_adapter@_W@__crt_stdio_output@@@2@@__crt_stdio_output@@AEAA_NXZ 0000000180035f40 f i libucrt:output.obj
 0001:00034f84       ?state_case_normal@?$output_processor@DV?$stream_output_adapter@D@__crt_stdio_output@@V?$format_validation_base@DV?$stream_output_adapter@D@__crt_stdio_output@@@2@@__crt_stdio_output@@AEAA_NXZ 0000000180035f84 f i libucrt:output.obj
 0001:000350d8       ?state_case_normal@?$output_processor@DV?$stream_output_adapter@D@__crt_stdio_output@@V?$positional_parameter_base@DV?$stream_output_adapter@D@__crt_stdio_output@@@2@@__crt_stdio_output@@AEAA_NXZ 00000001800360d8 f i libucrt:output.obj
 0001:00035254       ?state_case_normal@?$output_processor@DV?$stream_output_adapter@D@__crt_stdio_output@@V?$standard_base@DV?$stream_output_adapter@D@__crt_stdio_output@@@2@@__crt_stdio_output@@AEAA_NXZ 0000000180036254 f i libucrt:output.obj
 0001:000353a8       ?state_case_normal@?$output_processor@DV?$string_output_adapter@D@__crt_stdio_output@@V?$format_validation_base@DV?$string_output_adapter@D@__crt_stdio_output@@@2@@__crt_stdio_output@@AEAA_NXZ 00000001800363a8 f i libucrt:output.obj
 0001:000354f4       ?state_case_normal@?$output_processor@DV?$string_output_adapter@D@__crt_stdio_output@@V?$positional_parameter_base@DV?$string_output_adapter@D@__crt_stdio_output@@@2@@__crt_stdio_output@@AEAA_NXZ 00000001800364f4 f i libucrt:output.obj
 0001:0003566c       ?state_case_normal@?$output_processor@DV?$string_output_adapter@D@__crt_stdio_output@@V?$standard_base@DV?$string_output_adapter@D@__crt_stdio_output@@@2@@__crt_stdio_output@@AEAA_NXZ 000000018003666c f i libucrt:output.obj
 0001:000357b8       ?state_case_normal@?$output_processor@_WV?$stream_output_adapter@_W@__crt_stdio_output@@V?$format_validation_base@_WV?$stream_output_adapter@_W@__crt_stdio_output@@@2@@__crt_stdio_output@@AEAA_NXZ 00000001800367b8 f i libucrt:output.obj
 0001:00035814       ?state_case_normal@?$output_processor@_WV?$stream_output_adapter@_W@__crt_stdio_output@@V?$positional_parameter_base@_WV?$stream_output_adapter@_W@__crt_stdio_output@@@2@@__crt_stdio_output@@AEAA_NXZ 0000000180036814 f i libucrt:output.obj
 0001:00035894       ?state_case_normal@?$output_processor@_WV?$stream_output_adapter@_W@__crt_stdio_output@@V?$standard_base@_WV?$stream_output_adapter@_W@__crt_stdio_output@@@2@@__crt_stdio_output@@AEAA_NXZ 0000000180036894 f i libucrt:output.obj
 0001:000358f0       ?state_case_normal@?$output_processor@_WV?$string_output_adapter@_W@__crt_stdio_output@@V?$format_validation_base@_WV?$string_output_adapter@_W@__crt_stdio_output@@@2@@__crt_stdio_output@@AEAA_NXZ 00000001800368f0 f i libucrt:output.obj
 0001:00035944       ?state_case_normal@?$output_processor@_WV?$string_output_adapter@_W@__crt_stdio_output@@V?$positional_parameter_base@_WV?$string_output_adapter@_W@__crt_stdio_output@@@2@@__crt_stdio_output@@AEAA_NXZ 0000000180036944 f i libucrt:output.obj
 0001:000359bc       ?state_case_normal@?$output_processor@_WV?$string_output_adapter@_W@__crt_stdio_output@@V?$standard_base@_WV?$string_output_adapter@_W@__crt_stdio_output@@@2@@__crt_stdio_output@@AEAA_NXZ 00000001800369bc f i libucrt:output.obj
 0001:00035a10       ?state_case_normal_common@?$output_processor@DV?$stream_output_adapter@D@__crt_stdio_output@@V?$format_validation_base@DV?$stream_output_adapter@D@__crt_stdio_output@@@2@@__crt_stdio_output@@AEAA_NXZ 0000000180036a10 f i libucrt:output.obj
 0001:00035b38       ?state_case_normal_common@?$output_processor@DV?$stream_output_adapter@D@__crt_stdio_output@@V?$positional_parameter_base@DV?$stream_output_adapter@D@__crt_stdio_output@@@2@@__crt_stdio_output@@AEAA_NXZ 0000000180036b38 f i libucrt:output.obj
 0001:00035c60       ?state_case_normal_common@?$output_processor@DV?$stream_output_adapter@D@__crt_stdio_output@@V?$standard_base@DV?$stream_output_adapter@D@__crt_stdio_output@@@2@@__crt_stdio_output@@AEAA_NXZ 0000000180036c60 f i libucrt:output.obj
 0001:00035d88       ?state_case_normal_common@?$output_processor@DV?$string_output_adapter@D@__crt_stdio_output@@V?$format_validation_base@DV?$string_output_adapter@D@__crt_stdio_output@@@2@@__crt_stdio_output@@AEAA_NXZ 0000000180036d88 f i libucrt:output.obj
 0001:00035eac       ?state_case_normal_common@?$output_processor@DV?$string_output_adapter@D@__crt_stdio_output@@V?$positional_parameter_base@DV?$string_output_adapter@D@__crt_stdio_output@@@2@@__crt_stdio_output@@AEAA_NXZ 0000000180036eac f i libucrt:output.obj
 0001:00035fd0       ?state_case_normal_common@?$output_processor@DV?$string_output_adapter@D@__crt_stdio_output@@V?$standard_base@DV?$string_output_adapter@D@__crt_stdio_output@@@2@@__crt_stdio_output@@AEAA_NXZ 0000000180036fd0 f i libucrt:output.obj
 0001:000360f4       ?state_case_normal_common@?$output_processor@_WV?$stream_output_adapter@_W@__crt_stdio_output@@V?$format_validation_base@_WV?$stream_output_adapter@_W@__crt_stdio_output@@@2@@__crt_stdio_output@@AEAA_NXZ 00000001800370f4 f i libucrt:output.obj
 0001:00036150       ?state_case_normal_common@?$output_processor@_WV?$stream_output_adapter@_W@__crt_stdio_output@@V?$positional_parameter_base@_WV?$stream_output_adapter@_W@__crt_stdio_output@@@2@@__crt_stdio_output@@AEAA_NXZ 0000000180037150 f i libucrt:output.obj
 0001:000361ac       ?state_case_normal_common@?$output_processor@_WV?$stream_output_adapter@_W@__crt_stdio_output@@V?$standard_base@_WV?$stream_output_adapter@_W@__crt_stdio_output@@@2@@__crt_stdio_output@@AEAA_NXZ 00000001800371ac f i libucrt:output.obj
 0001:00036208       ?state_case_normal_common@?$output_processor@_WV?$string_output_adapter@_W@__crt_stdio_output@@V?$format_validation_base@_WV?$string_output_adapter@_W@__crt_stdio_output@@@2@@__crt_stdio_output@@AEAA_NXZ 0000000180037208 f i libucrt:output.obj
 0001:0003625c       ?state_case_normal_common@?$output_processor@_WV?$string_output_adapter@_W@__crt_stdio_output@@V?$positional_parameter_base@_WV?$string_output_adapter@_W@__crt_stdio_output@@@2@@__crt_stdio_output@@AEAA_NXZ 000000018003725c f i libucrt:output.obj
 0001:000362b0       ?state_case_normal_common@?$output_processor@_WV?$string_output_adapter@_W@__crt_stdio_output@@V?$standard_base@_WV?$string_output_adapter@_W@__crt_stdio_output@@@2@@__crt_stdio_output@@AEAA_NXZ 00000001800372b0 f i libucrt:output.obj
 0001:00036304       ?state_case_normal_tchar@?$output_processor@DV?$stream_output_adapter@D@__crt_stdio_output@@V?$format_validation_base@DV?$stream_output_adapter@D@__crt_stdio_output@@@2@@__crt_stdio_output@@AEAA_ND@Z 0000000180037304 f i libucrt:output.obj
 0001:000363e0       ?state_case_normal_tchar@?$output_processor@DV?$stream_output_adapter@D@__crt_stdio_output@@V?$positional_parameter_base@DV?$stream_output_adapter@D@__crt_stdio_output@@@2@@__crt_stdio_output@@AEAA_ND@Z 00000001800373e0 f i libucrt:output.obj
 0001:000364bc       ?state_case_normal_tchar@?$output_processor@DV?$stream_output_adapter@D@__crt_stdio_output@@V?$standard_base@DV?$stream_output_adapter@D@__crt_stdio_output@@@2@@__crt_stdio_output@@AEAA_ND@Z 00000001800374bc f i libucrt:output.obj
 0001:00036598       ?state_case_normal_tchar@?$output_processor@DV?$string_output_adapter@D@__crt_stdio_output@@V?$format_validation_base@DV?$string_output_adapter@D@__crt_stdio_output@@@2@@__crt_stdio_output@@AEAA_ND@Z 0000000180037598 f i libucrt:output.obj
 0001:00036674       ?state_case_normal_tchar@?$output_processor@DV?$string_output_adapter@D@__crt_stdio_output@@V?$positional_parameter_base@DV?$string_output_adapter@D@__crt_stdio_output@@@2@@__crt_stdio_output@@AEAA_ND@Z 0000000180037674 f i libucrt:output.obj
 0001:00036750       ?state_case_normal_tchar@?$output_processor@DV?$string_output_adapter@D@__crt_stdio_output@@V?$standard_base@DV?$string_output_adapter@D@__crt_stdio_output@@@2@@__crt_stdio_output@@AEAA_ND@Z 0000000180037750 f i libucrt:output.obj
 0001:0003682c       ?state_case_normal_tchar@?$output_processor@_WV?$stream_output_adapter@_W@__crt_stdio_output@@V?$format_validation_base@_WV?$stream_output_adapter@_W@__crt_stdio_output@@@2@@__crt_stdio_output@@AEAA_N_W@Z 000000018003782c f i libucrt:output.obj
 0001:00036834       ?state_case_normal_tchar@?$output_processor@_WV?$stream_output_adapter@_W@__crt_stdio_output@@V?$positional_parameter_base@_WV?$stream_output_adapter@_W@__crt_stdio_output@@@2@@__crt_stdio_output@@AEAA_N_W@Z 0000000180037834 f i libucrt:output.obj
 0001:0003683c       ?state_case_normal_tchar@?$output_processor@_WV?$stream_output_adapter@_W@__crt_stdio_output@@V?$standard_base@_WV?$stream_output_adapter@_W@__crt_stdio_output@@@2@@__crt_stdio_output@@AEAA_N_W@Z 000000018003783c f i libucrt:output.obj
 0001:00036844       ?state_case_normal_tchar@?$output_processor@_WV?$string_output_adapter@_W@__crt_stdio_output@@V?$format_validation_base@_WV?$string_output_adapter@_W@__crt_stdio_output@@@2@@__crt_stdio_output@@AEAA_N_W@Z 0000000180037844 f i libucrt:output.obj
 0001:0003684c       ?state_case_normal_tchar@?$output_processor@_WV?$string_output_adapter@_W@__crt_stdio_output@@V?$positional_parameter_base@_WV?$string_output_adapter@_W@__crt_stdio_output@@@2@@__crt_stdio_output@@AEAA_N_W@Z 000000018003784c f i libucrt:output.obj
 0001:00036854       ?state_case_normal_tchar@?$output_processor@_WV?$string_output_adapter@_W@__crt_stdio_output@@V?$standard_base@_WV?$string_output_adapter@_W@__crt_stdio_output@@@2@@__crt_stdio_output@@AEAA_N_W@Z 0000000180037854 f i libucrt:output.obj
 0001:0003685c       ?state_case_percent@?$output_processor@DV?$stream_output_adapter@D@__crt_stdio_output@@V?$format_validation_base@DV?$stream_output_adapter@D@__crt_stdio_output@@@2@@__crt_stdio_output@@AEAA_NXZ 000000018003785c f i libucrt:output.obj
 0001:00036874       ?state_case_percent@?$output_processor@DV?$stream_output_adapter@D@__crt_stdio_output@@V?$positional_parameter_base@DV?$stream_output_adapter@D@__crt_stdio_output@@@2@@__crt_stdio_output@@AEAA_NXZ 0000000180037874 f i libucrt:output.obj
 0001:0003688c       ?state_case_percent@?$output_processor@DV?$stream_output_adapter@D@__crt_stdio_output@@V?$standard_base@DV?$stream_output_adapter@D@__crt_stdio_output@@@2@@__crt_stdio_output@@AEAA_NXZ 000000018003788c f i libucrt:output.obj
 0001:000368a4       ?state_case_percent@?$output_processor@DV?$string_output_adapter@D@__crt_stdio_output@@V?$format_validation_base@DV?$string_output_adapter@D@__crt_stdio_output@@@2@@__crt_stdio_output@@AEAA_NXZ 00000001800378a4 f i libucrt:output.obj
 0001:000368bc       ?state_case_percent@?$output_processor@DV?$string_output_adapter@D@__crt_stdio_output@@V?$positional_parameter_base@DV?$string_output_adapter@D@__crt_stdio_output@@@2@@__crt_stdio_output@@AEAA_NXZ 00000001800378bc f i libucrt:output.obj
 0001:000368d4       ?state_case_percent@?$output_processor@DV?$string_output_adapter@D@__crt_stdio_output@@V?$standard_base@DV?$string_output_adapter@D@__crt_stdio_output@@@2@@__crt_stdio_output@@AEAA_NXZ 00000001800378d4 f i libucrt:output.obj
 0001:000368ec       ?state_case_percent@?$output_processor@_WV?$stream_output_adapter@_W@__crt_stdio_output@@V?$format_validation_base@_WV?$stream_output_adapter@_W@__crt_stdio_output@@@2@@__crt_stdio_output@@AEAA_NXZ 00000001800378ec f i libucrt:output.obj
 0001:00036904       ?state_case_percent@?$output_processor@_WV?$stream_output_adapter@_W@__crt_stdio_output@@V?$positional_parameter_base@_WV?$stream_output_adapter@_W@__crt_stdio_output@@@2@@__crt_stdio_output@@AEAA_NXZ 0000000180037904 f i libucrt:output.obj
 0001:0003691c       ?state_case_percent@?$output_processor@_WV?$stream_output_adapter@_W@__crt_stdio_output@@V?$standard_base@_WV?$stream_output_adapter@_W@__crt_stdio_output@@@2@@__crt_stdio_output@@AEAA_NXZ 000000018003791c f i libucrt:output.obj
 0001:00036934       ?state_case_percent@?$output_processor@_WV?$string_output_adapter@_W@__crt_stdio_output@@V?$format_validation_base@_WV?$string_output_adapter@_W@__crt_stdio_output@@@2@@__crt_stdio_output@@AEAA_NXZ 0000000180037934 f i libucrt:output.obj
 0001:0003694c       ?state_case_percent@?$output_processor@_WV?$string_output_adapter@_W@__crt_stdio_output@@V?$positional_parameter_base@_WV?$string_output_adapter@_W@__crt_stdio_output@@@2@@__crt_stdio_output@@AEAA_NXZ 000000018003794c f i libucrt:output.obj
 0001:00036964       ?state_case_percent@?$output_processor@_WV?$string_output_adapter@_W@__crt_stdio_output@@V?$standard_base@_WV?$string_output_adapter@_W@__crt_stdio_output@@@2@@__crt_stdio_output@@AEAA_NXZ 0000000180037964 f i libucrt:output.obj
 0001:0003697c       ?state_case_precision@?$output_processor@DV?$stream_output_adapter@D@__crt_stdio_output@@V?$format_validation_base@DV?$stream_output_adapter@D@__crt_stdio_output@@@2@@__crt_stdio_output@@AEAA_NXZ 000000018003797c f i libucrt:output.obj
 0001:000369a4       ?state_case_precision@?$output_processor@DV?$stream_output_adapter@D@__crt_stdio_output@@V?$positional_parameter_base@DV?$stream_output_adapter@D@__crt_stdio_output@@@2@@__crt_stdio_output@@AEAA_NXZ 00000001800379a4 f i libucrt:output.obj
 0001:000369f0       ?state_case_precision@?$output_processor@DV?$stream_output_adapter@D@__crt_stdio_output@@V?$standard_base@DV?$stream_output_adapter@D@__crt_stdio_output@@@2@@__crt_stdio_output@@AEAA_NXZ 00000001800379f0 f i libucrt:output.obj
 0001:00036a18       ?state_case_precision@?$output_processor@DV?$string_output_adapter@D@__crt_stdio_output@@V?$format_validation_base@DV?$string_output_adapter@D@__crt_stdio_output@@@2@@__crt_stdio_output@@AEAA_NXZ 0000000180037a18 f i libucrt:output.obj
 0001:00036a40       ?state_case_precision@?$output_processor@DV?$string_output_adapter@D@__crt_stdio_output@@V?$positional_parameter_base@DV?$string_output_adapter@D@__crt_stdio_output@@@2@@__crt_stdio_output@@AEAA_NXZ 0000000180037a40 f i libucrt:output.obj
 0001:00036a8c       ?state_case_precision@?$output_processor@DV?$string_output_adapter@D@__crt_stdio_output@@V?$standard_base@DV?$string_output_adapter@D@__crt_stdio_output@@@2@@__crt_stdio_output@@AEAA_NXZ 0000000180037a8c f i libucrt:output.obj
 0001:00036ab4       ?state_case_precision@?$output_processor@_WV?$stream_output_adapter@_W@__crt_stdio_output@@V?$format_validation_base@_WV?$stream_output_adapter@_W@__crt_stdio_output@@@2@@__crt_stdio_output@@AEAA_NXZ 0000000180037ab4 f i libucrt:output.obj
 0001:00036adc       ?state_case_precision@?$output_processor@_WV?$stream_output_adapter@_W@__crt_stdio_output@@V?$positional_parameter_base@_WV?$stream_output_adapter@_W@__crt_stdio_output@@@2@@__crt_stdio_output@@AEAA_NXZ 0000000180037adc f i libucrt:output.obj
 0001:00036b28       ?state_case_precision@?$output_processor@_WV?$stream_output_adapter@_W@__crt_stdio_output@@V?$standard_base@_WV?$stream_output_adapter@_W@__crt_stdio_output@@@2@@__crt_stdio_output@@AEAA_NXZ 0000000180037b28 f i libucrt:output.obj
 0001:00036b50       ?state_case_precision@?$output_processor@_WV?$string_output_adapter@_W@__crt_stdio_output@@V?$format_validation_base@_WV?$string_output_adapter@_W@__crt_stdio_output@@@2@@__crt_stdio_output@@AEAA_NXZ 0000000180037b50 f i libucrt:output.obj
 0001:00036b78       ?state_case_precision@?$output_processor@_WV?$string_output_adapter@_W@__crt_stdio_output@@V?$positional_parameter_base@_WV?$string_output_adapter@_W@__crt_stdio_output@@@2@@__crt_stdio_output@@AEAA_NXZ 0000000180037b78 f i libucrt:output.obj
 0001:00036bc4       ?state_case_precision@?$output_processor@_WV?$string_output_adapter@_W@__crt_stdio_output@@V?$standard_base@_WV?$string_output_adapter@_W@__crt_stdio_output@@@2@@__crt_stdio_output@@AEAA_NXZ 0000000180037bc4 f i libucrt:output.obj
 0001:00036bec       ?state_case_size@?$output_processor@DV?$stream_output_adapter@D@__crt_stdio_output@@V?$format_validation_base@DV?$stream_output_adapter@D@__crt_stdio_output@@@2@@__crt_stdio_output@@AEAA_NXZ 0000000180037bec f i libucrt:output.obj
 0001:00036d70       ?state_case_size@?$output_processor@DV?$stream_output_adapter@D@__crt_stdio_output@@V?$positional_parameter_base@DV?$stream_output_adapter@D@__crt_stdio_output@@@2@@__crt_stdio_output@@AEAA_NXZ 0000000180037d70 f i libucrt:output.obj
 0001:00036ef4       ?state_case_size@?$output_processor@DV?$stream_output_adapter@D@__crt_stdio_output@@V?$standard_base@DV?$stream_output_adapter@D@__crt_stdio_output@@@2@@__crt_stdio_output@@AEAA_NXZ 0000000180037ef4 f i libucrt:output.obj
 0001:00037078       ?state_case_size@?$output_processor@DV?$string_output_adapter@D@__crt_stdio_output@@V?$format_validation_base@DV?$string_output_adapter@D@__crt_stdio_output@@@2@@__crt_stdio_output@@AEAA_NXZ 0000000180038078 f i libucrt:output.obj
 0001:000371fc       ?state_case_size@?$output_processor@DV?$string_output_adapter@D@__crt_stdio_output@@V?$positional_parameter_base@DV?$string_output_adapter@D@__crt_stdio_output@@@2@@__crt_stdio_output@@AEAA_NXZ 00000001800381fc f i libucrt:output.obj
 0001:00037380       ?state_case_size@?$output_processor@DV?$string_output_adapter@D@__crt_stdio_output@@V?$standard_base@DV?$string_output_adapter@D@__crt_stdio_output@@@2@@__crt_stdio_output@@AEAA_NXZ 0000000180038380 f i libucrt:output.obj
 0001:00037504       ?state_case_size@?$output_processor@_WV?$stream_output_adapter@_W@__crt_stdio_output@@V?$format_validation_base@_WV?$stream_output_adapter@_W@__crt_stdio_output@@@2@@__crt_stdio_output@@AEAA_NXZ 0000000180038504 f i libucrt:output.obj
 0001:000376b0       ?state_case_size@?$output_processor@_WV?$stream_output_adapter@_W@__crt_stdio_output@@V?$positional_parameter_base@_WV?$stream_output_adapter@_W@__crt_stdio_output@@@2@@__crt_stdio_output@@AEAA_NXZ 00000001800386b0 f i libucrt:output.obj
 0001:0003785c       ?state_case_size@?$output_processor@_WV?$stream_output_adapter@_W@__crt_stdio_output@@V?$standard_base@_WV?$stream_output_adapter@_W@__crt_stdio_output@@@2@@__crt_stdio_output@@AEAA_NXZ 000000018003885c f i libucrt:output.obj
 0001:00037a08       ?state_case_size@?$output_processor@_WV?$string_output_adapter@_W@__crt_stdio_output@@V?$format_validation_base@_WV?$string_output_adapter@_W@__crt_stdio_output@@@2@@__crt_stdio_output@@AEAA_NXZ 0000000180038a08 f i libucrt:output.obj
 0001:00037bb4       ?state_case_size@?$output_processor@_WV?$string_output_adapter@_W@__crt_stdio_output@@V?$positional_parameter_base@_WV?$string_output_adapter@_W@__crt_stdio_output@@@2@@__crt_stdio_output@@AEAA_NXZ 0000000180038bb4 f i libucrt:output.obj
 0001:00037d60       ?state_case_size@?$output_processor@_WV?$string_output_adapter@_W@__crt_stdio_output@@V?$standard_base@_WV?$string_output_adapter@_W@__crt_stdio_output@@@2@@__crt_stdio_output@@AEAA_NXZ 0000000180038d60 f i libucrt:output.obj
 0001:00037f0c       ?state_case_type@?$output_processor@DV?$stream_output_adapter@D@__crt_stdio_output@@V?$format_validation_base@DV?$stream_output_adapter@D@__crt_stdio_output@@@2@@__crt_stdio_output@@AEAA_NXZ 0000000180038f0c f i libucrt:output.obj
 0001:00038340       ?state_case_type@?$output_processor@DV?$stream_output_adapter@D@__crt_stdio_output@@V?$positional_parameter_base@DV?$stream_output_adapter@D@__crt_stdio_output@@@2@@__crt_stdio_output@@AEAA_NXZ 0000000180039340 f i libucrt:output.obj
 0001:0003878c       ?state_case_type@?$output_processor@DV?$stream_output_adapter@D@__crt_stdio_output@@V?$standard_base@DV?$stream_output_adapter@D@__crt_stdio_output@@@2@@__crt_stdio_output@@AEAA_NXZ 000000018003978c f i libucrt:output.obj
 0001:00038bc0       ?state_case_type@?$output_processor@DV?$string_output_adapter@D@__crt_stdio_output@@V?$format_validation_base@DV?$string_output_adapter@D@__crt_stdio_output@@@2@@__crt_stdio_output@@AEAA_NXZ 0000000180039bc0 f i libucrt:output.obj
 0001:00038f8c       ?state_case_type@?$output_processor@DV?$string_output_adapter@D@__crt_stdio_output@@V?$positional_parameter_base@DV?$string_output_adapter@D@__crt_stdio_output@@@2@@__crt_stdio_output@@AEAA_NXZ 0000000180039f8c f i libucrt:output.obj
 0001:00039370       ?state_case_type@?$output_processor@DV?$string_output_adapter@D@__crt_stdio_output@@V?$standard_base@DV?$string_output_adapter@D@__crt_stdio_output@@@2@@__crt_stdio_output@@AEAA_NXZ 000000018003a370 f i libucrt:output.obj
 0001:0003973c       ?state_case_type@?$output_processor@_WV?$stream_output_adapter@_W@__crt_stdio_output@@V?$format_validation_base@_WV?$stream_output_adapter@_W@__crt_stdio_output@@@2@@__crt_stdio_output@@AEAA_NXZ 000000018003a73c f i libucrt:output.obj
 0001:00039c0c       ?state_case_type@?$output_processor@_WV?$stream_output_adapter@_W@__crt_stdio_output@@V?$positional_parameter_base@_WV?$stream_output_adapter@_W@__crt_stdio_output@@@2@@__crt_stdio_output@@AEAA_NXZ 000000018003ac0c f i libucrt:output.obj
 0001:0003a0f0       ?state_case_type@?$output_processor@_WV?$stream_output_adapter@_W@__crt_stdio_output@@V?$standard_base@_WV?$stream_output_adapter@_W@__crt_stdio_output@@@2@@__crt_stdio_output@@AEAA_NXZ 000000018003b0f0 f i libucrt:output.obj
 0001:0003a5c0       ?state_case_type@?$output_processor@_WV?$string_output_adapter@_W@__crt_stdio_output@@V?$format_validation_base@_WV?$string_output_adapter@_W@__crt_stdio_output@@@2@@__crt_stdio_output@@AEAA_NXZ 000000018003b5c0 f i libucrt:output.obj
 0001:0003aa1c       ?state_case_type@?$output_processor@_WV?$string_output_adapter@_W@__crt_stdio_output@@V?$positional_parameter_base@_WV?$string_output_adapter@_W@__crt_stdio_output@@@2@@__crt_stdio_output@@AEAA_NXZ 000000018003ba1c f i libucrt:output.obj
 0001:0003ae90       ?state_case_type@?$output_processor@_WV?$string_output_adapter@_W@__crt_stdio_output@@V?$standard_base@_WV?$string_output_adapter@_W@__crt_stdio_output@@@2@@__crt_stdio_output@@AEAA_NXZ 000000018003be90 f i libucrt:output.obj
 0001:0003b2ec       ?state_case_width@?$output_processor@DV?$stream_output_adapter@D@__crt_stdio_output@@V?$format_validation_base@DV?$stream_output_adapter@D@__crt_stdio_output@@@2@@__crt_stdio_output@@AEAA_NXZ 000000018003c2ec f i libucrt:output.obj
 0001:0003b320       ?state_case_width@?$output_processor@DV?$stream_output_adapter@D@__crt_stdio_output@@V?$positional_parameter_base@DV?$stream_output_adapter@D@__crt_stdio_output@@@2@@__crt_stdio_output@@AEAA_NXZ 000000018003c320 f i libucrt:output.obj
 0001:0003b370       ?state_case_width@?$output_processor@DV?$stream_output_adapter@D@__crt_stdio_output@@V?$standard_base@DV?$stream_output_adapter@D@__crt_stdio_output@@@2@@__crt_stdio_output@@AEAA_NXZ 000000018003c370 f i libucrt:output.obj
 0001:0003b3a4       ?state_case_width@?$output_processor@DV?$string_output_adapter@D@__crt_stdio_output@@V?$format_validation_base@DV?$string_output_adapter@D@__crt_stdio_output@@@2@@__crt_stdio_output@@AEAA_NXZ 000000018003c3a4 f i libucrt:output.obj
 0001:0003b3d8       ?state_case_width@?$output_processor@DV?$string_output_adapter@D@__crt_stdio_output@@V?$positional_parameter_base@DV?$string_output_adapter@D@__crt_stdio_output@@@2@@__crt_stdio_output@@AEAA_NXZ 000000018003c3d8 f i libucrt:output.obj
 0001:0003b428       ?state_case_width@?$output_processor@DV?$string_output_adapter@D@__crt_stdio_output@@V?$standard_base@DV?$string_output_adapter@D@__crt_stdio_output@@@2@@__crt_stdio_output@@AEAA_NXZ 000000018003c428 f i libucrt:output.obj
 0001:0003b45c       ?state_case_width@?$output_processor@_WV?$stream_output_adapter@_W@__crt_stdio_output@@V?$format_validation_base@_WV?$stream_output_adapter@_W@__crt_stdio_output@@@2@@__crt_stdio_output@@AEAA_NXZ 000000018003c45c f i libucrt:output.obj
 0001:0003b490       ?state_case_width@?$output_processor@_WV?$stream_output_adapter@_W@__crt_stdio_output@@V?$positional_parameter_base@_WV?$stream_output_adapter@_W@__crt_stdio_output@@@2@@__crt_stdio_output@@AEAA_NXZ 000000018003c490 f i libucrt:output.obj
 0001:0003b4e4       ?state_case_width@?$output_processor@_WV?$stream_output_adapter@_W@__crt_stdio_output@@V?$standard_base@_WV?$stream_output_adapter@_W@__crt_stdio_output@@@2@@__crt_stdio_output@@AEAA_NXZ 000000018003c4e4 f i libucrt:output.obj
 0001:0003b518       ?state_case_width@?$output_processor@_WV?$string_output_adapter@_W@__crt_stdio_output@@V?$format_validation_base@_WV?$string_output_adapter@_W@__crt_stdio_output@@@2@@__crt_stdio_output@@AEAA_NXZ 000000018003c518 f i libucrt:output.obj
 0001:0003b54c       ?state_case_width@?$output_processor@_WV?$string_output_adapter@_W@__crt_stdio_output@@V?$positional_parameter_base@_WV?$string_output_adapter@_W@__crt_stdio_output@@@2@@__crt_stdio_output@@AEAA_NXZ 000000018003c54c f i libucrt:output.obj
 0001:0003b5a0       ?state_case_width@?$output_processor@_WV?$string_output_adapter@_W@__crt_stdio_output@@V?$standard_base@_WV?$string_output_adapter@_W@__crt_stdio_output@@@2@@__crt_stdio_output@@AEAA_NXZ 000000018003c5a0 f i libucrt:output.obj
 0001:0003b5d4       ?state_count@?$format_validation_base@DV?$stream_output_adapter@D@__crt_stdio_output@@@__crt_stdio_output@@KAIXZ 000000018003c5d4 f i libucrt:output.obj
 0001:0003b5dc       ?state_count@?$format_validation_base@DV?$string_output_adapter@D@__crt_stdio_output@@@__crt_stdio_output@@KAIXZ 000000018003c5dc f i libucrt:output.obj
 0001:0003b5e4       ?state_count@?$format_validation_base@_WV?$stream_output_adapter@_W@__crt_stdio_output@@@__crt_stdio_output@@KAIXZ 000000018003c5e4 f i libucrt:output.obj
 0001:0003b5ec       ?state_count@?$format_validation_base@_WV?$string_output_adapter@_W@__crt_stdio_output@@@__crt_stdio_output@@KAIXZ 000000018003c5ec f i libucrt:output.obj
 0001:0003b5f4       ?state_count@?$standard_base@DV?$stream_output_adapter@D@__crt_stdio_output@@@__crt_stdio_output@@KAIXZ 000000018003c5f4 f i libucrt:output.obj
 0001:0003b5fc       ?state_count@?$standard_base@DV?$string_output_adapter@D@__crt_stdio_output@@@__crt_stdio_output@@KAIXZ 000000018003c5fc f i libucrt:output.obj
 0001:0003b604       ?state_count@?$standard_base@_WV?$stream_output_adapter@_W@__crt_stdio_output@@@__crt_stdio_output@@KAIXZ 000000018003c604 f i libucrt:output.obj
 0001:0003b60c       ?state_count@?$standard_base@_WV?$string_output_adapter@_W@__crt_stdio_output@@@__crt_stdio_output@@KAIXZ 000000018003c60c f i libucrt:output.obj
 0001:0003b614       ?state_transition_table@?$format_validation_base@DV?$stream_output_adapter@D@__crt_stdio_output@@@__crt_stdio_output@@KAAEBV?$spectre_mitigated_lookup_table@Ustate_transition_pair@__crt_stdio_output@@$0IA@@2@XZ 000000018003c614 f i libucrt:output.obj
 0001:0003b61c       ?state_transition_table@?$format_validation_base@DV?$string_output_adapter@D@__crt_stdio_output@@@__crt_stdio_output@@KAAEBV?$spectre_mitigated_lookup_table@Ustate_transition_pair@__crt_stdio_output@@$0IA@@2@XZ 000000018003c61c f i libucrt:output.obj
 0001:0003b624       ?state_transition_table@?$format_validation_base@_WV?$stream_output_adapter@_W@__crt_stdio_output@@@__crt_stdio_output@@KAAEBV?$spectre_mitigated_lookup_table@Ustate_transition_pair@__crt_stdio_output@@$0IA@@2@XZ 000000018003c624 f i libucrt:output.obj
 0001:0003b62c       ?state_transition_table@?$format_validation_base@_WV?$string_output_adapter@_W@__crt_stdio_output@@@__crt_stdio_output@@KAAEBV?$spectre_mitigated_lookup_table@Ustate_transition_pair@__crt_stdio_output@@$0IA@@2@XZ 000000018003c62c f i libucrt:output.obj
 0001:0003b634       ?state_transition_table@?$standard_base@DV?$stream_output_adapter@D@__crt_stdio_output@@@__crt_stdio_output@@KAAEBV?$spectre_mitigated_lookup_table@Ustate_transition_pair@__crt_stdio_output@@$0IA@@2@XZ 000000018003c634 f i libucrt:output.obj
 0001:0003b63c       ?state_transition_table@?$standard_base@DV?$string_output_adapter@D@__crt_stdio_output@@@__crt_stdio_output@@KAAEBV?$spectre_mitigated_lookup_table@Ustate_transition_pair@__crt_stdio_output@@$0IA@@2@XZ 000000018003c63c f i libucrt:output.obj
 0001:0003b644       ?state_transition_table@?$standard_base@_WV?$stream_output_adapter@_W@__crt_stdio_output@@@__crt_stdio_output@@KAAEBV?$spectre_mitigated_lookup_table@Ustate_transition_pair@__crt_stdio_output@@$0IA@@2@XZ 000000018003c644 f i libucrt:output.obj
 0001:0003b64c       ?state_transition_table@?$standard_base@_WV?$string_output_adapter@_W@__crt_stdio_output@@@__crt_stdio_output@@KAAEBV?$spectre_mitigated_lookup_table@Ustate_transition_pair@__crt_stdio_output@@$0IA@@2@XZ 000000018003c64c f i libucrt:output.obj
 0001:0003b654       ?tchar_string@?$common_data@D@__crt_stdio_output@@IEAAAEAPEADD@Z 000000018003c654 f i libucrt:output.obj
 0001:0003b65c       ?tchar_string@?$common_data@D@__crt_stdio_output@@IEAAAEAPEADXZ 000000018003c65c f i libucrt:output.obj
 0001:0003b664       ?tchar_string@?$common_data@_W@__crt_stdio_output@@IEAAAEAPEA_WXZ 000000018003c664 f i libucrt:output.obj
 0001:0003b66c       ?tchar_string@?$common_data@_W@__crt_stdio_output@@IEAAAEAPEA_W_W@Z 000000018003c66c f i libucrt:output.obj
 0001:0003b674       ?to_integer_size@__crt_stdio_output@@YA_KW4length_modifier@1@@Z 000000018003c674 f i libucrt:output.obj
 0001:0003b6bc       ?type_case_X@?$output_processor@DV?$stream_output_adapter@D@__crt_stdio_output@@V?$format_validation_base@DV?$stream_output_adapter@D@__crt_stdio_output@@@2@@__crt_stdio_output@@AEAA_NXZ 000000018003c6bc f i libucrt:output.obj
 0001:0003b6c4       ?type_case_X@?$output_processor@DV?$stream_output_adapter@D@__crt_stdio_output@@V?$positional_parameter_base@DV?$stream_output_adapter@D@__crt_stdio_output@@@2@@__crt_stdio_output@@AEAA_NXZ 000000018003c6c4 f i libucrt:output.obj
 0001:0003b6cc       ?type_case_X@?$output_processor@DV?$stream_output_adapter@D@__crt_stdio_output@@V?$standard_base@DV?$stream_output_adapter@D@__crt_stdio_output@@@2@@__crt_stdio_output@@AEAA_NXZ 000000018003c6cc f i libucrt:output.obj
 0001:0003b6d4       ?type_case_X@?$output_processor@DV?$string_output_adapter@D@__crt_stdio_output@@V?$format_validation_base@DV?$string_output_adapter@D@__crt_stdio_output@@@2@@__crt_stdio_output@@AEAA_NXZ 000000018003c6d4 f i libucrt:output.obj
 0001:0003b6dc       ?type_case_X@?$output_processor@DV?$string_output_adapter@D@__crt_stdio_output@@V?$positional_parameter_base@DV?$string_output_adapter@D@__crt_stdio_output@@@2@@__crt_stdio_output@@AEAA_NXZ 000000018003c6dc f i libucrt:output.obj
 0001:0003b6e4       ?type_case_X@?$output_processor@DV?$string_output_adapter@D@__crt_stdio_output@@V?$standard_base@DV?$string_output_adapter@D@__crt_stdio_output@@@2@@__crt_stdio_output@@AEAA_NXZ 000000018003c6e4 f i libucrt:output.obj
 0001:0003b6ec       ?type_case_X@?$output_processor@_WV?$stream_output_adapter@_W@__crt_stdio_output@@V?$format_validation_base@_WV?$stream_output_adapter@_W@__crt_stdio_output@@@2@@__crt_stdio_output@@AEAA_NXZ 000000018003c6ec f i libucrt:output.obj
 0001:0003b6f4       ?type_case_X@?$output_processor@_WV?$stream_output_adapter@_W@__crt_stdio_output@@V?$positional_parameter_base@_WV?$stream_output_adapter@_W@__crt_stdio_output@@@2@@__crt_stdio_output@@AEAA_NXZ 000000018003c6f4 f i libucrt:output.obj
 0001:0003b6fc       ?type_case_X@?$output_processor@_WV?$stream_output_adapter@_W@__crt_stdio_output@@V?$standard_base@_WV?$stream_output_adapter@_W@__crt_stdio_output@@@2@@__crt_stdio_output@@AEAA_NXZ 000000018003c6fc f i libucrt:output.obj
 0001:0003b704       ?type_case_X@?$output_processor@_WV?$string_output_adapter@_W@__crt_stdio_output@@V?$format_validation_base@_WV?$string_output_adapter@_W@__crt_stdio_output@@@2@@__crt_stdio_output@@AEAA_NXZ 000000018003c704 f i libucrt:output.obj
 0001:0003b70c       ?type_case_X@?$output_processor@_WV?$string_output_adapter@_W@__crt_stdio_output@@V?$positional_parameter_base@_WV?$string_output_adapter@_W@__crt_stdio_output@@@2@@__crt_stdio_output@@AEAA_NXZ 000000018003c70c f i libucrt:output.obj
 0001:0003b714       ?type_case_X@?$output_processor@_WV?$string_output_adapter@_W@__crt_stdio_output@@V?$standard_base@_WV?$string_output_adapter@_W@__crt_stdio_output@@@2@@__crt_stdio_output@@AEAA_NXZ 000000018003c714 f i libucrt:output.obj
 0001:0003b71c       ?type_case_Z@?$output_processor@DV?$stream_output_adapter@D@__crt_stdio_output@@V?$format_validation_base@DV?$stream_output_adapter@D@__crt_stdio_output@@@2@@__crt_stdio_output@@AEAA_NXZ 000000018003c71c f i libucrt:output.obj
 0001:0003b794       ?type_case_Z@?$output_processor@DV?$stream_output_adapter@D@__crt_stdio_output@@V?$positional_parameter_base@DV?$stream_output_adapter@D@__crt_stdio_output@@@2@@__crt_stdio_output@@AEAA_NXZ 000000018003c794 f i libucrt:output.obj
 0001:0003b83c       ?type_case_Z@?$output_processor@DV?$stream_output_adapter@D@__crt_stdio_output@@V?$standard_base@DV?$stream_output_adapter@D@__crt_stdio_output@@@2@@__crt_stdio_output@@AEAA_NXZ 000000018003c83c f i libucrt:output.obj
 0001:0003b8b4       ?type_case_Z@?$output_processor@DV?$string_output_adapter@D@__crt_stdio_output@@V?$format_validation_base@DV?$string_output_adapter@D@__crt_stdio_output@@@2@@__crt_stdio_output@@AEAA_NXZ 000000018003c8b4 f i libucrt:output.obj
 0001:0003b92c       ?type_case_Z@?$output_processor@DV?$string_output_adapter@D@__crt_stdio_output@@V?$positional_parameter_base@DV?$string_output_adapter@D@__crt_stdio_output@@@2@@__crt_stdio_output@@AEAA_NXZ 000000018003c92c f i libucrt:output.obj
 0001:0003b9d4       ?type_case_Z@?$output_processor@DV?$string_output_adapter@D@__crt_stdio_output@@V?$standard_base@DV?$string_output_adapter@D@__crt_stdio_output@@@2@@__crt_stdio_output@@AEAA_NXZ 000000018003c9d4 f i libucrt:output.obj
 0001:0003ba4c       ?type_case_Z@?$output_processor@_WV?$stream_output_adapter@_W@__crt_stdio_output@@V?$format_validation_base@_WV?$stream_output_adapter@_W@__crt_stdio_output@@@2@@__crt_stdio_output@@AEAA_NXZ 000000018003ca4c f i libucrt:output.obj
 0001:0003bac8       ?type_case_Z@?$output_processor@_WV?$stream_output_adapter@_W@__crt_stdio_output@@V?$positional_parameter_base@_WV?$stream_output_adapter@_W@__crt_stdio_output@@@2@@__crt_stdio_output@@AEAA_NXZ 000000018003cac8 f i libucrt:output.obj
 0001:0003bb60       ?type_case_Z@?$output_processor@_WV?$stream_output_adapter@_W@__crt_stdio_output@@V?$standard_base@_WV?$stream_output_adapter@_W@__crt_stdio_output@@@2@@__crt_stdio_output@@AEAA_NXZ 000000018003cb60 f i libucrt:output.obj
 0001:0003bbdc       ?type_case_Z@?$output_processor@_WV?$string_output_adapter@_W@__crt_stdio_output@@V?$format_validation_base@_WV?$string_output_adapter@_W@__crt_stdio_output@@@2@@__crt_stdio_output@@AEAA_NXZ 000000018003cbdc f i libucrt:output.obj
 0001:0003bc58       ?type_case_Z@?$output_processor@_WV?$string_output_adapter@_W@__crt_stdio_output@@V?$positional_parameter_base@_WV?$string_output_adapter@_W@__crt_stdio_output@@@2@@__crt_stdio_output@@AEAA_NXZ 000000018003cc58 f i libucrt:output.obj
 0001:0003bcf0       ?type_case_Z@?$output_processor@_WV?$string_output_adapter@_W@__crt_stdio_output@@V?$standard_base@_WV?$string_output_adapter@_W@__crt_stdio_output@@@2@@__crt_stdio_output@@AEAA_NXZ 000000018003ccf0 f i libucrt:output.obj
 0001:0003bd6c       ?type_case_a@?$output_processor@DV?$stream_output_adapter@D@__crt_stdio_output@@V?$format_validation_base@DV?$stream_output_adapter@D@__crt_stdio_output@@@2@@__crt_stdio_output@@AEAA_NXZ 000000018003cd6c f i libucrt:output.obj
 0001:0003bfb8       ?type_case_a@?$output_processor@DV?$stream_output_adapter@D@__crt_stdio_output@@V?$positional_parameter_base@DV?$stream_output_adapter@D@__crt_stdio_output@@@2@@__crt_stdio_output@@AEAA_NXZ 000000018003cfb8 f i libucrt:output.obj
 0001:0003c234       ?type_case_a@?$output_processor@DV?$stream_output_adapter@D@__crt_stdio_output@@V?$standard_base@DV?$stream_output_adapter@D@__crt_stdio_output@@@2@@__crt_stdio_output@@AEAA_NXZ 000000018003d234 f i libucrt:output.obj
 0001:0003c480       ?type_case_a@?$output_processor@DV?$string_output_adapter@D@__crt_stdio_output@@V?$format_validation_base@DV?$string_output_adapter@D@__crt_stdio_output@@@2@@__crt_stdio_output@@AEAA_NXZ 000000018003d480 f i libucrt:output.obj
 0001:0003c6cc       ?type_case_a@?$output_processor@DV?$string_output_adapter@D@__crt_stdio_output@@V?$positional_parameter_base@DV?$string_output_adapter@D@__crt_stdio_output@@@2@@__crt_stdio_output@@AEAA_NXZ 000000018003d6cc f i libucrt:output.obj
 0001:0003c948       ?type_case_a@?$output_processor@DV?$string_output_adapter@D@__crt_stdio_output@@V?$standard_base@DV?$string_output_adapter@D@__crt_stdio_output@@@2@@__crt_stdio_output@@AEAA_NXZ 000000018003d948 f i libucrt:output.obj
 0001:0003cb94       ?type_case_a@?$output_processor@_WV?$stream_output_adapter@_W@__crt_stdio_output@@V?$format_validation_base@_WV?$stream_output_adapter@_W@__crt_stdio_output@@@2@@__crt_stdio_output@@AEAA_NXZ 000000018003db94 f i libucrt:output.obj
 0001:0003cdf4       ?type_case_a@?$output_processor@_WV?$stream_output_adapter@_W@__crt_stdio_output@@V?$positional_parameter_base@_WV?$stream_output_adapter@_W@__crt_stdio_output@@@2@@__crt_stdio_output@@AEAA_NXZ 000000018003ddf4 f i libucrt:output.obj
 0001:0003d088       ?type_case_a@?$output_processor@_WV?$stream_output_adapter@_W@__crt_stdio_output@@V?$standard_base@_WV?$stream_output_adapter@_W@__crt_stdio_output@@@2@@__crt_stdio_output@@AEAA_NXZ 000000018003e088 f i libucrt:output.obj
 0001:0003d2e8       ?type_case_a@?$output_processor@_WV?$string_output_adapter@_W@__crt_stdio_output@@V?$format_validation_base@_WV?$string_output_adapter@_W@__crt_stdio_output@@@2@@__crt_stdio_output@@AEAA_NXZ 000000018003e2e8 f i libucrt:output.obj
 0001:0003d548       ?type_case_a@?$output_processor@_WV?$string_output_adapter@_W@__crt_stdio_output@@V?$positional_parameter_base@_WV?$string_output_adapter@_W@__crt_stdio_output@@@2@@__crt_stdio_output@@AEAA_NXZ 000000018003e548 f i libucrt:output.obj
 0001:0003d7dc       ?type_case_a@?$output_processor@_WV?$string_output_adapter@_W@__crt_stdio_output@@V?$standard_base@_WV?$string_output_adapter@_W@__crt_stdio_output@@@2@@__crt_stdio_output@@AEAA_NXZ 000000018003e7dc f i libucrt:output.obj
 0001:0003da3c       ?type_case_c@?$output_processor@DV?$stream_output_adapter@D@__crt_stdio_output@@V?$format_validation_base@DV?$stream_output_adapter@D@__crt_stdio_output@@@2@@__crt_stdio_output@@AEAA_NXZ 000000018003ea3c f i libucrt:output.obj
 0001:0003da44       ?type_case_c@?$output_processor@DV?$stream_output_adapter@D@__crt_stdio_output@@V?$positional_parameter_base@DV?$stream_output_adapter@D@__crt_stdio_output@@@2@@__crt_stdio_output@@AEAA_NXZ 000000018003ea44 f i libucrt:output.obj
 0001:0003da4c       ?type_case_c@?$output_processor@DV?$stream_output_adapter@D@__crt_stdio_output@@V?$standard_base@DV?$stream_output_adapter@D@__crt_stdio_output@@@2@@__crt_stdio_output@@AEAA_NXZ 000000018003ea4c f i libucrt:output.obj
 0001:0003da54       ?type_case_c@?$output_processor@DV?$string_output_adapter@D@__crt_stdio_output@@V?$format_validation_base@DV?$string_output_adapter@D@__crt_stdio_output@@@2@@__crt_stdio_output@@AEAA_NXZ 000000018003ea54 f i libucrt:output.obj
 0001:0003da5c       ?type_case_c@?$output_processor@DV?$string_output_adapter@D@__crt_stdio_output@@V?$positional_parameter_base@DV?$string_output_adapter@D@__crt_stdio_output@@@2@@__crt_stdio_output@@AEAA_NXZ 000000018003ea5c f i libucrt:output.obj
 0001:0003da64       ?type_case_c@?$output_processor@DV?$string_output_adapter@D@__crt_stdio_output@@V?$standard_base@DV?$string_output_adapter@D@__crt_stdio_output@@@2@@__crt_stdio_output@@AEAA_NXZ 000000018003ea64 f i libucrt:output.obj
 0001:0003da6c       ?type_case_c@?$output_processor@_WV?$stream_output_adapter@_W@__crt_stdio_output@@V?$format_validation_base@_WV?$stream_output_adapter@_W@__crt_stdio_output@@@2@@__crt_stdio_output@@AEAA_NXZ 000000018003ea6c f i libucrt:output.obj
 0001:0003da74       ?type_case_c@?$output_processor@_WV?$stream_output_adapter@_W@__crt_stdio_output@@V?$positional_parameter_base@_WV?$stream_output_adapter@_W@__crt_stdio_output@@@2@@__crt_stdio_output@@AEAA_NXZ 000000018003ea74 f i libucrt:output.obj
 0001:0003da7c       ?type_case_c@?$output_processor@_WV?$stream_output_adapter@_W@__crt_stdio_output@@V?$standard_base@_WV?$stream_output_adapter@_W@__crt_stdio_output@@@2@@__crt_stdio_output@@AEAA_NXZ 000000018003ea7c f i libucrt:output.obj
 0001:0003da84       ?type_case_c@?$output_processor@_WV?$string_output_adapter@_W@__crt_stdio_output@@V?$format_validation_base@_WV?$string_output_adapter@_W@__crt_stdio_output@@@2@@__crt_stdio_output@@AEAA_NXZ 000000018003ea84 f i libucrt:output.obj
 0001:0003da8c       ?type_case_c@?$output_processor@_WV?$string_output_adapter@_W@__crt_stdio_output@@V?$positional_parameter_base@_WV?$string_output_adapter@_W@__crt_stdio_output@@@2@@__crt_stdio_output@@AEAA_NXZ 000000018003ea8c f i libucrt:output.obj
 0001:0003da94       ?type_case_c@?$output_processor@_WV?$string_output_adapter@_W@__crt_stdio_output@@V?$standard_base@_WV?$string_output_adapter@_W@__crt_stdio_output@@@2@@__crt_stdio_output@@AEAA_NXZ 000000018003ea94 f i libucrt:output.obj
 0001:0003da9c       ?type_case_c_tchar@?$output_processor@DV?$stream_output_adapter@D@__crt_stdio_output@@V?$format_validation_base@DV?$stream_output_adapter@D@__crt_stdio_output@@@2@@__crt_stdio_output@@AEAA_ND@Z 000000018003ea9c f i libucrt:output.obj
 0001:0003db60       ?type_case_c_tchar@?$output_processor@DV?$stream_output_adapter@D@__crt_stdio_output@@V?$positional_parameter_base@DV?$stream_output_adapter@D@__crt_stdio_output@@@2@@__crt_stdio_output@@AEAA_ND@Z 000000018003eb60 f i libucrt:output.obj
 0001:0003dc6c       ?type_case_c_tchar@?$output_processor@DV?$stream_output_adapter@D@__crt_stdio_output@@V?$standard_base@DV?$stream_output_adapter@D@__crt_stdio_output@@@2@@__crt_stdio_output@@AEAA_ND@Z 000000018003ec6c f i libucrt:output.obj
 0001:0003dd30       ?type_case_c_tchar@?$output_processor@DV?$string_output_adapter@D@__crt_stdio_output@@V?$format_validation_base@DV?$string_output_adapter@D@__crt_stdio_output@@@2@@__crt_stdio_output@@AEAA_ND@Z 000000018003ed30 f i libucrt:output.obj
 0001:0003ddf4       ?type_case_c_tchar@?$output_processor@DV?$string_output_adapter@D@__crt_stdio_output@@V?$positional_parameter_base@DV?$string_output_adapter@D@__crt_stdio_output@@@2@@__crt_stdio_output@@AEAA_ND@Z 000000018003edf4 f i libucrt:output.obj
 0001:0003df00       ?type_case_c_tchar@?$output_processor@DV?$string_output_adapter@D@__crt_stdio_output@@V?$standard_base@DV?$string_output_adapter@D@__crt_stdio_output@@@2@@__crt_stdio_output@@AEAA_ND@Z 000000018003ef00 f i libucrt:output.obj
 0001:0003dfc4       ?type_case_c_tchar@?$output_processor@_WV?$stream_output_adapter@_W@__crt_stdio_output@@V?$format_validation_base@_WV?$stream_output_adapter@_W@__crt_stdio_output@@@2@@__crt_stdio_output@@AEAA_N_W@Z 000000018003efc4 f i libucrt:output.obj
 0001:0003e088       ?type_case_c_tchar@?$output_processor@_WV?$stream_output_adapter@_W@__crt_stdio_output@@V?$positional_parameter_base@_WV?$stream_output_adapter@_W@__crt_stdio_output@@@2@@__crt_stdio_output@@AEAA_N_W@Z 000000018003f088 f i libucrt:output.obj
 0001:0003e180       ?type_case_c_tchar@?$output_processor@_WV?$stream_output_adapter@_W@__crt_stdio_output@@V?$standard_base@_WV?$stream_output_adapter@_W@__crt_stdio_output@@@2@@__crt_stdio_output@@AEAA_N_W@Z 000000018003f180 f i libucrt:output.obj
 0001:0003e244       ?type_case_c_tchar@?$output_processor@_WV?$string_output_adapter@_W@__crt_stdio_output@@V?$format_validation_base@_WV?$string_output_adapter@_W@__crt_stdio_output@@@2@@__crt_stdio_output@@AEAA_N_W@Z 000000018003f244 f i libucrt:output.obj
 0001:0003e308       ?type_case_c_tchar@?$output_processor@_WV?$string_output_adapter@_W@__crt_stdio_output@@V?$positional_parameter_base@_WV?$string_output_adapter@_W@__crt_stdio_output@@@2@@__crt_stdio_output@@AEAA_N_W@Z 000000018003f308 f i libucrt:output.obj
 0001:0003e400       ?type_case_c_tchar@?$output_processor@_WV?$string_output_adapter@_W@__crt_stdio_output@@V?$standard_base@_WV?$string_output_adapter@_W@__crt_stdio_output@@@2@@__crt_stdio_output@@AEAA_N_W@Z 000000018003f400 f i libucrt:output.obj
 0001:0003e4c4       ?type_case_d@?$output_processor@DV?$stream_output_adapter@D@__crt_stdio_output@@V?$format_validation_base@DV?$stream_output_adapter@D@__crt_stdio_output@@@2@@__crt_stdio_output@@AEAA_NXZ 000000018003f4c4 f i libucrt:output.obj
 0001:0003e4d0       ?type_case_d@?$output_processor@DV?$stream_output_adapter@D@__crt_stdio_output@@V?$positional_parameter_base@DV?$stream_output_adapter@D@__crt_stdio_output@@@2@@__crt_stdio_output@@AEAA_NXZ 000000018003f4d0 f i libucrt:output.obj
 0001:0003e4dc       ?type_case_d@?$output_processor@DV?$stream_output_adapter@D@__crt_stdio_output@@V?$standard_base@DV?$stream_output_adapter@D@__crt_stdio_output@@@2@@__crt_stdio_output@@AEAA_NXZ 000000018003f4dc f i libucrt:output.obj
 0001:0003e4e8       ?type_case_d@?$output_processor@DV?$string_output_adapter@D@__crt_stdio_output@@V?$format_validation_base@DV?$string_output_adapter@D@__crt_stdio_output@@@2@@__crt_stdio_output@@AEAA_NXZ 000000018003f4e8 f i libucrt:output.obj
 0001:0003e4f4       ?type_case_d@?$output_processor@DV?$string_output_adapter@D@__crt_stdio_output@@V?$positional_parameter_base@DV?$string_output_adapter@D@__crt_stdio_output@@@2@@__crt_stdio_output@@AEAA_NXZ 000000018003f4f4 f i libucrt:output.obj
 0001:0003e500       ?type_case_d@?$output_processor@DV?$string_output_adapter@D@__crt_stdio_output@@V?$standard_base@DV?$string_output_adapter@D@__crt_stdio_output@@@2@@__crt_stdio_output@@AEAA_NXZ 000000018003f500 f i libucrt:output.obj
 0001:0003e50c       ?type_case_d@?$output_processor@_WV?$stream_output_adapter@_W@__crt_stdio_output@@V?$format_validation_base@_WV?$stream_output_adapter@_W@__crt_stdio_output@@@2@@__crt_stdio_output@@AEAA_NXZ 000000018003f50c f i libucrt:output.obj
 0001:0003e518       ?type_case_d@?$output_processor@_WV?$stream_output_adapter@_W@__crt_stdio_output@@V?$positional_parameter_base@_WV?$stream_output_adapter@_W@__crt_stdio_output@@@2@@__crt_stdio_output@@AEAA_NXZ 000000018003f518 f i libucrt:output.obj
 0001:0003e524       ?type_case_d@?$output_processor@_WV?$stream_output_adapter@_W@__crt_stdio_output@@V?$standard_base@_WV?$stream_output_adapter@_W@__crt_stdio_output@@@2@@__crt_stdio_output@@AEAA_NXZ 000000018003f524 f i libucrt:output.obj
 0001:0003e530       ?type_case_d@?$output_processor@_WV?$string_output_adapter@_W@__crt_stdio_output@@V?$format_validation_base@_WV?$string_output_adapter@_W@__crt_stdio_output@@@2@@__crt_stdio_output@@AEAA_NXZ 000000018003f530 f i libucrt:output.obj
 0001:0003e53c       ?type_case_d@?$output_processor@_WV?$string_output_adapter@_W@__crt_stdio_output@@V?$positional_parameter_base@_WV?$string_output_adapter@_W@__crt_stdio_output@@@2@@__crt_stdio_output@@AEAA_NXZ 000000018003f53c f i libucrt:output.obj
 0001:0003e548       ?type_case_d@?$output_processor@_WV?$string_output_adapter@_W@__crt_stdio_output@@V?$standard_base@_WV?$string_output_adapter@_W@__crt_stdio_output@@@2@@__crt_stdio_output@@AEAA_NXZ 000000018003f548 f i libucrt:output.obj
 0001:0003e554       ?type_case_n@?$output_processor@DV?$stream_output_adapter@D@__crt_stdio_output@@V?$format_validation_base@DV?$stream_output_adapter@D@__crt_stdio_output@@@2@@__crt_stdio_output@@AEAA_NXZ 000000018003f554 f i libucrt:output.obj
 0001:0003e608       ?type_case_n@?$output_processor@DV?$stream_output_adapter@D@__crt_stdio_output@@V?$positional_parameter_base@DV?$stream_output_adapter@D@__crt_stdio_output@@@2@@__crt_stdio_output@@AEAA_NXZ 000000018003f608 f i libucrt:output.obj
 0001:0003e6ec       ?type_case_n@?$output_processor@DV?$stream_output_adapter@D@__crt_stdio_output@@V?$standard_base@DV?$stream_output_adapter@D@__crt_stdio_output@@@2@@__crt_stdio_output@@AEAA_NXZ 000000018003f6ec f i libucrt:output.obj
 0001:0003e7a0       ?type_case_n@?$output_processor@DV?$string_output_adapter@D@__crt_stdio_output@@V?$format_validation_base@DV?$string_output_adapter@D@__crt_stdio_output@@@2@@__crt_stdio_output@@AEAA_NXZ 000000018003f7a0 f i libucrt:output.obj
 0001:0003e854       ?type_case_n@?$output_processor@DV?$string_output_adapter@D@__crt_stdio_output@@V?$positional_parameter_base@DV?$string_output_adapter@D@__crt_stdio_output@@@2@@__crt_stdio_output@@AEAA_NXZ 000000018003f854 f i libucrt:output.obj
 0001:0003e938       ?type_case_n@?$output_processor@DV?$string_output_adapter@D@__crt_stdio_output@@V?$standard_base@DV?$string_output_adapter@D@__crt_stdio_output@@@2@@__crt_stdio_output@@AEAA_NXZ 000000018003f938 f i libucrt:output.obj
 0001:0003e9ec       ?type_case_n@?$output_processor@_WV?$stream_output_adapter@_W@__crt_stdio_output@@V?$format_validation_base@_WV?$stream_output_adapter@_W@__crt_stdio_output@@@2@@__crt_stdio_output@@AEAA_NXZ 000000018003f9ec f i libucrt:output.obj
 0001:0003eaa0       ?type_case_n@?$output_processor@_WV?$stream_output_adapter@_W@__crt_stdio_output@@V?$positional_parameter_base@_WV?$stream_output_adapter@_W@__crt_stdio_output@@@2@@__crt_stdio_output@@AEAA_NXZ 000000018003faa0 f i libucrt:output.obj
 0001:0003eb84       ?type_case_n@?$output_processor@_WV?$stream_output_adapter@_W@__crt_stdio_output@@V?$standard_base@_WV?$stream_output_adapter@_W@__crt_stdio_output@@@2@@__crt_stdio_output@@AEAA_NXZ 000000018003fb84 f i libucrt:output.obj
 0001:0003ec38       ?type_case_n@?$output_processor@_WV?$string_output_adapter@_W@__crt_stdio_output@@V?$format_validation_base@_WV?$string_output_adapter@_W@__crt_stdio_output@@@2@@__crt_stdio_output@@AEAA_NXZ 000000018003fc38 f i libucrt:output.obj
 0001:0003ecec       ?type_case_n@?$output_processor@_WV?$string_output_adapter@_W@__crt_stdio_output@@V?$positional_parameter_base@_WV?$string_output_adapter@_W@__crt_stdio_output@@@2@@__crt_stdio_output@@AEAA_NXZ 000000018003fcec f i libucrt:output.obj
 0001:0003edd0       ?type_case_n@?$output_processor@_WV?$string_output_adapter@_W@__crt_stdio_output@@V?$standard_base@_WV?$string_output_adapter@_W@__crt_stdio_output@@@2@@__crt_stdio_output@@AEAA_NXZ 000000018003fdd0 f i libucrt:output.obj
 0001:0003ee84       ?type_case_o@?$output_processor@DV?$stream_output_adapter@D@__crt_stdio_output@@V?$format_validation_base@DV?$stream_output_adapter@D@__crt_stdio_output@@@2@@__crt_stdio_output@@AEAA_NXZ 000000018003fe84 f i libucrt:output.obj
 0001:0003eea0       ?type_case_o@?$output_processor@DV?$stream_output_adapter@D@__crt_stdio_output@@V?$positional_parameter_base@DV?$stream_output_adapter@D@__crt_stdio_output@@@2@@__crt_stdio_output@@AEAA_NXZ 000000018003fea0 f i libucrt:output.obj
 0001:0003eebc       ?type_case_o@?$output_processor@DV?$stream_output_adapter@D@__crt_stdio_output@@V?$standard_base@DV?$stream_output_adapter@D@__crt_stdio_output@@@2@@__crt_stdio_output@@AEAA_NXZ 000000018003febc f i libucrt:output.obj
 0001:0003eed8       ?type_case_o@?$output_processor@DV?$string_output_adapter@D@__crt_stdio_output@@V?$format_validation_base@DV?$string_output_adapter@D@__crt_stdio_output@@@2@@__crt_stdio_output@@AEAA_NXZ 000000018003fed8 f i libucrt:output.obj
 0001:0003eef4       ?type_case_o@?$output_processor@DV?$string_output_adapter@D@__crt_stdio_output@@V?$positional_parameter_base@DV?$string_output_adapter@D@__crt_stdio_output@@@2@@__crt_stdio_output@@AEAA_NXZ 000000018003fef4 f i libucrt:output.obj
 0001:0003ef10       ?type_case_o@?$output_processor@DV?$string_output_adapter@D@__crt_stdio_output@@V?$standard_base@DV?$string_output_adapter@D@__crt_stdio_output@@@2@@__crt_stdio_output@@AEAA_NXZ 000000018003ff10 f i libucrt:output.obj
 0001:0003ef2c       ?type_case_o@?$output_processor@_WV?$stream_output_adapter@_W@__crt_stdio_output@@V?$format_validation_base@_WV?$stream_output_adapter@_W@__crt_stdio_output@@@2@@__crt_stdio_output@@AEAA_NXZ 000000018003ff2c f i libucrt:output.obj
 0001:0003ef48       ?type_case_o@?$output_processor@_WV?$stream_output_adapter@_W@__crt_stdio_output@@V?$positional_parameter_base@_WV?$stream_output_adapter@_W@__crt_stdio_output@@@2@@__crt_stdio_output@@AEAA_NXZ 000000018003ff48 f i libucrt:output.obj
 0001:0003ef64       ?type_case_o@?$output_processor@_WV?$stream_output_adapter@_W@__crt_stdio_output@@V?$standard_base@_WV?$stream_output_adapter@_W@__crt_stdio_output@@@2@@__crt_stdio_output@@AEAA_NXZ 000000018003ff64 f i libucrt:output.obj
 0001:0003ef80       ?type_case_o@?$output_processor@_WV?$string_output_adapter@_W@__crt_stdio_output@@V?$format_validation_base@_WV?$string_output_adapter@_W@__crt_stdio_output@@@2@@__crt_stdio_output@@AEAA_NXZ 000000018003ff80 f i libucrt:output.obj
 0001:0003ef9c       ?type_case_o@?$output_processor@_WV?$string_output_adapter@_W@__crt_stdio_output@@V?$positional_parameter_base@_WV?$string_output_adapter@_W@__crt_stdio_output@@@2@@__crt_stdio_output@@AEAA_NXZ 000000018003ff9c f i libucrt:output.obj
 0001:0003efb8       ?type_case_o@?$output_processor@_WV?$string_output_adapter@_W@__crt_stdio_output@@V?$standard_base@_WV?$string_output_adapter@_W@__crt_stdio_output@@@2@@__crt_stdio_output@@AEAA_NXZ 000000018003ffb8 f i libucrt:output.obj
 0001:0003efd4       ?type_case_p@?$output_processor@DV?$stream_output_adapter@D@__crt_stdio_output@@V?$format_validation_base@DV?$stream_output_adapter@D@__crt_stdio_output@@@2@@__crt_stdio_output@@AEAA_NXZ 000000018003ffd4 f i libucrt:output.obj
 0001:0003efec       ?type_case_p@?$output_processor@DV?$stream_output_adapter@D@__crt_stdio_output@@V?$positional_parameter_base@DV?$stream_output_adapter@D@__crt_stdio_output@@@2@@__crt_stdio_output@@AEAA_NXZ 000000018003ffec f i libucrt:output.obj
 0001:0003f004       ?type_case_p@?$output_processor@DV?$stream_output_adapter@D@__crt_stdio_output@@V?$standard_base@DV?$stream_output_adapter@D@__crt_stdio_output@@@2@@__crt_stdio_output@@AEAA_NXZ 0000000180040004 f i libucrt:output.obj
 0001:0003f01c       ?type_case_p@?$output_processor@DV?$string_output_adapter@D@__crt_stdio_output@@V?$format_validation_base@DV?$string_output_adapter@D@__crt_stdio_output@@@2@@__crt_stdio_output@@AEAA_NXZ 000000018004001c f i libucrt:output.obj
 0001:0003f034       ?type_case_p@?$output_processor@DV?$string_output_adapter@D@__crt_stdio_output@@V?$positional_parameter_base@DV?$string_output_adapter@D@__crt_stdio_output@@@2@@__crt_stdio_output@@AEAA_NXZ 0000000180040034 f i libucrt:output.obj
 0001:0003f04c       ?type_case_p@?$output_processor@DV?$string_output_adapter@D@__crt_stdio_output@@V?$standard_base@DV?$string_output_adapter@D@__crt_stdio_output@@@2@@__crt_stdio_output@@AEAA_NXZ 000000018004004c f i libucrt:output.obj
 0001:0003f064       ?type_case_p@?$output_processor@_WV?$stream_output_adapter@_W@__crt_stdio_output@@V?$format_validation_base@_WV?$stream_output_adapter@_W@__crt_stdio_output@@@2@@__crt_stdio_output@@AEAA_NXZ 0000000180040064 f i libucrt:output.obj
 0001:0003f07c       ?type_case_p@?$output_processor@_WV?$stream_output_adapter@_W@__crt_stdio_output@@V?$positional_parameter_base@_WV?$stream_output_adapter@_W@__crt_stdio_output@@@2@@__crt_stdio_output@@AEAA_NXZ 000000018004007c f i libucrt:output.obj
 0001:0003f094       ?type_case_p@?$output_processor@_WV?$stream_output_adapter@_W@__crt_stdio_output@@V?$standard_base@_WV?$stream_output_adapter@_W@__crt_stdio_output@@@2@@__crt_stdio_output@@AEAA_NXZ 0000000180040094 f i libucrt:output.obj
 0001:0003f0ac       ?type_case_p@?$output_processor@_WV?$string_output_adapter@_W@__crt_stdio_output@@V?$format_validation_base@_WV?$string_output_adapter@_W@__crt_stdio_output@@@2@@__crt_stdio_output@@AEAA_NXZ 00000001800400ac f i libucrt:output.obj
 0001:0003f0c4       ?type_case_p@?$output_processor@_WV?$string_output_adapter@_W@__crt_stdio_output@@V?$positional_parameter_base@_WV?$string_output_adapter@_W@__crt_stdio_output@@@2@@__crt_stdio_output@@AEAA_NXZ 00000001800400c4 f i libucrt:output.obj
 0001:0003f0dc       ?type_case_p@?$output_processor@_WV?$string_output_adapter@_W@__crt_stdio_output@@V?$standard_base@_WV?$string_output_adapter@_W@__crt_stdio_output@@@2@@__crt_stdio_output@@AEAA_NXZ 00000001800400dc f i libucrt:output.obj
 0001:0003f0f4       ?type_case_s@?$output_processor@DV?$stream_output_adapter@D@__crt_stdio_output@@V?$format_validation_base@DV?$stream_output_adapter@D@__crt_stdio_output@@@2@@__crt_stdio_output@@AEAA_NXZ 00000001800400f4 f i libucrt:output.obj
 0001:0003f18c       ?type_case_s@?$output_processor@DV?$stream_output_adapter@D@__crt_stdio_output@@V?$positional_parameter_base@DV?$stream_output_adapter@D@__crt_stdio_output@@@2@@__crt_stdio_output@@AEAA_NXZ 000000018004018c f i libucrt:output.obj
 0001:0003f244       ?type_case_s@?$output_processor@DV?$stream_output_adapter@D@__crt_stdio_output@@V?$standard_base@DV?$stream_output_adapter@D@__crt_stdio_output@@@2@@__crt_stdio_output@@AEAA_NXZ 0000000180040244 f i libucrt:output.obj
 0001:0003f2dc       ?type_case_s@?$output_processor@DV?$string_output_adapter@D@__crt_stdio_output@@V?$format_validation_base@DV?$string_output_adapter@D@__crt_stdio_output@@@2@@__crt_stdio_output@@AEAA_NXZ 00000001800402dc f i libucrt:output.obj
 0001:0003f374       ?type_case_s@?$output_processor@DV?$string_output_adapter@D@__crt_stdio_output@@V?$positional_parameter_base@DV?$string_output_adapter@D@__crt_stdio_output@@@2@@__crt_stdio_output@@AEAA_NXZ 0000000180040374 f i libucrt:output.obj
 0001:0003f42c       ?type_case_s@?$output_processor@DV?$string_output_adapter@D@__crt_stdio_output@@V?$standard_base@DV?$string_output_adapter@D@__crt_stdio_output@@@2@@__crt_stdio_output@@AEAA_NXZ 000000018004042c f i libucrt:output.obj
 0001:0003f4c4       ?type_case_s@?$output_processor@_WV?$stream_output_adapter@_W@__crt_stdio_output@@V?$format_validation_base@_WV?$stream_output_adapter@_W@__crt_stdio_output@@@2@@__crt_stdio_output@@AEAA_NXZ 00000001800404c4 f i libucrt:output.obj
 0001:0003f55c       ?type_case_s@?$output_processor@_WV?$stream_output_adapter@_W@__crt_stdio_output@@V?$positional_parameter_base@_WV?$stream_output_adapter@_W@__crt_stdio_output@@@2@@__crt_stdio_output@@AEAA_NXZ 000000018004055c f i libucrt:output.obj
 0001:0003f610       ?type_case_s@?$output_processor@_WV?$stream_output_adapter@_W@__crt_stdio_output@@V?$standard_base@_WV?$stream_output_adapter@_W@__crt_stdio_output@@@2@@__crt_stdio_output@@AEAA_NXZ 0000000180040610 f i libucrt:output.obj
 0001:0003f6a8       ?type_case_s@?$output_processor@_WV?$string_output_adapter@_W@__crt_stdio_output@@V?$format_validation_base@_WV?$string_output_adapter@_W@__crt_stdio_output@@@2@@__crt_stdio_output@@AEAA_NXZ 00000001800406a8 f i libucrt:output.obj
 0001:0003f740       ?type_case_s@?$output_processor@_WV?$string_output_adapter@_W@__crt_stdio_output@@V?$positional_parameter_base@_WV?$string_output_adapter@_W@__crt_stdio_output@@@2@@__crt_stdio_output@@AEAA_NXZ 0000000180040740 f i libucrt:output.obj
 0001:0003f7f4       ?type_case_s@?$output_processor@_WV?$string_output_adapter@_W@__crt_stdio_output@@V?$standard_base@_WV?$string_output_adapter@_W@__crt_stdio_output@@@2@@__crt_stdio_output@@AEAA_NXZ 00000001800407f4 f i libucrt:output.obj
 0001:0003f88c       ?type_case_s_compute_narrow_string_length@?$output_processor@DV?$stream_output_adapter@D@__crt_stdio_output@@V?$format_validation_base@DV?$stream_output_adapter@D@__crt_stdio_output@@@2@@__crt_stdio_output@@AEAAHHD@Z 000000018004088c f i libucrt:output.obj
 0001:0003f898       ?type_case_s_compute_narrow_string_length@?$output_processor@DV?$stream_output_adapter@D@__crt_stdio_output@@V?$positional_parameter_base@DV?$stream_output_adapter@D@__crt_stdio_output@@@2@@__crt_stdio_output@@AEAAHHD@Z 0000000180040898 f i libucrt:output.obj
 0001:0003f8a4       ?type_case_s_compute_narrow_string_length@?$output_processor@DV?$stream_output_adapter@D@__crt_stdio_output@@V?$standard_base@DV?$stream_output_adapter@D@__crt_stdio_output@@@2@@__crt_stdio_output@@AEAAHHD@Z 00000001800408a4 f i libucrt:output.obj
 0001:0003f8b0       ?type_case_s_compute_narrow_string_length@?$output_processor@DV?$string_output_adapter@D@__crt_stdio_output@@V?$format_validation_base@DV?$string_output_adapter@D@__crt_stdio_output@@@2@@__crt_stdio_output@@AEAAHHD@Z 00000001800408b0 f i libucrt:output.obj
 0001:0003f8bc       ?type_case_s_compute_narrow_string_length@?$output_processor@DV?$string_output_adapter@D@__crt_stdio_output@@V?$positional_parameter_base@DV?$string_output_adapter@D@__crt_stdio_output@@@2@@__crt_stdio_output@@AEAAHHD@Z 00000001800408bc f i libucrt:output.obj
 0001:0003f8c8       ?type_case_s_compute_narrow_string_length@?$output_processor@DV?$string_output_adapter@D@__crt_stdio_output@@V?$standard_base@DV?$string_output_adapter@D@__crt_stdio_output@@@2@@__crt_stdio_output@@AEAAHHD@Z 00000001800408c8 f i libucrt:output.obj
 0001:0003f8d4       ?type_case_s_compute_narrow_string_length@?$output_processor@_WV?$stream_output_adapter@_W@__crt_stdio_output@@V?$format_validation_base@_WV?$stream_output_adapter@_W@__crt_stdio_output@@@2@@__crt_stdio_output@@AEAAHH_W@Z 00000001800408d4 f i libucrt:output.obj
 0001:0003f94c       ?type_case_s_compute_narrow_string_length@?$output_processor@_WV?$stream_output_adapter@_W@__crt_stdio_output@@V?$positional_parameter_base@_WV?$stream_output_adapter@_W@__crt_stdio_output@@@2@@__crt_stdio_output@@AEAAHH_W@Z 000000018004094c f i libucrt:output.obj
 0001:0003f9c4       ?type_case_s_compute_narrow_string_length@?$output_processor@_WV?$stream_output_adapter@_W@__crt_stdio_output@@V?$standard_base@_WV?$stream_output_adapter@_W@__crt_stdio_output@@@2@@__crt_stdio_output@@AEAAHH_W@Z 00000001800409c4 f i libucrt:output.obj
 0001:0003fa3c       ?type_case_s_compute_narrow_string_length@?$output_processor@_WV?$string_output_adapter@_W@__crt_stdio_output@@V?$format_validation_base@_WV?$string_output_adapter@_W@__crt_stdio_output@@@2@@__crt_stdio_output@@AEAAHH_W@Z 0000000180040a3c f i libucrt:output.obj
 0001:0003fab4       ?type_case_s_compute_narrow_string_length@?$output_processor@_WV?$string_output_adapter@_W@__crt_stdio_output@@V?$positional_parameter_base@_WV?$string_output_adapter@_W@__crt_stdio_output@@@2@@__crt_stdio_output@@AEAAHH_W@Z 0000000180040ab4 f i libucrt:output.obj
 0001:0003fb2c       ?type_case_s_compute_narrow_string_length@?$output_processor@_WV?$string_output_adapter@_W@__crt_stdio_output@@V?$standard_base@_WV?$string_output_adapter@_W@__crt_stdio_output@@@2@@__crt_stdio_output@@AEAAHH_W@Z 0000000180040b2c f i libucrt:output.obj
 0001:0003fba4       ?type_case_u@?$output_processor@DV?$stream_output_adapter@D@__crt_stdio_output@@V?$format_validation_base@DV?$stream_output_adapter@D@__crt_stdio_output@@@2@@__crt_stdio_output@@AEAA_NXZ 0000000180040ba4 f i libucrt:output.obj
 0001:0003fbac       ?type_case_u@?$output_processor@DV?$stream_output_adapter@D@__crt_stdio_output@@V?$positional_parameter_base@DV?$stream_output_adapter@D@__crt_stdio_output@@@2@@__crt_stdio_output@@AEAA_NXZ 0000000180040bac f i libucrt:output.obj
 0001:0003fbb4       ?type_case_u@?$output_processor@DV?$stream_output_adapter@D@__crt_stdio_output@@V?$standard_base@DV?$stream_output_adapter@D@__crt_stdio_output@@@2@@__crt_stdio_output@@AEAA_NXZ 0000000180040bb4 f i libucrt:output.obj
 0001:0003fbbc       ?type_case_u@?$output_processor@DV?$string_output_adapter@D@__crt_stdio_output@@V?$format_validation_base@DV?$string_output_adapter@D@__crt_stdio_output@@@2@@__crt_stdio_output@@AEAA_NXZ 0000000180040bbc f i libucrt:output.obj
 0001:0003fbc4       ?type_case_u@?$output_processor@DV?$string_output_adapter@D@__crt_stdio_output@@V?$positional_parameter_base@DV?$string_output_adapter@D@__crt_stdio_output@@@2@@__crt_stdio_output@@AEAA_NXZ 0000000180040bc4 f i libucrt:output.obj
 0001:0003fbcc       ?type_case_u@?$output_processor@DV?$string_output_adapter@D@__crt_stdio_output@@V?$standard_base@DV?$string_output_adapter@D@__crt_stdio_output@@@2@@__crt_stdio_output@@AEAA_NXZ 0000000180040bcc f i libucrt:output.obj
 0001:0003fbd4       ?type_case_u@?$output_processor@_WV?$stream_output_adapter@_W@__crt_stdio_output@@V?$format_validation_base@_WV?$stream_output_adapter@_W@__crt_stdio_output@@@2@@__crt_stdio_output@@AEAA_NXZ 0000000180040bd4 f i libucrt:output.obj
 0001:0003fbdc       ?type_case_u@?$output_processor@_WV?$stream_output_adapter@_W@__crt_stdio_output@@V?$positional_parameter_base@_WV?$stream_output_adapter@_W@__crt_stdio_output@@@2@@__crt_stdio_output@@AEAA_NXZ 0000000180040bdc f i libucrt:output.obj
 0001:0003fbe4       ?type_case_u@?$output_processor@_WV?$stream_output_adapter@_W@__crt_stdio_output@@V?$standard_base@_WV?$stream_output_adapter@_W@__crt_stdio_output@@@2@@__crt_stdio_output@@AEAA_NXZ 0000000180040be4 f i libucrt:output.obj
 0001:0003fbec       ?type_case_u@?$output_processor@_WV?$string_output_adapter@_W@__crt_stdio_output@@V?$format_validation_base@_WV?$string_output_adapter@_W@__crt_stdio_output@@@2@@__crt_stdio_output@@AEAA_NXZ 0000000180040bec f i libucrt:output.obj
 0001:0003fbf4       ?type_case_u@?$output_processor@_WV?$string_output_adapter@_W@__crt_stdio_output@@V?$positional_parameter_base@_WV?$string_output_adapter@_W@__crt_stdio_output@@@2@@__crt_stdio_output@@AEAA_NXZ 0000000180040bf4 f i libucrt:output.obj
 0001:0003fbfc       ?type_case_u@?$output_processor@_WV?$string_output_adapter@_W@__crt_stdio_output@@V?$standard_base@_WV?$string_output_adapter@_W@__crt_stdio_output@@@2@@__crt_stdio_output@@AEAA_NXZ 0000000180040bfc f i libucrt:output.obj
 0001:0003fc04       ?type_case_x@?$output_processor@DV?$stream_output_adapter@D@__crt_stdio_output@@V?$format_validation_base@DV?$stream_output_adapter@D@__crt_stdio_output@@@2@@__crt_stdio_output@@AEAA_NXZ 0000000180040c04 f i libucrt:output.obj
 0001:0003fc0c       ?type_case_x@?$output_processor@DV?$stream_output_adapter@D@__crt_stdio_output@@V?$positional_parameter_base@DV?$stream_output_adapter@D@__crt_stdio_output@@@2@@__crt_stdio_output@@AEAA_NXZ 0000000180040c0c f i libucrt:output.obj
 0001:0003fc14       ?type_case_x@?$output_processor@DV?$stream_output_adapter@D@__crt_stdio_output@@V?$standard_base@DV?$stream_output_adapter@D@__crt_stdio_output@@@2@@__crt_stdio_output@@AEAA_NXZ 0000000180040c14 f i libucrt:output.obj
 0001:0003fc1c       ?type_case_x@?$output_processor@DV?$string_output_adapter@D@__crt_stdio_output@@V?$format_validation_base@DV?$string_output_adapter@D@__crt_stdio_output@@@2@@__crt_stdio_output@@AEAA_NXZ 0000000180040c1c f i libucrt:output.obj
 0001:0003fc24       ?type_case_x@?$output_processor@DV?$string_output_adapter@D@__crt_stdio_output@@V?$positional_parameter_base@DV?$string_output_adapter@D@__crt_stdio_output@@@2@@__crt_stdio_output@@AEAA_NXZ 0000000180040c24 f i libucrt:output.obj
 0001:0003fc2c       ?type_case_x@?$output_processor@DV?$string_output_adapter@D@__crt_stdio_output@@V?$standard_base@DV?$string_output_adapter@D@__crt_stdio_output@@@2@@__crt_stdio_output@@AEAA_NXZ 0000000180040c2c f i libucrt:output.obj
 0001:0003fc34       ?type_case_x@?$output_processor@_WV?$stream_output_adapter@_W@__crt_stdio_output@@V?$format_validation_base@_WV?$stream_output_adapter@_W@__crt_stdio_output@@@2@@__crt_stdio_output@@AEAA_NXZ 0000000180040c34 f i libucrt:output.obj
 0001:0003fc3c       ?type_case_x@?$output_processor@_WV?$stream_output_adapter@_W@__crt_stdio_output@@V?$positional_parameter_base@_WV?$stream_output_adapter@_W@__crt_stdio_output@@@2@@__crt_stdio_output@@AEAA_NXZ 0000000180040c3c f i libucrt:output.obj
 0001:0003fc44       ?type_case_x@?$output_processor@_WV?$stream_output_adapter@_W@__crt_stdio_output@@V?$standard_base@_WV?$stream_output_adapter@_W@__crt_stdio_output@@@2@@__crt_stdio_output@@AEAA_NXZ 0000000180040c44 f i libucrt:output.obj
 0001:0003fc4c       ?type_case_x@?$output_processor@_WV?$string_output_adapter@_W@__crt_stdio_output@@V?$format_validation_base@_WV?$string_output_adapter@_W@__crt_stdio_output@@@2@@__crt_stdio_output@@AEAA_NXZ 0000000180040c4c f i libucrt:output.obj
 0001:0003fc54       ?type_case_x@?$output_processor@_WV?$string_output_adapter@_W@__crt_stdio_output@@V?$positional_parameter_base@_WV?$string_output_adapter@_W@__crt_stdio_output@@@2@@__crt_stdio_output@@AEAA_NXZ 0000000180040c54 f i libucrt:output.obj
 0001:0003fc5c       ?type_case_x@?$output_processor@_WV?$string_output_adapter@_W@__crt_stdio_output@@V?$standard_base@_WV?$string_output_adapter@_W@__crt_stdio_output@@@2@@__crt_stdio_output@@AEAA_NXZ 0000000180040c5c f i libucrt:output.obj
 0001:0003fc64       ?unget@?$c_string_character_source@D@__crt_strtox@@QEAAXD@Z 0000000180040c64 f i libucrt:output.obj
 0001:0003fc90       ?unget@?$c_string_character_source@_W@__crt_strtox@@QEAAX_W@Z 0000000180040c90 f i libucrt:output.obj
 0001:0003fcc0       ?unset_flag@?$output_processor@DV?$stream_output_adapter@D@__crt_stdio_output@@V?$format_validation_base@DV?$stream_output_adapter@D@__crt_stdio_output@@@2@@__crt_stdio_output@@AEAAXI@Z 0000000180040cc0 f i libucrt:output.obj
 0001:0003fcc8       ?unset_flag@?$output_processor@DV?$stream_output_adapter@D@__crt_stdio_output@@V?$positional_parameter_base@DV?$stream_output_adapter@D@__crt_stdio_output@@@2@@__crt_stdio_output@@AEAAXI@Z 0000000180040cc8 f i libucrt:output.obj
 0001:0003fcd0       ?unset_flag@?$output_processor@DV?$stream_output_adapter@D@__crt_stdio_output@@V?$standard_base@DV?$stream_output_adapter@D@__crt_stdio_output@@@2@@__crt_stdio_output@@AEAAXI@Z 0000000180040cd0 f i libucrt:output.obj
 0001:0003fcd8       ?unset_flag@?$output_processor@DV?$string_output_adapter@D@__crt_stdio_output@@V?$format_validation_base@DV?$string_output_adapter@D@__crt_stdio_output@@@2@@__crt_stdio_output@@AEAAXI@Z 0000000180040cd8 f i libucrt:output.obj
 0001:0003fce0       ?unset_flag@?$output_processor@DV?$string_output_adapter@D@__crt_stdio_output@@V?$positional_parameter_base@DV?$string_output_adapter@D@__crt_stdio_output@@@2@@__crt_stdio_output@@AEAAXI@Z 0000000180040ce0 f i libucrt:output.obj
 0001:0003fce8       ?unset_flag@?$output_processor@DV?$string_output_adapter@D@__crt_stdio_output@@V?$standard_base@DV?$string_output_adapter@D@__crt_stdio_output@@@2@@__crt_stdio_output@@AEAAXI@Z 0000000180040ce8 f i libucrt:output.obj
 0001:0003fcf0       ?unset_flag@?$output_processor@_WV?$stream_output_adapter@_W@__crt_stdio_output@@V?$format_validation_base@_WV?$stream_output_adapter@_W@__crt_stdio_output@@@2@@__crt_stdio_output@@AEAAXI@Z 0000000180040cf0 f i libucrt:output.obj
 0001:0003fcf8       ?unset_flag@?$output_processor@_WV?$stream_output_adapter@_W@__crt_stdio_output@@V?$positional_parameter_base@_WV?$stream_output_adapter@_W@__crt_stdio_output@@@2@@__crt_stdio_output@@AEAAXI@Z 0000000180040cf8 f i libucrt:output.obj
 0001:0003fd00       ?unset_flag@?$output_processor@_WV?$stream_output_adapter@_W@__crt_stdio_output@@V?$standard_base@_WV?$stream_output_adapter@_W@__crt_stdio_output@@@2@@__crt_stdio_output@@AEAAXI@Z 0000000180040d00 f i libucrt:output.obj
 0001:0003fd08       ?unset_flag@?$output_processor@_WV?$string_output_adapter@_W@__crt_stdio_output@@V?$format_validation_base@_WV?$string_output_adapter@_W@__crt_stdio_output@@@2@@__crt_stdio_output@@AEAAXI@Z 0000000180040d08 f i libucrt:output.obj
 0001:0003fd10       ?unset_flag@?$output_processor@_WV?$string_output_adapter@_W@__crt_stdio_output@@V?$positional_parameter_base@_WV?$string_output_adapter@_W@__crt_stdio_output@@@2@@__crt_stdio_output@@AEAAXI@Z 0000000180040d10 f i libucrt:output.obj
 0001:0003fd18       ?unset_flag@?$output_processor@_WV?$string_output_adapter@_W@__crt_stdio_output@@V?$standard_base@_WV?$string_output_adapter@_W@__crt_stdio_output@@@2@@__crt_stdio_output@@AEAAXI@Z 0000000180040d18 f i libucrt:output.obj
 0001:0003fd20       ?update_field_width@?$positional_parameter_base@DV?$stream_output_adapter@D@__crt_stdio_output@@@__crt_stdio_output@@IEAA_NXZ 0000000180040d20 f i libucrt:output.obj
 0001:0003fe90       ?update_field_width@?$positional_parameter_base@DV?$string_output_adapter@D@__crt_stdio_output@@@__crt_stdio_output@@IEAA_NXZ 0000000180040e90 f i libucrt:output.obj
 0001:00040000       ?update_field_width@?$positional_parameter_base@_WV?$stream_output_adapter@_W@__crt_stdio_output@@@__crt_stdio_output@@IEAA_NXZ 0000000180041000 f i libucrt:output.obj
 0001:00040174       ?update_field_width@?$positional_parameter_base@_WV?$string_output_adapter@_W@__crt_stdio_output@@@__crt_stdio_output@@IEAA_NXZ 0000000180041174 f i libucrt:output.obj
 0001:000402e8       ?update_field_width@?$standard_base@DV?$stream_output_adapter@D@__crt_stdio_output@@@__crt_stdio_output@@IEAA_NXZ 00000001800412e8 f i libucrt:output.obj
 0001:000402fc       ?update_field_width@?$standard_base@DV?$string_output_adapter@D@__crt_stdio_output@@@__crt_stdio_output@@IEAA_NXZ 00000001800412fc f i libucrt:output.obj
 0001:00040310       ?update_field_width@?$standard_base@_WV?$stream_output_adapter@_W@__crt_stdio_output@@@__crt_stdio_output@@IEAA_NXZ 0000000180041310 f i libucrt:output.obj
 0001:00040324       ?update_field_width@?$standard_base@_WV?$string_output_adapter@_W@__crt_stdio_output@@@__crt_stdio_output@@IEAA_NXZ 0000000180041324 f i libucrt:output.obj
 0001:00040340       ?update_locale@__crt_cached_ptd_host@@AEAAXXZ 0000000180041340 f i libucrt:output.obj
 0001:00040350       ?update_locale_slow@__crt_cached_ptd_host@@AEAAXXZ 0000000180041350 f i libucrt:output.obj
 0001:000403c8       ?update_precision@?$positional_parameter_base@DV?$stream_output_adapter@D@__crt_stdio_output@@@__crt_stdio_output@@IEAA_NXZ 00000001800413c8 f i libucrt:output.obj
 0001:00040538       ?update_precision@?$positional_parameter_base@DV?$string_output_adapter@D@__crt_stdio_output@@@__crt_stdio_output@@IEAA_NXZ 0000000180041538 f i libucrt:output.obj
 0001:000406a8       ?update_precision@?$positional_parameter_base@_WV?$stream_output_adapter@_W@__crt_stdio_output@@@__crt_stdio_output@@IEAA_NXZ 00000001800416a8 f i libucrt:output.obj
 0001:0004081c       ?update_precision@?$positional_parameter_base@_WV?$string_output_adapter@_W@__crt_stdio_output@@@__crt_stdio_output@@IEAA_NXZ 000000018004181c f i libucrt:output.obj
 0001:00040990       ?update_precision@?$standard_base@DV?$stream_output_adapter@D@__crt_stdio_output@@@__crt_stdio_output@@IEAA_NXZ 0000000180041990 f i libucrt:output.obj
 0001:000409a4       ?update_precision@?$standard_base@DV?$string_output_adapter@D@__crt_stdio_output@@@__crt_stdio_output@@IEAA_NXZ 00000001800419a4 f i libucrt:output.obj
 0001:000409b8       ?update_precision@?$standard_base@_WV?$stream_output_adapter@_W@__crt_stdio_output@@@__crt_stdio_output@@IEAA_NXZ 00000001800419b8 f i libucrt:output.obj
 0001:000409cc       ?update_precision@?$standard_base@_WV?$string_output_adapter@_W@__crt_stdio_output@@@__crt_stdio_output@@IEAA_NXZ 00000001800419cc f i libucrt:output.obj
 0001:000409e0       ?valid@__crt_stdio_stream@@QEBA_NXZ 00000001800419e0 f i libucrt:output.obj
 0001:000409e8       ?validate@?$c_string_character_source@D@__crt_strtox@@QEBA_NXZ 00000001800419e8 f i libucrt:output.obj
 0001:00040a10       ?validate@?$c_string_character_source@_W@__crt_strtox@@QEBA_NXZ 0000000180041a10 f i libucrt:output.obj
 0001:00040a38       ?validate@?$stream_output_adapter@D@__crt_stdio_output@@QEBA_NAEAV__crt_cached_ptd_host@@@Z 0000000180041a38 f i libucrt:output.obj
 0001:00040a78       ?validate@?$stream_output_adapter@_W@__crt_stdio_output@@QEBA_NAEAV__crt_cached_ptd_host@@@Z 0000000180041a78 f i libucrt:output.obj
 0001:00040ab4       ?validate@?$string_output_adapter@D@__crt_stdio_output@@QEBA_NAEAV__crt_cached_ptd_host@@@Z 0000000180041ab4 f i libucrt:output.obj
 0001:00040af0       ?validate@?$string_output_adapter@_W@__crt_stdio_output@@QEBA_NAEAV__crt_cached_ptd_host@@@Z 0000000180041af0 f i libucrt:output.obj
 0001:00040b2c       ?validate_and_store_parameter_data@?$positional_parameter_base@DV?$stream_output_adapter@D@__crt_stdio_output@@@__crt_stdio_output@@AEAA_NAEAUparameter_data@12@W4parameter_type@12@DW4length_modifier@2@@Z 0000000180041b2c f i libucrt:output.obj
 0001:00040b90       ?validate_and_store_parameter_data@?$positional_parameter_base@DV?$string_output_adapter@D@__crt_stdio_output@@@__crt_stdio_output@@AEAA_NAEAUparameter_data@12@W4parameter_type@12@DW4length_modifier@2@@Z 0000000180041b90 f i libucrt:output.obj
 0001:00040bf4       ?validate_and_store_parameter_data@?$positional_parameter_base@_WV?$stream_output_adapter@_W@__crt_stdio_output@@@__crt_stdio_output@@AEAA_NAEAUparameter_data@12@W4parameter_type@12@_WW4length_modifier@2@@Z 0000000180041bf4 f i libucrt:output.obj
 0001:00040c58       ?validate_and_store_parameter_data@?$positional_parameter_base@_WV?$string_output_adapter@_W@__crt_stdio_output@@@__crt_stdio_output@@AEAA_NAEAUparameter_data@12@W4parameter_type@12@_WW4length_modifier@2@@Z 0000000180041c58 f i libucrt:output.obj
 0001:00040cbc       ?validate_and_update_state_at_beginning_of_format_character@?$positional_parameter_base@DV?$stream_output_adapter@D@__crt_stdio_output@@@__crt_stdio_output@@IEAA_NXZ 0000000180041cbc f i libucrt:output.obj
 0001:00040e04       ?validate_and_update_state_at_beginning_of_format_character@?$positional_parameter_base@DV?$string_output_adapter@D@__crt_stdio_output@@@__crt_stdio_output@@IEAA_NXZ 0000000180041e04 f i libucrt:output.obj
 0001:00040f4c       ?validate_and_update_state_at_beginning_of_format_character@?$positional_parameter_base@_WV?$stream_output_adapter@_W@__crt_stdio_output@@@__crt_stdio_output@@IEAA_NXZ 0000000180041f4c f i libucrt:output.obj
 0001:000410a4       ?validate_and_update_state_at_beginning_of_format_character@?$positional_parameter_base@_WV?$string_output_adapter@_W@__crt_stdio_output@@@__crt_stdio_output@@IEAA_NXZ 00000001800420a4 f i libucrt:output.obj
 0001:000411fc       ?validate_and_update_state_at_beginning_of_format_character@?$standard_base@DV?$stream_output_adapter@D@__crt_stdio_output@@@__crt_stdio_output@@IEAA_NXZ 00000001800421fc f i libucrt:output.obj
 0001:00041200       ?validate_and_update_state_at_beginning_of_format_character@?$standard_base@DV?$string_output_adapter@D@__crt_stdio_output@@@__crt_stdio_output@@IEAA_NXZ 0000000180042200 f i libucrt:output.obj
 0001:00041204       ?validate_and_update_state_at_beginning_of_format_character@?$standard_base@_WV?$stream_output_adapter@_W@__crt_stdio_output@@@__crt_stdio_output@@IEAA_NXZ 0000000180042204 f i libucrt:output.obj
 0001:00041208       ?validate_and_update_state_at_beginning_of_format_character@?$standard_base@_WV?$string_output_adapter@_W@__crt_stdio_output@@@__crt_stdio_output@@IEAA_NXZ 0000000180042208 f i libucrt:output.obj
 0001:0004120c       ?validate_and_update_state_at_end_of_format_string@?$format_validation_base@DV?$stream_output_adapter@D@__crt_stdio_output@@@__crt_stdio_output@@IEAA_NXZ 000000018004220c f i libucrt:output.obj
 0001:00041254       ?validate_and_update_state_at_end_of_format_string@?$format_validation_base@DV?$string_output_adapter@D@__crt_stdio_output@@@__crt_stdio_output@@IEAA_NXZ 0000000180042254 f i libucrt:output.obj
 0001:0004129c       ?validate_and_update_state_at_end_of_format_string@?$format_validation_base@_WV?$stream_output_adapter@_W@__crt_stdio_output@@@__crt_stdio_output@@IEAA_NXZ 000000018004229c f i libucrt:output.obj
 0001:000412e4       ?validate_and_update_state_at_end_of_format_string@?$format_validation_base@_WV?$string_output_adapter@_W@__crt_stdio_output@@@__crt_stdio_output@@IEAA_NXZ 00000001800422e4 f i libucrt:output.obj
 0001:0004132c       ?validate_and_update_state_at_end_of_format_string@?$positional_parameter_base@DV?$stream_output_adapter@D@__crt_stdio_output@@@__crt_stdio_output@@IEAA_NXZ 000000018004232c f i libucrt:output.obj
 0001:000413e8       ?validate_and_update_state_at_end_of_format_string@?$positional_parameter_base@DV?$string_output_adapter@D@__crt_stdio_output@@@__crt_stdio_output@@IEAA_NXZ 00000001800423e8 f i libucrt:output.obj
 0001:000414a4       ?validate_and_update_state_at_end_of_format_string@?$positional_parameter_base@_WV?$stream_output_adapter@_W@__crt_stdio_output@@@__crt_stdio_output@@IEAA_NXZ 00000001800424a4 f i libucrt:output.obj
 0001:00041560       ?validate_and_update_state_at_end_of_format_string@?$positional_parameter_base@_WV?$string_output_adapter@_W@__crt_stdio_output@@@__crt_stdio_output@@IEAA_NXZ 0000000180042560 f i libucrt:output.obj
 0001:0004161c       ?validate_and_update_state_at_end_of_format_string@?$standard_base@DV?$stream_output_adapter@D@__crt_stdio_output@@@__crt_stdio_output@@IEBA_NXZ 000000018004261c f i libucrt:output.obj
 0001:00041620       ?validate_and_update_state_at_end_of_format_string@?$standard_base@DV?$string_output_adapter@D@__crt_stdio_output@@@__crt_stdio_output@@IEBA_NXZ 0000000180042620 f i libucrt:output.obj
 0001:00041624       ?validate_and_update_state_at_end_of_format_string@?$standard_base@_WV?$stream_output_adapter@_W@__crt_stdio_output@@@__crt_stdio_output@@IEBA_NXZ 0000000180042624 f i libucrt:output.obj
 0001:00041628       ?validate_and_update_state_at_end_of_format_string@?$standard_base@_WV?$string_output_adapter@_W@__crt_stdio_output@@@__crt_stdio_output@@IEBA_NXZ 0000000180042628 f i libucrt:output.obj
 0001:0004162c       ?validate_state_for_type_case_a@?$positional_parameter_base@DV?$stream_output_adapter@D@__crt_stdio_output@@@__crt_stdio_output@@IEAA_NXZ 000000018004262c f i libucrt:output.obj
 0001:00041710       ?validate_state_for_type_case_a@?$positional_parameter_base@DV?$string_output_adapter@D@__crt_stdio_output@@@__crt_stdio_output@@IEAA_NXZ 0000000180042710 f i libucrt:output.obj
 0001:000417f4       ?validate_state_for_type_case_a@?$positional_parameter_base@_WV?$stream_output_adapter@_W@__crt_stdio_output@@@__crt_stdio_output@@IEAA_NXZ 00000001800427f4 f i libucrt:output.obj
 0001:000418d8       ?validate_state_for_type_case_a@?$positional_parameter_base@_WV?$string_output_adapter@_W@__crt_stdio_output@@@__crt_stdio_output@@IEAA_NXZ 00000001800428d8 f i libucrt:output.obj
 0001:000419bc       ?validate_state_for_type_case_a@?$standard_base@DV?$stream_output_adapter@D@__crt_stdio_output@@@__crt_stdio_output@@IEBA_NXZ 00000001800429bc f i libucrt:output.obj
 0001:000419c0       ?validate_state_for_type_case_a@?$standard_base@DV?$string_output_adapter@D@__crt_stdio_output@@@__crt_stdio_output@@IEBA_NXZ 00000001800429c0 f i libucrt:output.obj
 0001:000419c4       ?validate_state_for_type_case_a@?$standard_base@_WV?$stream_output_adapter@_W@__crt_stdio_output@@@__crt_stdio_output@@IEBA_NXZ 00000001800429c4 f i libucrt:output.obj
 0001:000419c8       ?validate_state_for_type_case_a@?$standard_base@_WV?$string_output_adapter@_W@__crt_stdio_output@@@__crt_stdio_output@@IEBA_NXZ 00000001800429c8 f i libucrt:output.obj
 0001:000419cc       ?validate_stream_is_ansi_if_required@?$__acrt_stdio_char_traits@D@@SA_NQEAU_iobuf@@@Z 00000001800429cc f i libucrt:output.obj
 0001:00041a68       ?validate_stream_is_ansi_if_required@?$__acrt_stdio_char_traits@_W@@SA_NQEAU_iobuf@@@Z 0000000180042a68 f i libucrt:output.obj
 0001:00041a6c       ?wide_character_to_digit@__crt_strtox@@YAH_W@Z 0000000180042a6c f i libucrt:output.obj
 0001:00041c0c       ?wide_null_string@?$output_processor@DV?$stream_output_adapter@D@__crt_stdio_output@@V?$format_validation_base@DV?$stream_output_adapter@D@__crt_stdio_output@@@2@@__crt_stdio_output@@CAPEA_WXZ 0000000180042c0c f i libucrt:output.obj
 0001:00041c14       ?wide_null_string@?$output_processor@DV?$stream_output_adapter@D@__crt_stdio_output@@V?$positional_parameter_base@DV?$stream_output_adapter@D@__crt_stdio_output@@@2@@__crt_stdio_output@@CAPEA_WXZ 0000000180042c14 f i libucrt:output.obj
 0001:00041c1c       ?wide_null_string@?$output_processor@DV?$stream_output_adapter@D@__crt_stdio_output@@V?$standard_base@DV?$stream_output_adapter@D@__crt_stdio_output@@@2@@__crt_stdio_output@@CAPEA_WXZ 0000000180042c1c f i libucrt:output.obj
 0001:00041c24       ?wide_null_string@?$output_processor@DV?$string_output_adapter@D@__crt_stdio_output@@V?$format_validation_base@DV?$string_output_adapter@D@__crt_stdio_output@@@2@@__crt_stdio_output@@CAPEA_WXZ 0000000180042c24 f i libucrt:output.obj
 0001:00041c2c       ?wide_null_string@?$output_processor@DV?$string_output_adapter@D@__crt_stdio_output@@V?$positional_parameter_base@DV?$string_output_adapter@D@__crt_stdio_output@@@2@@__crt_stdio_output@@CAPEA_WXZ 0000000180042c2c f i libucrt:output.obj
 0001:00041c34       ?wide_null_string@?$output_processor@DV?$string_output_adapter@D@__crt_stdio_output@@V?$standard_base@DV?$string_output_adapter@D@__crt_stdio_output@@@2@@__crt_stdio_output@@CAPEA_WXZ 0000000180042c34 f i libucrt:output.obj
 0001:00041c3c       ?wide_null_string@?$output_processor@_WV?$stream_output_adapter@_W@__crt_stdio_output@@V?$format_validation_base@_WV?$stream_output_adapter@_W@__crt_stdio_output@@@2@@__crt_stdio_output@@CAPEA_WXZ 0000000180042c3c f i libucrt:output.obj
 0001:00041c44       ?wide_null_string@?$output_processor@_WV?$stream_output_adapter@_W@__crt_stdio_output@@V?$positional_parameter_base@_WV?$stream_output_adapter@_W@__crt_stdio_output@@@2@@__crt_stdio_output@@CAPEA_WXZ 0000000180042c44 f i libucrt:output.obj
 0001:00041c4c       ?wide_null_string@?$output_processor@_WV?$stream_output_adapter@_W@__crt_stdio_output@@V?$standard_base@_WV?$stream_output_adapter@_W@__crt_stdio_output@@@2@@__crt_stdio_output@@CAPEA_WXZ 0000000180042c4c f i libucrt:output.obj
 0001:00041c54       ?wide_null_string@?$output_processor@_WV?$string_output_adapter@_W@__crt_stdio_output@@V?$format_validation_base@_WV?$string_output_adapter@_W@__crt_stdio_output@@@2@@__crt_stdio_output@@CAPEA_WXZ 0000000180042c54 f i libucrt:output.obj
 0001:00041c5c       ?wide_null_string@?$output_processor@_WV?$string_output_adapter@_W@__crt_stdio_output@@V?$positional_parameter_base@_WV?$string_output_adapter@_W@__crt_stdio_output@@@2@@__crt_stdio_output@@CAPEA_WXZ 0000000180042c5c f i libucrt:output.obj
 0001:00041c64       ?wide_null_string@?$output_processor@_WV?$string_output_adapter@_W@__crt_stdio_output@@V?$standard_base@_WV?$string_output_adapter@_W@__crt_stdio_output@@@2@@__crt_stdio_output@@CAPEA_WXZ 0000000180042c64 f i libucrt:output.obj
 0001:00041c6c       ?write_character@?$output_adapter_common@DV?$stream_output_adapter@D@__crt_stdio_output@@@__crt_stdio_output@@QEBAXDQEAHAEAV__crt_cached_ptd_host@@@Z 0000000180042c6c f i libucrt:output.obj
 0001:00041cb8       ?write_character@?$output_adapter_common@_WV?$stream_output_adapter@_W@__crt_stdio_output@@@__crt_stdio_output@@QEBAX_WQEAHAEAV__crt_cached_ptd_host@@@Z 0000000180042cb8 f i libucrt:output.obj
 0001:00041d08       ?write_character@?$string_output_adapter@D@__crt_stdio_output@@QEBA_NDQEAHAEAV__crt_cached_ptd_host@@@Z 0000000180042d08 f i libucrt:output.obj
 0001:00041d50       ?write_character@?$string_output_adapter@_W@__crt_stdio_output@@QEBA_N_WQEAHAEAV__crt_cached_ptd_host@@@Z 0000000180042d50 f i libucrt:output.obj
 0001:00041d98       ?write_character_without_count_update@?$stream_output_adapter@D@__crt_stdio_output@@QEBA_NDAEAV__crt_cached_ptd_host@@@Z 0000000180042d98 f i libucrt:output.obj
 0001:00041dd8       ?write_character_without_count_update@?$stream_output_adapter@_W@__crt_stdio_output@@QEBA_N_WAEAV__crt_cached_ptd_host@@@Z 0000000180042dd8 f i libucrt:output.obj
 0001:00041e18       ?write_stored_string_tchar@?$output_processor@DV?$stream_output_adapter@D@__crt_stdio_output@@V?$format_validation_base@DV?$stream_output_adapter@D@__crt_stdio_output@@@2@@__crt_stdio_output@@AEAA_ND@Z 0000000180042e18 f i libucrt:output.obj
 0001:00041f3c       ?write_stored_string_tchar@?$output_processor@DV?$stream_output_adapter@D@__crt_stdio_output@@V?$positional_parameter_base@DV?$stream_output_adapter@D@__crt_stdio_output@@@2@@__crt_stdio_output@@AEAA_ND@Z 0000000180042f3c f i libucrt:output.obj
 0001:00042060       ?write_stored_string_tchar@?$output_processor@DV?$stream_output_adapter@D@__crt_stdio_output@@V?$standard_base@DV?$stream_output_adapter@D@__crt_stdio_output@@@2@@__crt_stdio_output@@AEAA_ND@Z 0000000180043060 f i libucrt:output.obj
 0001:00042184       ?write_stored_string_tchar@?$output_processor@DV?$string_output_adapter@D@__crt_stdio_output@@V?$format_validation_base@DV?$string_output_adapter@D@__crt_stdio_output@@@2@@__crt_stdio_output@@AEAA_ND@Z 0000000180043184 f i libucrt:output.obj
 0001:00042260       ?write_stored_string_tchar@?$output_processor@DV?$string_output_adapter@D@__crt_stdio_output@@V?$positional_parameter_base@DV?$string_output_adapter@D@__crt_stdio_output@@@2@@__crt_stdio_output@@AEAA_ND@Z 0000000180043260 f i libucrt:output.obj
 0001:0004233c       ?write_stored_string_tchar@?$output_processor@DV?$string_output_adapter@D@__crt_stdio_output@@V?$standard_base@DV?$string_output_adapter@D@__crt_stdio_output@@@2@@__crt_stdio_output@@AEAA_ND@Z 000000018004333c f i libucrt:output.obj
 0001:00042418       ?write_stored_string_tchar@?$output_processor@_WV?$stream_output_adapter@_W@__crt_stdio_output@@V?$format_validation_base@_WV?$stream_output_adapter@_W@__crt_stdio_output@@@2@@__crt_stdio_output@@AEAA_N_W@Z 0000000180043418 f i libucrt:output.obj
 0001:0004254c       ?write_stored_string_tchar@?$output_processor@_WV?$stream_output_adapter@_W@__crt_stdio_output@@V?$positional_parameter_base@_WV?$stream_output_adapter@_W@__crt_stdio_output@@@2@@__crt_stdio_output@@AEAA_N_W@Z 000000018004354c f i libucrt:output.obj
 0001:00042680       ?write_stored_string_tchar@?$output_processor@_WV?$stream_output_adapter@_W@__crt_stdio_output@@V?$standard_base@_WV?$stream_output_adapter@_W@__crt_stdio_output@@@2@@__crt_stdio_output@@AEAA_N_W@Z 0000000180043680 f i libucrt:output.obj
 0001:000427b4       ?write_stored_string_tchar@?$output_processor@_WV?$string_output_adapter@_W@__crt_stdio_output@@V?$format_validation_base@_WV?$string_output_adapter@_W@__crt_stdio_output@@@2@@__crt_stdio_output@@AEAA_N_W@Z 00000001800437b4 f i libucrt:output.obj
 0001:000428bc       ?write_stored_string_tchar@?$output_processor@_WV?$string_output_adapter@_W@__crt_stdio_output@@V?$positional_parameter_base@_WV?$string_output_adapter@_W@__crt_stdio_output@@@2@@__crt_stdio_output@@AEAA_N_W@Z 00000001800438bc f i libucrt:output.obj
 0001:000429c4       ?write_stored_string_tchar@?$output_processor@_WV?$string_output_adapter@_W@__crt_stdio_output@@V?$standard_base@_WV?$string_output_adapter@_W@__crt_stdio_output@@@2@@__crt_stdio_output@@AEAA_N_W@Z 00000001800439c4 f i libucrt:output.obj
 0001:00042acc       ?write_string@?$stream_output_adapter@D@__crt_stdio_output@@QEBAXQEBDHQEAHAEAV__crt_cached_ptd_host@@@Z 0000000180043acc f i libucrt:output.obj
 0001:00042af0       ?write_string@?$stream_output_adapter@_W@__crt_stdio_output@@QEBAXQEB_WHQEAHAEAV__crt_cached_ptd_host@@@Z 0000000180043af0 f i libucrt:output.obj
 0001:00042b14       ?write_string@?$string_output_adapter@D@__crt_stdio_output@@QEBAXQEBDHQEAHAEAV__crt_cached_ptd_host@@@Z 0000000180043b14 f i libucrt:output.obj
 0001:00042bb8       ?write_string@?$string_output_adapter@_W@__crt_stdio_output@@QEBAXQEB_WHQEAHAEAV__crt_cached_ptd_host@@@Z 0000000180043bb8 f i libucrt:output.obj
 0001:00042c60       ?write_string_impl@?$output_adapter_common@DV?$stream_output_adapter@D@__crt_stdio_output@@@__crt_stdio_output@@IEBAXQEBDHQEAHAEAV__crt_cached_ptd_host@@@Z 0000000180043c60 f i libucrt:output.obj
 0001:00042d2c       ?write_string_impl@?$output_adapter_common@_WV?$stream_output_adapter@_W@__crt_stdio_output@@@__crt_stdio_output@@IEBAXQEB_WHQEAHAEAV__crt_cached_ptd_host@@@Z 0000000180043d2c f i libucrt:output.obj
 0001:00042e08       __acrt_disable_global_locale_sync 0000000180043e08 f i libucrt:output.obj
 0001:00042e10       __acrt_isleadbyte_l_noupdate 0000000180043e10 f i libucrt:output.obj
 0001:00042e34       __acrt_locale_get_ctype_array_value 0000000180043e34 f i libucrt:output.obj
 0001:00042e4c       __ascii_iswalpha           0000000180043e4c f i libucrt:output.obj
 0001:00042e68       __ascii_toupper            0000000180043e68 f i libucrt:output.obj
 0001:00042e78       __ascii_towupper           0000000180043e78 f i libucrt:output.obj
 0001:00042e88       __stdio_common_vfprintf    0000000180043e88 f   libucrt:output.obj
 0001:00042fac       __stdio_common_vfprintf_p  0000000180043fac f   libucrt:output.obj
 0001:000430d0       __stdio_common_vfprintf_s  00000001800440d0 f   libucrt:output.obj
 0001:000431f4       __stdio_common_vfwprintf   00000001800441f4 f   libucrt:output.obj
 0001:00043318       __stdio_common_vfwprintf_p 0000000180044318 f   libucrt:output.obj
 0001:0004343c       __stdio_common_vfwprintf_s 000000018004443c f   libucrt:output.obj
 0001:00043560       __stdio_common_vsnprintf_s 0000000180044560 f   libucrt:output.obj
 0001:00043738       __stdio_common_vsnwprintf_s 0000000180044738 f   libucrt:output.obj
 0001:00043914       __stdio_common_vsprintf    0000000180044914 f   libucrt:output.obj
 0001:00043b68       __stdio_common_vsprintf_p  0000000180044b68 f   libucrt:output.obj
 0001:00043c20       __stdio_common_vsprintf_s  0000000180044c20 f   libucrt:output.obj
 0001:00043d34       __stdio_common_vswprintf   0000000180044d34 f   libucrt:output.obj
 0001:00043f90       __stdio_common_vswprintf_p 0000000180044f90 f   libucrt:output.obj
 0001:00044048       __stdio_common_vswprintf_s 0000000180045048 f   libucrt:output.obj
 0001:0004415c       _ctype_fast_check_internal 000000018004515c f i libucrt:output.obj
 0001:00044170       _isdigit_fast_internal     0000000180045170 f i libucrt:output.obj
 0001:00044184       _tolower_fast_internal     0000000180045184 f i libucrt:output.obj
 0001:00044198       wmemcpy                    0000000180045198 f i libucrt:wmemcpy_s.obj
 0001:000441b4       wmemcpy_s                  00000001800451b4 f   libucrt:wmemcpy_s.obj
 0001:00044230       wmemset                    0000000180045230 f i libucrt:wmemcpy_s.obj
 0001:00044254       free                       0000000180045254 f   libucrt:free.obj
 0001:00044268       ??0?$__crt_scoped_stack_ptr@_W@@QEAA@U?$__crt_scoped_stack_ptr_tag@_W@@@Z 0000000180045268 f i libucrt:wcsupr.obj
 0001:00044270       ??0?$__crt_scoped_stack_ptr_tag@_W@@QEAA@QEA_W@Z 0000000180045270 f i libucrt:wcsupr.obj
 0001:00044278       ??0_LocaleUpdate@@QEAA@QEAU__crt_locale_pointers@@@Z 0000000180045278 f i libucrt:wcsupr.obj
 0001:00044314       ??1?$__crt_scoped_stack_ptr@_W@@QEAA@XZ 0000000180045314 f i libucrt:wcsupr.obj
 0001:00044338       ??1_LocaleUpdate@@QEAA@XZ  0000000180045338 f i libucrt:wcsupr.obj
 0001:0004434c       ?GetLocaleT@_LocaleUpdate@@QEAAPEAU__crt_locale_pointers@@XZ 000000018004534c f i libucrt:wcsupr.obj
 0001:0004454c       ?get@?$__crt_scoped_stack_ptr@_W@@QEBAPEA_WXZ 000000018004554c f i libucrt:wcsupr.obj
 0001:00044550       _MallocaComputeSize        0000000180045550 f i libucrt:wcsupr.obj
 0001:00044560       _MarkAllocaS               0000000180045560 f i libucrt:wcsupr.obj
 0001:00044570       _freea_crt                 0000000180045570 f i libucrt:wcsupr.obj
 0001:00044590       _wcsupr                    0000000180045590 f   libucrt:wcsupr.obj
 0001:000445f8       _wcsupr_l                  00000001800455f8 f   libucrt:wcsupr.obj
 0001:00044618       _wcsupr_s                  0000000180045618 f   libucrt:wcsupr.obj
 0001:00044620       _wcsupr_s_l                0000000180045620 f   libucrt:wcsupr.obj
 0001:0004466c       malloc                     000000018004566c f   libucrt:malloc.obj
 0001:00044674       realloc                    0000000180045674 f   libucrt:realloc.obj
 0001:0004467c       ??$?B$$A6AXPEAXK0@Z@__crt_fast_encoded_nullptr_t@@QEBAP6AXPEAXK0@ZXZ 000000018004567c f i libucrt:exit.obj
 0001:000446ec       ??$__crt_fast_decode_pointer@P6AXPEAXK0@Z@@YAP6AXPEAXK0@ZQ6AX0K0@Z@Z 00000001800456ec f i libucrt:exit.obj
 0001:00044704       ??$__crt_fast_encode_pointer@P6AXPEAXK0@Z@@YAP6AXPEAXK0@ZQ6AX0K0@Z@Z 0000000180045704 f i libucrt:exit.obj
 0001:00044724       ??$__crt_get_proc_address@P6AXI@Z@@YAP6AXI@ZQEAUHINSTANCE__@@QEBD@Z 0000000180045724 f i libucrt:exit.obj
 0001:0004474c       ??0?$__crt_unique_handle_t@U__crt_hmodule_traits@@@@QEAA@QEAUHINSTANCE__@@@Z 000000018004574c f i libucrt:exit.obj
 0001:00044754       ??1?$__crt_unique_handle_t@U__crt_hmodule_traits@@@@QEAA@XZ 0000000180045754 f i libucrt:exit.obj
 0001:00044854       ?__acrt_select_exit_lock@@YA?AW4__acrt_lock_id@@XZ 0000000180045854 f i libucrt:exit.obj
 0001:0004485c       ?__crt_fast_encode_pointer@@YA?AU__crt_fast_encoded_nullptr_t@@$$T@Z 000000018004585c f i libucrt:exit.obj
 0001:00044870       ?close@?$__crt_unique_handle_t@U__crt_hmodule_traits@@@@QEAAXXZ 0000000180045870 f i libucrt:exit.obj
 0001:00044894       ?close@__crt_hmodule_traits@@SA_NPEAUHINSTANCE__@@@Z 0000000180045894 f i libucrt:exit.obj
 0001:000449a4       ?get@?$__crt_unique_handle_t@U__crt_hmodule_traits@@@@QEBAPEAUHINSTANCE__@@XZ 00000001800459a4 f i libucrt:exit.obj
 0001:000449a8       ?get_address_of@?$__crt_unique_handle_t@U__crt_hmodule_traits@@@@QEAAPEAPEAUHINSTANCE__@@XZ 00000001800459a8 f i libucrt:exit.obj
 0001:000449ac       ?get_invalid_value@__crt_hmodule_traits@@SAPEAUHINSTANCE__@@XZ 00000001800459ac f i libucrt:exit.obj
 0001:00044aa4       _Exit                      0000000180045aa4 f   libucrt:exit.obj
 0001:00044ab0       __acrt_initialize_thread_local_exit_callback 0000000180045ab0 f   libucrt:exit.obj
 0001:00044ab8       _c_exit                    0000000180045ab8 f   libucrt:exit.obj
 0001:00044ac8       _cexit                     0000000180045ac8 f   libucrt:exit.obj
 0001:00044ad8       _exit                      0000000180045ad8 f   libucrt:exit.obj
 0001:00044ae4       _is_c_termination_complete 0000000180045ae4 f   libucrt:exit.obj
 0001:00044aec       _register_thread_local_exe_atexit_callback 0000000180045aec f   libucrt:exit.obj
 0001:00044b2c       exit                       0000000180045b2c f   libucrt:exit.obj
 0001:00044b38       quick_exit                 0000000180045b38 f   libucrt:exit.obj
 0001:00044b44       _set_abort_behavior        0000000180045b44 f   libucrt:abort.obj
 0001:00044b60       abort                      0000000180045b60 f   libucrt:abort.obj
 0001:00044bb8       __iswcsym                  0000000180045bb8 f i libucrt:_wctype.obj
 0001:00044be4       __iswcsymf                 0000000180045be4 f i libucrt:_wctype.obj
 0001:00044c10       _isleadbyte_l              0000000180045c10 f i libucrt:_wctype.obj
 0001:00044c5c       _iswalnum_l                0000000180045c5c f i libucrt:_wctype.obj
 0001:00044c68       _iswalpha_l                0000000180045c68 f i libucrt:_wctype.obj
 0001:00044c74       _iswblank_l                0000000180045c74 f i libucrt:_wctype.obj
 0001:00044c8c       _iswcntrl_l                0000000180045c8c f i libucrt:_wctype.obj
 0001:00044c98       _iswcsym_l                 0000000180045c98 f i libucrt:_wctype.obj
 0001:00044cc4       _iswcsymf_l                0000000180045cc4 f i libucrt:_wctype.obj
 0001:00044cf0       _iswdigit_l                0000000180045cf0 f i libucrt:_wctype.obj
 0001:00044cfc       _iswgraph_l                0000000180045cfc f i libucrt:_wctype.obj
 0001:00044d08       _iswlower_l                0000000180045d08 f i libucrt:_wctype.obj
 0001:00044d14       _iswprint_l                0000000180045d14 f i libucrt:_wctype.obj
 0001:00044d20       _iswpunct_l                0000000180045d20 f i libucrt:_wctype.obj
 0001:00044d2c       _iswspace_l                0000000180045d2c f i libucrt:_wctype.obj
 0001:00044d38       _iswupper_l                0000000180045d38 f i libucrt:_wctype.obj
 0001:00044d44       _iswxdigit_l               0000000180045d44 f i libucrt:_wctype.obj
 0001:00044d50       isleadbyte                 0000000180045d50 f i libucrt:_wctype.obj
 0001:00044da0       iswalnum                   0000000180045da0 f i libucrt:_wctype.obj
 0001:00044dac       iswalpha                   0000000180045dac f i libucrt:_wctype.obj
 0001:00044db8       iswascii                   0000000180045db8 f i libucrt:_wctype.obj
 0001:00044dc8       iswblank                   0000000180045dc8 f i libucrt:_wctype.obj
 0001:00044de0       iswcntrl                   0000000180045de0 f i libucrt:_wctype.obj
 0001:00044dec       iswdigit                   0000000180045dec f i libucrt:_wctype.obj
 0001:00044df8       iswgraph                   0000000180045df8 f i libucrt:_wctype.obj
 0001:00044e04       iswlower                   0000000180045e04 f i libucrt:_wctype.obj
 0001:00044e10       iswprint                   0000000180045e10 f i libucrt:_wctype.obj
 0001:00044e1c       iswpunct                   0000000180045e1c f i libucrt:_wctype.obj
 0001:00044e28       iswspace                   0000000180045e28 f i libucrt:_wctype.obj
 0001:00044e34       iswupper                   0000000180045e34 f i libucrt:_wctype.obj
 0001:00044e40       iswxdigit                  0000000180045e40 f i libucrt:_wctype.obj
 0001:00044e4c       wcscmp                     0000000180045e4c f   libucrt:wcscmp.obj
 0001:00044e84       ??B?$__crt_scoped_stack_ptr@_W@@QEBA_NXZ 0000000180045e84 f i libucrt:wcslwr.obj
 0001:00045084       _wcslwr                    0000000180046084 f   libucrt:wcslwr.obj
 0001:000450ec       _wcslwr_l                  00000001800460ec f   libucrt:wcslwr.obj
 0001:0004510c       _wcslwr_s                  000000018004610c f   libucrt:wcslwr.obj
 0001:00045114       _wcslwr_s_l                0000000180046114 f   libucrt:wcslwr.obj
 0001:00045160       _wremove                   0000000180046160 f   libucrt:wunlink.obj
 0001:00045188       _wunlink                   0000000180046188 f   libucrt:wunlink.obj
 0001:00045190       ??$?RPEAU__crt_stdio_stream_data@@@__crt_internal_free_policy@@QEBAXQEBQEAU__crt_stdio_stream_data@@@Z 0000000180046190 f i libucrt:_file.obj
 0001:00045198       ??0?$__crt_unique_heap_ptr@PEAU__crt_stdio_stream_data@@U__crt_internal_free_policy@@@@QEAA@QEAPEAU__crt_stdio_stream_data@@@Z 0000000180046198 f i libucrt:_file.obj
 0001:000451a0       ??1?$__crt_unique_heap_ptr@PEAU__crt_stdio_stream_data@@U__crt_internal_free_policy@@@@QEAA@XZ 00000001800461a0 f i libucrt:_file.obj
 0001:000451bc       ?detach@?$__crt_unique_heap_ptr@PEAU__crt_stdio_stream_data@@U__crt_internal_free_policy@@@@QEAAPEAPEAU__crt_stdio_stream_data@@XZ 00000001800461bc f i libucrt:_file.obj
 0001:000451c4       ?release@?$__crt_unique_heap_ptr@PEAU__crt_stdio_stream_data@@U__crt_internal_free_policy@@@@QEAAXXZ 00000001800461c4 f i libucrt:_file.obj
 0001:000451e0       __acrt_initialize_stdio    00000001800461e0 f   libucrt:_file.obj
 0001:00045300       __acrt_iob_func            0000000180046300 f   libucrt:_file.obj
 0001:00045314       __acrt_uninitialize_stdio  0000000180046314 f   libucrt:_file.obj
 0001:00045370       _get_stream_buffer_pointers 0000000180046370 f   libucrt:_file.obj
 0001:000453b8       _lock_file                 00000001800463b8 f   libucrt:_file.obj
 0001:000453c4       _unlock_file               00000001800463c4 f   libucrt:_file.obj
 0001:00045580       fputws                     0000000180046580 f   libucrt:fputws.obj
 0001:000458b0       ??$open_file@AEBQEBDAEBQEBDAEBHPEAU_iobuf@@@?$__crt_char_traits@D@@SAPEAU_iobuf@@AEBQEBD0AEBH$$QEAPEAU1@@Z 00000001800468b0 f i libucrt:fopen.obj
 0001:000458c4       ??$open_file@AEBQEB_WAEBQEB_WAEBHPEAU_iobuf@@@?$__crt_char_traits@_W@@SAPEAU_iobuf@@AEBQEB_W0AEBH$$QEAPEAU1@@Z 00000001800468c4 f i libucrt:fopen.obj
 0001:000458d8       ?unlock@__crt_stdio_stream@@QEBAXXZ 00000001800468d8 f i libucrt:fopen.obj
 0001:000458e0       _fsopen                    00000001800468e0 f   libucrt:fopen.obj
 0001:000458e8       _wfopen                    00000001800468e8 f   libucrt:fopen.obj
 0001:000458f4       _wfopen_s                  00000001800468f4 f   libucrt:fopen.obj
 0001:0004594c       _wfsopen                   000000018004694c f   libucrt:fopen.obj
 0001:00045954       fopen                      0000000180046954 f   libucrt:fopen.obj
 0001:00045960       fopen_s                    0000000180046960 f   libucrt:fopen.obj
 0001:000459b8       ??$?R_W@__crt_internal_free_policy@@QEBAXQEB_W@Z 00000001800469b8 f i libucrt:wcsftime.obj
 0001:000459c0       ??$__crt_time_is_leap_year@H@@YA_NH@Z 00000001800469c0 f i libucrt:wcsftime.obj
 0001:00045a20       ??0?$__crt_unique_heap_ptr@_WU__crt_internal_free_policy@@@@QEAA@QEA_W@Z 0000000180046a20 f i libucrt:wcsftime.obj
 0001:00045a28       ??1?$__crt_unique_heap_ptr@_WU__crt_internal_free_policy@@@@QEAA@XZ 0000000180046a28 f i libucrt:wcsftime.obj
 0001:00045a44       ?__crt_get_2digit_year@@YAHH@Z 0000000180046a44 f i libucrt:wcsftime.obj
 0001:00045a68       ?__crt_get_century@@YAHH@Z 0000000180046a68 f i libucrt:wcsftime.obj
 0001:00045c3c       ?detach@?$__crt_unique_heap_ptr@_WU__crt_internal_free_policy@@@@QEAAPEA_WXZ 0000000180046c3c f i libucrt:wcsftime.obj
 0001:00046b2c       ?get@?$__crt_unique_heap_ptr@_WU__crt_internal_free_policy@@@@QEBAPEA_WXZ 0000000180047b2c f i libucrt:wcsftime.obj
 0001:00046b30       ?release@?$__crt_unique_heap_ptr@_WU__crt_internal_free_policy@@@@QEAAXXZ 0000000180047b30 f i libucrt:wcsftime.obj
 0001:00047278       _W_Getdays                 0000000180048278 f   libucrt:wcsftime.obj
 0001:00047404       _W_Getmonths               0000000180048404 f   libucrt:wcsftime.obj
 0001:00047590       _W_Gettnames               0000000180048590 f   libucrt:wcsftime.obj
 0001:00047c50       _Wcsftime                  0000000180048c50 f   libucrt:wcsftime.obj
 0001:00047c70       _Wcsftime_l                0000000180048c70 f   libucrt:wcsftime.obj
 0001:00047dfc       _invoke_watson_if_error    0000000180048dfc f i libucrt:wcsftime.obj
 0001:00047e30       _wcsftime_l                0000000180048e30 f   libucrt:wcsftime.obj
 0001:00047e50       wcsftime                   0000000180048e50 f   libucrt:wcsftime.obj
 0001:00047f8c       ?is_in_use@__crt_stdio_stream@@QEBA_NXZ 0000000180048f8c f i libucrt:fclose.obj
 0001:00047f98       _fclose_nolock             0000000180048f98 f   libucrt:fclose.obj
 0001:00048030       fclose                     0000000180049030 f   libucrt:fclose.obj
 0001:00048338       fputs                      0000000180049338 f   libucrt:fputs.obj
 0001:000484dc       ??$?RU__acrt_thread_parameter@@@__crt_internal_free_policy@@QEBAXQEBU__acrt_thread_parameter@@@Z 00000001800494dc f i libucrt:thread.obj
 0001:000485c4       ??0?$__crt_unique_heap_ptr@U__acrt_thread_parameter@@U__crt_internal_free_policy@@@@QEAA@QEAU__acrt_thread_parameter@@@Z 00000001800495c4 f i libucrt:thread.obj
 0001:000485d4       ??1?$__crt_unique_heap_ptr@U__acrt_thread_parameter@@U__crt_internal_free_policy@@@@QEAA@XZ 00000001800495d4 f i libucrt:thread.obj
 0001:00048748       ?detach@?$__crt_unique_heap_ptr@U__acrt_thread_parameter@@U__crt_internal_free_policy@@@@QEAAPEAU__acrt_thread_parameter@@XZ 0000000180049748 f i libucrt:thread.obj
 0001:00048764       ?release@?$__crt_unique_heap_ptr@U__acrt_thread_parameter@@U__crt_internal_free_policy@@@@QEAAXXZ 0000000180049764 f i libucrt:thread.obj
 0001:000487cc       _beginthread               00000001800497cc f   libucrt:thread.obj
 0001:00048898       _beginthreadex             0000000180049898 f   libucrt:thread.obj
 0001:0004896c       _endthread                 000000018004996c f   libucrt:thread.obj
 0001:00048978       _endthreadex               0000000180049978 f   libucrt:thread.obj
 0001:00048984       ??$?B$$A6AXH@Z@__crt_fast_encoded_nullptr_t@@QEBAP6AXH@ZXZ 0000000180049984 f i libucrt:signal.obj
 0001:000489fc       ??$__crt_fast_decode_pointer@P6AXH@Z@@YAP6AXH@ZQ6AXH@Z@Z 00000001800499fc f i libucrt:signal.obj
 0001:00048a14       ??$__crt_fast_encode_pointer@P6AXH@Z@@YAP6AXH@ZQ6AXH@Z@Z 0000000180049a14 f i libucrt:signal.obj
 0001:00048b44       ?initialize@?$dual_state_global@P6AXH@Z@__crt_state_management@@QEAAXQ6AXH@Z@Z 0000000180049b44 f i libucrt:signal.obj
 0001:00048bc8       ?value@?$dual_state_global@P6AXH@Z@__crt_state_management@@QEAAAEAP6AXH@ZXZ 0000000180049bc8 f i libucrt:signal.obj
 0001:00048bcc       __acrt_get_sigabrt_handler 0000000180049bcc f   libucrt:signal.obj
 0001:00048bfc       __acrt_initialize_signal_handlers 0000000180049bfc f   libucrt:signal.obj
 0001:00048c1c       __fpecode                  0000000180049c1c f   libucrt:signal.obj
 0001:00048c30       __pxcptinfoptrs            0000000180049c30 f   libucrt:signal.obj
 0001:00048c44       raise                      0000000180049c44 f   libucrt:signal.obj
 0001:00048ec4       signal                     0000000180049ec4 f   libucrt:signal.obj
 0001:000496d0       ??$gmtime_s@AEBQEAUtm@@AEBQEBJ@?$__crt_integer_traits@J@@SAHAEBQEAUtm@@AEBQEBJ@Z 000000018004a6d0 f i libucrt:localtime.obj
 0001:000496dc       ??$gmtime_s@AEBQEAUtm@@AEBQEB_J@?$__crt_integer_traits@_J@@SAHAEBQEAUtm@@AEBQEB_J@Z 000000018004a6dc f i libucrt:localtime.obj
 0001:000496e8       ??$gmtime_s@AEBQEAUtm@@PEAJ@?$__crt_integer_traits@J@@SAHAEBQEAUtm@@$$QEAPEAJ@Z 000000018004a6e8 f i libucrt:localtime.obj
 0001:000496f4       ??$gmtime_s@AEBQEAUtm@@PEA_J@?$__crt_integer_traits@_J@@SAHAEBQEAUtm@@$$QEAPEA_J@Z 000000018004a6f4 f i libucrt:localtime.obj
 0001:00049700       ??$localtime_s@AEBQEAUtm@@AEBQEBJ@?$__crt_integer_traits@J@@SAHAEBQEAUtm@@AEBQEBJ@Z 000000018004a700 f i libucrt:localtime.obj
 0001:0004970c       ??$localtime_s@AEBQEAUtm@@AEBQEB_J@?$__crt_integer_traits@_J@@SAHAEBQEAUtm@@AEBQEB_J@Z 000000018004a70c f i libucrt:localtime.obj
 0001:00049718       _localtime32               000000018004a718 f   libucrt:localtime.obj
 0001:00049760       _localtime32_s             000000018004a760 f   libucrt:localtime.obj
 0001:00049768       _localtime64               000000018004a768 f   libucrt:localtime.obj
 0001:000497b0       _localtime64_s             000000018004a7b0 f   libucrt:localtime.obj
 0001:00049ae8       _time32                    000000018004aae8 f   libucrt:time.obj
 0001:00049b54       _time64                    000000018004ab54 f   libucrt:time.obj
 0001:00049bc4       _timespec32_get            000000018004abc4 f   libucrt:time.obj
 0001:00049c5c       _timespec64_get            000000018004ac5c f   libucrt:time.obj
 0001:00049d0c       _get_terminate             000000018004ad0c f   libucrt:terminate.obj
 0001:00049d30       set_terminate              000000018004ad30 f   libucrt:terminate.obj
 0001:00049d5c       terminate                  000000018004ad5c f   libucrt:terminate.obj
 0001:00049d88       _recalloc                  000000018004ad88 f   libucrt:recalloc.obj
 0001:00049d90       _recalloc_base             000000018004ad90 f   libucrt:recalloc.obj
 0001:00049e28       ??$?B$$A6AH_K@Z@__crt_fast_encoded_nullptr_t@@QEBAP6AH_K@ZXZ 000000018004ae28 f i libucrt:new_handler.obj
 0001:00049e30       ??$__crt_fast_decode_pointer@P6AH_K@Z@@YAP6AH_K@ZQ6AH0@Z@Z 000000018004ae30 f i libucrt:new_handler.obj
 0001:00049e48       ??$__crt_fast_encode_pointer@P6AH_K@Z@@YAP6AH_K@ZQ6AH0@Z@Z 000000018004ae48 f i libucrt:new_handler.obj
 0001:00049e68       ?_set_new_handler@@YAP6AH_K@ZH@Z 000000018004ae68 f   libucrt:new_handler.obj
 0001:00049e74       ?initialize@?$dual_state_global@P6AH_K@Z@__crt_state_management@@QEAAXQ6AH_K@Z@Z 000000018004ae74 f i libucrt:new_handler.obj
 0001:00049e84       ?value@?$dual_state_global@P6AH_K@Z@__crt_state_management@@QEAAAEAP6AH_K@ZXZ 000000018004ae84 f i libucrt:new_handler.obj
 0001:00049e88       __acrt_initialize_new_handler 000000018004ae88 f   libucrt:new_handler.obj
 0001:00049e90       _callnewh                  000000018004ae90 f   libucrt:new_handler.obj
 0001:00049ecc       _query_new_handler         000000018004aecc f   libucrt:new_handler.obj
 0001:00049f00       _set_new_handler           000000018004af00 f   libucrt:new_handler.obj
 0001:00049f7c       _seh_filter_dll            000000018004af7c f   libucrt:exception_filter.obj
 0001:00049f90       _seh_filter_exe            000000018004af90 f   libucrt:exception_filter.obj
 0001:0004a114       ??$?RE@__crt_internal_free_policy@@QEBAXQEBE@Z 000000018004b114 f i libucrt:argv_parsing.obj
 0001:0004a11c       ??$?RPEAD@__crt_internal_free_policy@@QEBAXQEBQEAD@Z 000000018004b11c f i libucrt:argv_parsing.obj
 0001:0004a124       ??$?RPEA_W@__crt_internal_free_policy@@QEBAXQEBQEA_W@Z 000000018004b124 f i libucrt:argv_parsing.obj
 0001:0004a420       ??$get_module_file_name@$$TAEAY0BAF@DH@?$__crt_char_traits@D@@SAK$$QEA$$TAEAY0BAF@D$$QEAH@Z 000000018004b420 f i libucrt:argv_parsing.obj
 0001:0004a42c       ??$get_module_file_name@$$TAEAY0BAF@_WH@?$__crt_char_traits@_W@@SAK$$QEA$$TAEAY0BAF@_W$$QEAH@Z 000000018004b42c f i libucrt:argv_parsing.obj
 0001:0004a7a0       ??$set_program_name@PEAD@?$__crt_char_traits@D@@SAX$$QEAPEAD@Z 000000018004b7a0 f i libucrt:argv_parsing.obj
 0001:0004a7ac       ??$set_program_name@PEA_W@?$__crt_char_traits@_W@@SAX$$QEAPEA_W@Z 000000018004b7ac f i libucrt:argv_parsing.obj
 0001:0004a7c8       ??0?$__crt_unique_heap_ptr@EU__crt_internal_free_policy@@@@QEAA@QEAE@Z 000000018004b7c8 f i libucrt:argv_parsing.obj
 0001:0004a7d0       ??0?$__crt_unique_heap_ptr@PEADU__crt_internal_free_policy@@@@QEAA@QEAPEAD@Z 000000018004b7d0 f i libucrt:argv_parsing.obj
 0001:0004a7d8       ??0?$__crt_unique_heap_ptr@PEA_WU__crt_internal_free_policy@@@@QEAA@QEAPEA_W@Z 000000018004b7d8 f i libucrt:argv_parsing.obj
 0001:0004a7e0       ??1?$__crt_unique_heap_ptr@EU__crt_internal_free_policy@@@@QEAA@XZ 000000018004b7e0 f i libucrt:argv_parsing.obj
 0001:0004a7fc       ??1?$__crt_unique_heap_ptr@PEADU__crt_internal_free_policy@@@@QEAA@XZ 000000018004b7fc f i libucrt:argv_parsing.obj
 0001:0004a818       ??1?$__crt_unique_heap_ptr@PEA_WU__crt_internal_free_policy@@@@QEAA@XZ 000000018004b818 f i libucrt:argv_parsing.obj
 0001:0004a834       ??B?$__crt_unique_heap_ptr@EU__crt_internal_free_policy@@@@QEBA_NXZ 000000018004b834 f i libucrt:argv_parsing.obj
 0001:0004a874       ?detach@?$__crt_unique_heap_ptr@EU__crt_internal_free_policy@@@@QEAAPEAEXZ 000000018004b874 f i libucrt:argv_parsing.obj
 0001:0004a87c       ?detach@?$__crt_unique_heap_ptr@PEADU__crt_internal_free_policy@@@@QEAAPEAPEADXZ 000000018004b87c f i libucrt:argv_parsing.obj
 0001:0004a884       ?detach@?$__crt_unique_heap_ptr@PEA_WU__crt_internal_free_policy@@@@QEAAPEAPEA_WXZ 000000018004b884 f i libucrt:argv_parsing.obj
 0001:0004a8a8       ?get@?$__crt_unique_heap_ptr@EU__crt_internal_free_policy@@@@QEBAPEAEXZ 000000018004b8a8 f i libucrt:argv_parsing.obj
 0001:0004a8ac       ?get@?$__crt_unique_heap_ptr@PEADU__crt_internal_free_policy@@@@QEBAPEAPEADXZ 000000018004b8ac f i libucrt:argv_parsing.obj
 0001:0004a8b0       ?get@?$__crt_unique_heap_ptr@PEA_WU__crt_internal_free_policy@@@@QEBAPEAPEA_WXZ 000000018004b8b0 f i libucrt:argv_parsing.obj
 0001:0004a8b4       ?get_address_of@?$__crt_unique_heap_ptr@PEADU__crt_internal_free_policy@@@@QEAAPEAPEAPEADXZ 000000018004b8b4 f i libucrt:argv_parsing.obj
 0001:0004a8b8       ?get_address_of@?$__crt_unique_heap_ptr@PEA_WU__crt_internal_free_policy@@@@QEAAPEAPEAPEA_WXZ 000000018004b8b8 f i libucrt:argv_parsing.obj
 0001:0004a8dc       ?is_valid@?$__crt_unique_heap_ptr@EU__crt_internal_free_policy@@@@QEBA_NXZ 000000018004b8dc f i libucrt:argv_parsing.obj
 0001:0004a8e4       ?release@?$__crt_unique_heap_ptr@EU__crt_internal_free_policy@@@@QEAAXXZ 000000018004b8e4 f i libucrt:argv_parsing.obj
 0001:0004a900       ?release@?$__crt_unique_heap_ptr@PEADU__crt_internal_free_policy@@@@QEAAXXZ 000000018004b900 f i libucrt:argv_parsing.obj
 0001:0004a91c       ?release@?$__crt_unique_heap_ptr@PEA_WU__crt_internal_free_policy@@@@QEAAXXZ 000000018004b91c f i libucrt:argv_parsing.obj
 0001:0004a954       __acrt_allocate_buffer_for_argv 000000018004b954 f   libucrt:argv_parsing.obj
 0001:0004a9b4       _configure_narrow_argv     000000018004b9b4 f   libucrt:argv_parsing.obj
 0001:0004ab3c       _configure_wide_argv       000000018004bb3c f   libucrt:argv_parsing.obj
 0001:0004acc0       _set_pgmptr                000000018004bcc0 f i libucrt:argv_parsing.obj
 0001:0004acc8       _set_wpgmptr               000000018004bcc8 f i libucrt:argv_parsing.obj
 0001:0004b1f0       ??$get_environment_from_os@$$V@?$__crt_char_traits@D@@SAPEADXZ 000000018004c1f0 f i libucrt:environment_initialization.obj
 0001:0004b1f8       ??$get_environment_from_os@$$V@?$__crt_char_traits@_W@@SAPEA_WXZ 000000018004c1f8 f i libucrt:environment_initialization.obj
 0001:0004b39c       ??$set_variable_in_environment_nolock@PEADH@?$__crt_char_traits@D@@SAH$$QEAPEAD$$QEAH@Z 000000018004c39c f i libucrt:environment_initialization.obj
 0001:0004b3a8       ??$set_variable_in_environment_nolock@PEA_WH@?$__crt_char_traits@_W@@SAH$$QEAPEA_W$$QEAH@Z 000000018004c3a8 f i libucrt:environment_initialization.obj
 0001:0004b3b4       ??$tcscpy_s@PEADAEB_KAEAPEAD@?$__crt_char_traits@D@@SAH$$QEAPEADAEB_KAEAPEAD@Z 000000018004c3b4 f i libucrt:environment_initialization.obj
 0001:0004b3c4       ??$tcscpy_s@PEA_WAEB_KAEAPEA_W@?$__crt_char_traits@_W@@SAH$$QEAPEA_WAEB_KAEAPEA_W@Z 000000018004c3c4 f i libucrt:environment_initialization.obj
 0001:0004b3d4       ??$tcslen@AEAPEAD@?$__crt_char_traits@D@@SA_KAEAPEAD@Z 000000018004c3d4 f i libucrt:environment_initialization.obj
 0001:0004b3e8       ??$tcslen@AEAPEA_W@?$__crt_char_traits@_W@@SA_KAEAPEA_W@Z 000000018004c3e8 f i libucrt:environment_initialization.obj
 0001:0004b3fc       ??$uninitialize@A6AXAEAPEAPEAD@_E@?$dual_state_global@PEAPEAD@__crt_state_management@@QEAAXA6AXAEAPEAPEAD@_E@Z 000000018004c3fc f i libucrt:environment_initialization.obj
 0001:0004b454       ??$uninitialize@A6AXAEAPEAPEA_W@_E@?$dual_state_global@PEAPEA_W@__crt_state_management@@QEAAXA6AXAEAPEAPEA_W@_E@Z 000000018004c454 f i libucrt:environment_initialization.obj
 0001:0004b4e4       ??B?$__crt_unique_heap_ptr@PEADU__crt_internal_free_policy@@@@QEBA_NXZ 000000018004c4e4 f i libucrt:environment_initialization.obj
 0001:0004b4ec       ??B?$__crt_unique_heap_ptr@PEA_WU__crt_internal_free_policy@@@@QEBA_NXZ 000000018004c4ec f i libucrt:environment_initialization.obj
 0001:0004b4f4       ??B?$__crt_unique_heap_ptr@_WU__crt_internal_free_policy@@@@QEBA_NXZ 000000018004c4f4 f i libucrt:environment_initialization.obj
 0001:0004b4fc       ?__crt_compute_required_transform_buffer_count@@YA_KIQEBD@Z 000000018004c4fc f i libucrt:environment_initialization.obj
 0001:0004b520       ?__crt_compute_required_transform_buffer_count@@YA_KIQEB_W@Z 000000018004c520 f i libucrt:environment_initialization.obj
 0001:0004b550       ?__crt_transform_string@@YA_KIQEBDQEA_W_K@Z 000000018004c550 f i libucrt:environment_initialization.obj
 0001:0004b574       ?__crt_transform_string@@YA_KIQEB_WQEAD_K@Z 000000018004c574 f i libucrt:environment_initialization.obj
 0001:0004b5a4       ?detach@?$__crt_unique_heap_ptr@DU__crt_internal_free_policy@@@@QEAAPEADXZ 000000018004c5a4 f i libucrt:environment_initialization.obj
 0001:0004b5dc       ?initialize@?$dual_state_global@PEAPEAD@__crt_state_management@@QEAAXQEAPEAD@Z 000000018004c5dc f i libucrt:environment_initialization.obj
 0001:0004b5ec       ?initialize@?$dual_state_global@PEAPEA_W@__crt_state_management@@QEAAXQEAPEA_W@Z 000000018004c5ec f i libucrt:environment_initialization.obj
 0001:0004b5fc       ?is_valid@?$__crt_unique_heap_ptr@PEADU__crt_internal_free_policy@@@@QEBA_NXZ 000000018004c5fc f i libucrt:environment_initialization.obj
 0001:0004b604       ?is_valid@?$__crt_unique_heap_ptr@PEA_WU__crt_internal_free_policy@@@@QEBA_NXZ 000000018004c604 f i libucrt:environment_initialization.obj
 0001:0004b60c       ?is_valid@?$__crt_unique_heap_ptr@_WU__crt_internal_free_policy@@@@QEBA_NXZ 000000018004c60c f i libucrt:environment_initialization.obj
 0001:0004b620       ?value@?$dual_state_global@PEAPEAD@__crt_state_management@@QEAAAEAPEAPEADXZ 000000018004c620 f i libucrt:environment_initialization.obj
 0001:0004b624       ?value@?$dual_state_global@PEAPEA_W@__crt_state_management@@QEAAAEAPEAPEA_WXZ 000000018004c624 f i libucrt:environment_initialization.obj
 0001:0004b628       __dcrt_get_or_create_narrow_environment_nolock 000000018004c628 f   libucrt:environment_initialization.obj
 0001:0004b664       __dcrt_get_or_create_wide_environment_nolock 000000018004c664 f   libucrt:environment_initialization.obj
 0001:0004b6a0       __dcrt_uninitialize_environments_nolock 000000018004c6a0 f   libucrt:environment_initialization.obj
 0001:0004b6e4       __p__environ               000000018004c6e4 f   libucrt:environment_initialization.obj
 0001:0004b6ec       __p__wenviron              000000018004c6ec f   libucrt:environment_initialization.obj
 0001:0004b6f4       _get_initial_narrow_environment 000000018004c6f4 f   libucrt:environment_initialization.obj
 0001:0004b744       _get_initial_wide_environment 000000018004c744 f   libucrt:environment_initialization.obj
 0001:0004b794       _initialize_narrow_environment 000000018004c794 f   libucrt:environment_initialization.obj
 0001:0004b79c       _initialize_wide_environment 000000018004c79c f   libucrt:environment_initialization.obj
 0001:0004b7a4       ??$?B$$A6AXXZ@__crt_fast_encoded_nullptr_t@@QEBAP6AXXZXZ 000000018004c7a4 f i libucrt:onexit.obj
 0001:0004b7ac       ??$?BP6AXXZ@__crt_fast_encoded_nullptr_t@@QEBAPEAP6AXXZXZ 000000018004c7ac f i libucrt:onexit.obj
 0001:0004b7b4       ??$?RP6AXXZ@__crt_internal_free_policy@@QEBAXQEBQ6AXXZ@Z 000000018004c7b4 f i libucrt:onexit.obj
 0001:0004b88c       ??$__crt_fast_decode_pointer@P6AXXZ@@YAP6AXXZQ6AXXZ@Z 000000018004c88c f i libucrt:onexit.obj
 0001:0004b8a4       ??$__crt_fast_decode_pointer@PEAP6AXXZ@@YAPEAP6AXXZQEAP6AXXZ@Z 000000018004c8a4 f i libucrt:onexit.obj
 0001:0004b8bc       ??$__crt_fast_encode_pointer@P6AHXZ@@YAP6AHXZQ6AHXZ@Z 000000018004c8bc f i libucrt:onexit.obj
 0001:0004b8dc       ??$__crt_fast_encode_pointer@P6AXXZ@@YAP6AXXZQ6AXXZ@Z 000000018004c8dc f i libucrt:onexit.obj
 0001:0004b8fc       ??$__crt_fast_encode_pointer@PEAP6AXXZ@@YAPEAP6AXXZQEAP6AXXZ@Z 000000018004c8fc f i libucrt:onexit.obj
 0001:0004b950       ??0?$__crt_unique_heap_ptr@P6AXXZU__crt_internal_free_policy@@@@QEAA@QEAP6AXXZ@Z 000000018004c950 f i libucrt:onexit.obj
 0001:0004b958       ??1?$__crt_unique_heap_ptr@P6AXXZU__crt_internal_free_policy@@@@QEAA@XZ 000000018004c958 f i libucrt:onexit.obj
 0001:0004b974       ??1scoped_global_state_reset@__crt_state_management@@QEAA@XZ 000000018004c974 f i libucrt:onexit.obj
 0001:0004bc68       ?detach@?$__crt_unique_heap_ptr@P6AXXZU__crt_internal_free_policy@@@@QEAAPEAP6AXXZXZ 000000018004cc68 f i libucrt:onexit.obj
 0001:0004bc70       ?release@?$__crt_unique_heap_ptr@P6AXXZU__crt_internal_free_policy@@@@QEAAXXZ 000000018004cc70 f i libucrt:onexit.obj
 0001:0004bc8c       _crt_at_quick_exit         000000018004cc8c f   libucrt:onexit.obj
 0001:0004bc9c       _crt_atexit                000000018004cc9c f   libucrt:onexit.obj
 0001:0004bcac       _execute_onexit_table      000000018004ccac f   libucrt:onexit.obj
 0001:0004bcf0       _initialize_onexit_table   000000018004ccf0 f   libucrt:onexit.obj
 0001:0004bd18       _register_onexit_function  000000018004cd18 f   libucrt:onexit.obj
 0001:0004bea0       ??$?BX@__crt_fast_encoded_nullptr_t@@QEBAPEAXXZ 000000018004cea0 f i libucrt:initialization.obj
 0001:0004bea8       ??$__crt_fast_encode_pointer@PEAX@@YAPEAXQEAX@Z 000000018004cea8 f i libucrt:initialization.obj
 0001:0004bf64       ?__acrt_stdio_is_initialized@@YA_NXZ 000000018004cf64 f i libucrt:initialization.obj
 0001:0004bf70       ?initialize@?$dual_state_global@PEAU__crt_locale_data@@@__crt_state_management@@QEAAXQEAU__crt_locale_data@@@Z 000000018004cf70 f i libucrt:initialization.obj
 0001:0004bf80       __acrt_initialize          000000018004cf80 f   libucrt:initialization.obj
 0001:0004bf94       __acrt_thread_attach       000000018004cf94 f   libucrt:initialization.obj
 0001:0004bfa8       __acrt_thread_detach       000000018004cfa8 f   libucrt:initialization.obj
 0001:0004bfb8       __acrt_uninitialize        000000018004cfb8 f   libucrt:initialization.obj
 0001:0004bff0       __acrt_uninitialize_critical 000000018004cff0 f   libucrt:initialization.obj
 0001:0004c000       _initterm                  000000018004d000 f   libucrt:initterm.obj
 0001:0004c044       _initterm_e                000000018004d044 f   libucrt:initterm.obj
 0001:0004c0f0       strcpy_s                   000000018004d0f0 f   libucrt:strcpy_s.obj
 0001:0004c150       calloc                     000000018004d150 f   libucrt:calloc.obj
 0001:0004c158       ??$is_overflow_condition@_K@__crt_strtox@@YA_NI_K@Z 000000018004d158 f i libucrt:atox.obj
 0001:0004c188       ??$make_c_string_character_source@D$$T@__crt_strtox@@YA?AV?$c_string_character_source@D@0@QEBD$$T@Z 000000018004d188 f i libucrt:atox.obj
 0001:0004c19c       ??$make_c_string_character_source@_W$$T@__crt_strtox@@YA?AV?$c_string_character_source@_W@0@QEB_W$$T@Z 000000018004d19c f i libucrt:atox.obj
 0001:0004c1b0       ??$parse_integer@KV?$c_string_character_source@D@__crt_strtox@@$00@__crt_strtox@@YAKAEAV__crt_cached_ptd_host@@V?$c_string_character_source@D@0@H_N@Z 000000018004d1b0 f i libucrt:atox.obj
 0001:0004c490       ??$parse_integer@KV?$c_string_character_source@_W@__crt_strtox@@$00@__crt_strtox@@YAKAEAV__crt_cached_ptd_host@@V?$c_string_character_source@_W@0@H_N@Z 000000018004d490 f i libucrt:atox.obj
 0001:0004cc18       ??$parse_integer@_KV?$c_string_character_source@D@__crt_strtox@@$00@__crt_strtox@@YA_KAEAV__crt_cached_ptd_host@@V?$c_string_character_source@D@0@H_N@Z 000000018004dc18 f i libucrt:atox.obj
 0001:0004cef4       ??$parse_integer@_KV?$c_string_character_source@_W@__crt_strtox@@$00@__crt_strtox@@YA_KAEAV__crt_cached_ptd_host@@V?$c_string_character_source@_W@0@H_N@Z 000000018004def4 f i libucrt:atox.obj
 0001:0004d66c       ??$parse_integer_from_string@JD$$T@__crt_strtox@@YAJQEBD$$THQEAU__crt_locale_pointers@@@Z 000000018004e66c f i libucrt:atox.obj
 0001:0004d728       ??$parse_integer_from_string@J_W$$T@__crt_strtox@@YAJQEB_W$$THQEAU__crt_locale_pointers@@@Z 000000018004e728 f i libucrt:atox.obj
 0001:0004d7e4       ??$parse_integer_from_string@_JD$$T@__crt_strtox@@YA_JQEBD$$THQEAU__crt_locale_pointers@@@Z 000000018004e7e4 f i libucrt:atox.obj
 0001:0004d8a4       ??$parse_integer_from_string@_J_W$$T@__crt_strtox@@YA_JQEB_W$$THQEAU__crt_locale_pointers@@@Z 000000018004e8a4 f i libucrt:atox.obj
 0001:0004d964       ?is_space@__crt_strtox@@YA_NDQEAU__crt_locale_pointers@@@Z 000000018004e964 f i libucrt:atox.obj
 0001:0004d984       ?is_space@__crt_strtox@@YA_N_WPEAU__crt_locale_pointers@@@Z 000000018004e984 f i libucrt:atox.obj
 0001:0004d99c       ?maximum_signed_value@__crt_strtox@@YA_J_K@Z 000000018004e99c f i libucrt:atox.obj
 0001:0004d9a8       ?minimum_signed_value@__crt_strtox@@YA_J_K@Z 000000018004e9a8 f i libucrt:atox.obj
 0001:0004d9b4       __acrt_get_locale_data_prefix 000000018004e9b4 f i libucrt:atox.obj
 0001:0004d9b8       _atoi64                    000000018004e9b8 f   libucrt:atox.obj
 0001:0004da6c       _atoi64_l                  000000018004ea6c f   libucrt:atox.obj
 0001:0004db28       _atoi_l                    000000018004eb28 f   libucrt:atox.obj
 0001:0004dbe4       _atol_l                    000000018004ebe4 f   libucrt:atox.obj
 0001:0004dca0       _atoll_l                   000000018004eca0 f   libucrt:atox.obj
 0001:0004dd5c       _chvalidchk_l              000000018004ed5c f i libucrt:atox.obj
 0001:0004ddc0       _ischartype_l              000000018004edc0 f i libucrt:atox.obj
 0001:0004de38       _wtoi                      000000018004ee38 f   libucrt:atox.obj
 0001:0004dee8       _wtoi64                    000000018004eee8 f   libucrt:atox.obj
 0001:0004df9c       _wtoi64_l                  000000018004ef9c f   libucrt:atox.obj
 0001:0004e058       _wtoi_l                    000000018004f058 f   libucrt:atox.obj
 0001:0004e114       _wtol                      000000018004f114 f   libucrt:atox.obj
 0001:0004e1c4       _wtol_l                    000000018004f1c4 f   libucrt:atox.obj
 0001:0004e280       _wtoll                     000000018004f280 f   libucrt:atox.obj
 0001:0004e334       _wtoll_l                   000000018004f334 f   libucrt:atox.obj
 0001:0004e3f0       atoi                       000000018004f3f0 f   libucrt:atox.obj
 0001:0004e4a0       atol                       000000018004f4a0 f   libucrt:atox.obj
 0001:0004e550       atoll                      000000018004f550 f   libucrt:atox.obj
 0001:0004e620       strncmp                    000000018004f620 f   libucrt:strncmp.obj
 0001:0004e6a0       ??$?RU__acrt_ptd@@@__crt_internal_free_policy@@QEBAXQEBU__acrt_ptd@@@Z 000000018004f6a0 f i libucrt:per_thread_data.obj
 0001:0004e8d4       ??0?$__crt_unique_heap_ptr@U__acrt_ptd@@U__crt_internal_free_policy@@@@QEAA@QEAU__acrt_ptd@@@Z 000000018004f8d4 f i libucrt:per_thread_data.obj
 0001:0004e8dc       ??1?$__crt_unique_heap_ptr@U__acrt_ptd@@U__crt_internal_free_policy@@@@QEAA@XZ 000000018004f8dc f i libucrt:per_thread_data.obj
 0001:0004e8f8       ??B?$__crt_unique_heap_ptr@U__acrt_ptd@@U__crt_internal_free_policy@@@@QEBA_NXZ 000000018004f8f8 f i libucrt:per_thread_data.obj
 0001:0004eb4c       ?dangerous_get_state_array@?$dual_state_global@PEAU__crt_locale_data@@@__crt_state_management@@QEAAPEAPEAU__crt_locale_data@@XZ 000000018004fb4c f i libucrt:per_thread_data.obj
 0001:0004ed60       ?detach@?$__crt_unique_heap_ptr@U__acrt_ptd@@U__crt_internal_free_policy@@@@QEAAPEAU__acrt_ptd@@XZ 000000018004fd60 f i libucrt:per_thread_data.obj
 0001:0004ed68       ?get@?$__crt_unique_heap_ptr@U__acrt_ptd@@U__crt_internal_free_policy@@@@QEBAPEAU__acrt_ptd@@XZ 000000018004fd68 f i libucrt:per_thread_data.obj
 0001:0004ef88       ?is_valid@?$__crt_unique_heap_ptr@U__acrt_ptd@@U__crt_internal_free_policy@@@@QEBA_NXZ 000000018004ff88 f i libucrt:per_thread_data.obj
 0001:0004ef90       ?release@?$__crt_unique_heap_ptr@U__acrt_ptd@@U__crt_internal_free_policy@@@@QEAAXXZ 000000018004ff90 f i libucrt:per_thread_data.obj
 0001:0004f034       ?value@?$dual_state_global@PEAU__crt_locale_data@@@__crt_state_management@@QEAAAEAPEAU__crt_locale_data@@XZ 0000000180050034 f i libucrt:per_thread_data.obj
 0001:0004f038       __acrt_freeptd             0000000180050038 f   libucrt:per_thread_data.obj
 0001:0004f07c       __acrt_getptd              000000018005007c f   libucrt:per_thread_data.obj
 0001:0004f150       __acrt_getptd_head         0000000180050150 f   libucrt:per_thread_data.obj
 0001:0004f1f4       __acrt_getptd_noexit       00000001800501f4 f   libucrt:per_thread_data.obj
 0001:0004f2bc       __acrt_getptd_noexit_explicit 00000001800502bc f   libucrt:per_thread_data.obj
 0001:0004f37c       __acrt_initialize_ptd      000000018005037c f   libucrt:per_thread_data.obj
 0001:0004f3b8       __acrt_uninitialize_ptd    00000001800503b8 f   libucrt:per_thread_data.obj
 0001:0004f3dc       __threadhandle             00000001800503dc f   libucrt:per_thread_data.obj
 0001:0004f3e4       __threadid                 00000001800503e4 f   libucrt:per_thread_data.obj
 0001:0004f3f0       ??$?RU__crt_locale_data@@@__crt_internal_free_policy@@QEBAXQEBU__crt_locale_data@@@Z 00000001800503f0 f i libucrt:wsetlocale.obj
 0001:0004f3f8       ??$?RU__crt_locale_pointers@@@__crt_internal_free_policy@@QEBAXQEBU__crt_locale_pointers@@@Z 00000001800503f8 f i libucrt:wsetlocale.obj
 0001:0004f400       ??$?RU__crt_multibyte_data@@@__crt_internal_free_policy@@QEBAXQEBU__crt_multibyte_data@@@Z 0000000180050400 f i libucrt:wsetlocale.obj
 0001:0004f804       ??0?$__crt_unique_heap_ptr@U__crt_locale_data@@U__crt_internal_free_policy@@@@QEAA@QEAU__crt_locale_data@@@Z 0000000180050804 f i libucrt:wsetlocale.obj
 0001:0004f80c       ??0?$__crt_unique_heap_ptr@U__crt_locale_pointers@@U__crt_internal_free_policy@@@@QEAA@QEAU__crt_locale_pointers@@@Z 000000018005080c f i libucrt:wsetlocale.obj
 0001:0004f814       ??0?$__crt_unique_heap_ptr@U__crt_multibyte_data@@U__crt_internal_free_policy@@@@QEAA@QEAU__crt_multibyte_data@@@Z 0000000180050814 f i libucrt:wsetlocale.obj
 0001:0004f81c       ??0_expandlocale_locale_name_cache@@QEAA@QEA_W_KQEAU__crt_qualified_locale_data@@@Z 000000018005081c f i libucrt:wsetlocale.obj
 0001:0004f878       ??1?$__crt_unique_heap_ptr@U__crt_locale_data@@U__crt_internal_free_policy@@@@QEAA@XZ 0000000180050878 f i libucrt:wsetlocale.obj
 0001:0004f894       ??1?$__crt_unique_heap_ptr@U__crt_locale_pointers@@U__crt_internal_free_policy@@@@QEAA@XZ 0000000180050894 f i libucrt:wsetlocale.obj
 0001:0004f8b0       ??1?$__crt_unique_heap_ptr@U__crt_multibyte_data@@U__crt_internal_free_policy@@@@QEAA@XZ 00000001800508b0 f i libucrt:wsetlocale.obj
 0001:0004f8cc       ??1_expandlocale_locale_name_cache@@QEAA@XZ 00000001800508cc f i libucrt:wsetlocale.obj
 0001:0004f914       ??B?$__crt_unique_heap_ptr@U__crt_locale_data@@U__crt_internal_free_policy@@@@QEBA_NXZ 0000000180050914 f i libucrt:wsetlocale.obj
 0001:0004f91c       ??B?$__crt_unique_heap_ptr@U__crt_locale_pointers@@U__crt_internal_free_policy@@@@QEBA_NXZ 000000018005091c f i libucrt:wsetlocale.obj
 0001:0004f924       ??B?$__crt_unique_heap_ptr@U__crt_multibyte_data@@U__crt_internal_free_policy@@@@QEBA_NXZ 0000000180050924 f i libucrt:wsetlocale.obj
 0001:0004fba4       ?commit_locale_name@_expandlocale_locale_name_cache@@QEAAXQEB_W_K@Z 0000000180050ba4 f i libucrt:wsetlocale.obj
 0001:0004fc1c       ?commit_locale_name_cache_already_updated@_expandlocale_locale_name_cache@@QEAAXQEB_W_K@Z 0000000180050c1c f i libucrt:wsetlocale.obj
 0001:0004fc5c       ?detach@?$__crt_unique_heap_ptr@U__crt_locale_data@@U__crt_internal_free_policy@@@@QEAAPEAU__crt_locale_data@@XZ 0000000180050c5c f i libucrt:wsetlocale.obj
 0001:0004fc64       ?detach@?$__crt_unique_heap_ptr@U__crt_locale_pointers@@U__crt_internal_free_policy@@@@QEAAPEAU__crt_locale_pointers@@XZ 0000000180050c64 f i libucrt:wsetlocale.obj
 0001:0004fc6c       ?detach@?$__crt_unique_heap_ptr@U__crt_multibyte_data@@U__crt_internal_free_policy@@@@QEAAPEAU__crt_multibyte_data@@XZ 0000000180050c6c f i libucrt:wsetlocale.obj
 0001:0004fc74       ?get@?$__crt_unique_heap_ptr@U__crt_locale_data@@U__crt_internal_free_policy@@@@QEBAPEAU__crt_locale_data@@XZ 0000000180050c74 f i libucrt:wsetlocale.obj
 0001:0004fc78       ?get@?$__crt_unique_heap_ptr@U__crt_locale_pointers@@U__crt_internal_free_policy@@@@QEBAPEAU__crt_locale_pointers@@XZ 0000000180050c78 f i libucrt:wsetlocale.obj
 0001:0004fc7c       ?get@?$__crt_unique_heap_ptr@U__crt_multibyte_data@@U__crt_internal_free_policy@@@@QEBAPEAU__crt_multibyte_data@@XZ 0000000180050c7c f i libucrt:wsetlocale.obj
 0001:0004fc80       ?is_valid@?$__crt_unique_heap_ptr@U__crt_locale_data@@U__crt_internal_free_policy@@@@QEBA_NXZ 0000000180050c80 f i libucrt:wsetlocale.obj
 0001:0004fc88       ?is_valid@?$__crt_unique_heap_ptr@U__crt_locale_pointers@@U__crt_internal_free_policy@@@@QEBA_NXZ 0000000180050c88 f i libucrt:wsetlocale.obj
 0001:0004fc90       ?is_valid@?$__crt_unique_heap_ptr@U__crt_multibyte_data@@U__crt_internal_free_policy@@@@QEBA_NXZ 0000000180050c90 f i libucrt:wsetlocale.obj
 0001:0004fc98       ?release@?$__crt_unique_heap_ptr@U__crt_locale_data@@U__crt_internal_free_policy@@@@QEAAXXZ 0000000180050c98 f i libucrt:wsetlocale.obj
 0001:0004fcb4       ?release@?$__crt_unique_heap_ptr@U__crt_locale_pointers@@U__crt_internal_free_policy@@@@QEAAXXZ 0000000180050cb4 f i libucrt:wsetlocale.obj
 0001:0004fcd0       ?release@?$__crt_unique_heap_ptr@U__crt_multibyte_data@@U__crt_internal_free_policy@@@@QEAAXXZ 0000000180050cd0 f i libucrt:wsetlocale.obj
 0001:0004fcec       __acrt_copy_locale_name    0000000180050cec f   libucrt:wsetlocale.obj
 0001:0004fd70       __acrt_set_locale_changed  0000000180050d70 f   libucrt:wsetlocale.obj
 0001:0004fd7c       __acrt_uninitialize_locale 0000000180050d7c f   libucrt:wsetlocale.obj
 0001:0004fdac       __ascii_tolower            0000000180050dac f i libucrt:wsetlocale.obj
 0001:0004fdbc       __ascii_towlower           0000000180050dbc f i libucrt:wsetlocale.obj
 0001:0004fdcc       __lc_lctowcs               0000000180050dcc f   libucrt:wsetlocale.obj
 0001:0004fe70       __lc_wcstolc               0000000180050e70 f   libucrt:wsetlocale.obj
 0001:0004ffd8       _configthreadlocale        0000000180050fd8 f   libucrt:wsetlocale.obj
 0001:00050104       _create_locale             0000000180051104 f   libucrt:wsetlocale.obj
 0001:000505fc       _free_locale               00000001800515fc f   libucrt:wsetlocale.obj
 0001:000506a0       _get_current_locale        00000001800516a0 f   libucrt:wsetlocale.obj
 0001:0005075c       _wcreate_locale            000000018005175c f   libucrt:wsetlocale.obj
 0001:000508a4       _wcscats                   00000001800518a4 f   libucrt:wsetlocale.obj
 0001:0005090c       _wsetlocale                000000018005190c f   libucrt:wsetlocale.obj
 0001:00051734       __p___mb_cur_max           0000000180052734 f   libucrt:nlsdata.obj
 0001:0005176c       _free_base                 000000018005276c f   libucrt:free_base.obj
 0001:000517a8       _malloc_base               00000001800527a8 f   libucrt:malloc_base.obj
 0001:00051808       ?value@?$dual_state_global@PEAU__crt_multibyte_data@@@__crt_state_management@@QEAAAEAPEAU__crt_multibyte_data@@XZ 0000000180052808 f i libucrt:locale_update.obj
 0001:0005180c       ?value_explicit@?$dual_state_global@PEAU__crt_locale_data@@@__crt_state_management@@QEAAAEAPEAU__crt_locale_data@@_K@Z 000000018005280c f i libucrt:locale_update.obj
 0001:00051814       ?value_explicit@?$dual_state_global@PEAU__crt_multibyte_data@@@__crt_state_management@@QEAAAEAPEAU__crt_multibyte_data@@_K@Z 0000000180052814 f i libucrt:locale_update.obj
 0001:0005181c       __acrt_should_sync_with_global_locale 000000018005281c f i libucrt:locale_update.obj
 0001:0005182c       __acrt_update_locale_info  000000018005282c f   libucrt:locale_update.obj
 0001:00051860       __acrt_update_locale_info_explicit 0000000180052860 f   libucrt:locale_update.obj
 0001:00051898       __acrt_update_multibyte_info 0000000180052898 f   libucrt:locale_update.obj
 0001:000518cc       __acrt_update_multibyte_info_explicit 00000001800528cc f   libucrt:locale_update.obj
 0001:00051904       ?__acrt_fp_classify@@YA?AW4__acrt_fp_class@@AEBN@Z 0000000180052904 f i libucrt:cvt.obj
 0001:00051960       ?__acrt_fp_is_negative@@YA_NAEBN@Z 0000000180052960 f i libucrt:cvt.obj
 0001:000525e8       ?strrchr@@YAPEADQEADH@Z    00000001800535e8 f i libucrt:cvt.obj
 0001:000525f0       __acrt_fp_format           00000001800535f0 f   libucrt:cvt.obj
 0001:000528d8       ?value_or@?$cached@H@__crt_cached_ptd_host@@QEBAHH@Z 00000001800538d8 f i libucrt:wctomb.obj
 0001:000528e4       _wctomb_internal           00000001800538e4 f   libucrt:wctomb.obj
 0001:00052a94       _wctomb_l                  0000000180053a94 f   libucrt:wctomb.obj
 0001:00052b80       _wctomb_s_l                0000000180053b80 f   libucrt:wctomb.obj
 0001:00052c30       wctomb                     0000000180053c30 f   libucrt:wctomb.obj
 0001:00052cf8       wctomb_s                   0000000180053cf8 f   libucrt:wctomb.obj
 0001:00052d98       _isleadbyte_fast_internal  0000000180053d98 f i libucrt:mbtowc.obj
 0001:00052db0       _mbtowc_internal           0000000180053db0 f   libucrt:mbtowc.obj
 0001:00052f28       _mbtowc_l                  0000000180053f28 f   libucrt:mbtowc.obj
 0001:00052fcc       mbtowc                     0000000180053fcc f   libucrt:mbtowc.obj
 0001:00053064       ?lowio_handle@__crt_stdio_stream@@QEBAHXZ 0000000180054064 f i libucrt:fileno.obj
 0001:0005306c       _fileno                    000000018005406c f   libucrt:fileno.obj
 0001:00053094       _get_printf_count_output   0000000180054094 f   libucrt:printf_count_output.obj
 0001:000530ac       _set_printf_count_output   00000001800540ac f   libucrt:printf_count_output.obj
 0001:00053170       _fputwc_nolock             0000000180054170 f   libucrt:fputwc.obj
 0001:0005320c       _fputwc_nolock_internal    000000018005420c f   libucrt:fputwc.obj
 0001:00053398       _fputwchar                 0000000180054398 f   libucrt:fputwc.obj
 0001:000533bc       _putwc_nolock              00000001800543bc f   libucrt:fputwc.obj
 0001:000533c4       fputwc                     00000001800543c4 f   libucrt:fputwc.obj
 0001:00053460       putwc                      0000000180054460 f   libucrt:fputwc.obj
 0001:00053468       putwchar                   0000000180054468 f   libucrt:fputwc.obj
 0001:000535cc       _fputc_nolock              00000001800545cc f   libucrt:fputc.obj
 0001:00053678       _fputc_nolock_internal     0000000180054678 f   libucrt:fputc.obj
 0001:00053690       _fputchar                  0000000180054690 f   libucrt:fputc.obj
 0001:000536b4       _putc_nolock               00000001800546b4 f   libucrt:fputc.obj
 0001:000536bc       fputc                      00000001800546bc f   libucrt:fputc.obj
 0001:00053754       putc                       0000000180054754 f   libucrt:fputc.obj
 0001:0005375c       putchar                    000000018005475c f   libucrt:fputc.obj
 0001:00053764       ?has_any_buffer@__crt_stdio_stream@@QEBA_NXZ 0000000180054764 f i libucrt:_sftbuf.obj
 0001:00053774       ?has_any_of@__crt_stdio_stream@@QEBA_NJ@Z 0000000180054774 f i libucrt:_sftbuf.obj
 0001:00053780       ?has_temporary_buffer@__crt_stdio_stream@@QEBA_NXZ 0000000180054780 f i libucrt:_sftbuf.obj
 0001:0005378c       ?set_flags@__crt_stdio_stream@@QEBA_NJ@Z 000000018005478c f i libucrt:_sftbuf.obj
 0001:000537ac       ?unset_flags@__crt_stdio_stream@@QEBA_NJ@Z 00000001800547ac f i libucrt:_sftbuf.obj
 0001:000537d4       __acrt_should_use_temporary_buffer 00000001800547d4 f   libucrt:_sftbuf.obj
 0001:0005381c       __acrt_stdio_begin_temporary_buffering_nolock 000000018005481c f   libucrt:_sftbuf.obj
 0001:000538e4       __acrt_stdio_end_temporary_buffering_nolock 00000001800548e4 f   libucrt:_sftbuf.obj
 0001:00053b34       __acrt_initialize_lowio    0000000180054b34 f   libucrt:ioinit.obj
 0001:00053b70       __acrt_uninitialize_lowio  0000000180054b70 f   libucrt:ioinit.obj
 0001:00053bb0       __acrt_LCMapStringW        0000000180054bb0 f   libucrt:lcmapstringw.obj
 0001:00053c38       _realloc_base              0000000180054c38 f   libucrt:realloc_base.obj
 0001:00053cb4       __acrt_initialize_locks    0000000180054cb4 f   libucrt:locks.obj
 0001:00053cfc       __acrt_lock                0000000180054cfc f   libucrt:locks.obj
 0001:00053d18       __acrt_uninitialize_locks  0000000180054d18 f   libucrt:locks.obj
 0001:00053d50       __acrt_unlock              0000000180054d50 f   libucrt:locks.obj
 0001:00053d6c       _lock_locales              0000000180054d6c f   libucrt:locks.obj
 0001:00053d88       _unlock_locales            0000000180054d88 f   libucrt:locks.obj
 0001:00053f40       __acrt_get_begin_thread_init_policy 0000000180054f40 f   libucrt:win_policies.obj
 0001:00053f94       __acrt_get_developer_information_policy 0000000180054f94 f   libucrt:win_policies.obj
 0001:00053fe8       __acrt_get_process_end_policy 0000000180054fe8 f   libucrt:win_policies.obj
 0001:00054024       __acrt_get_windowing_model_policy 0000000180055024 f   libucrt:win_policies.obj
 0001:00054090       _iswctype_l                0000000180055090 f   libucrt:iswctype.obj
 0001:00054098       iswctype                   0000000180055098 f   libucrt:iswctype.obj
 0001:00054104       _calloc_base               0000000180055104 f   libucrt:calloc_base.obj
 0001:000541b0       ??$?B$$A6AHPEA_WK_J@Z@__crt_fast_encoded_nullptr_t@@QEBAP6AHPEA_WK_J@ZXZ 00000001800551b0 f i libucrt:winapi_thunks.obj
 0001:0005425c       ??$__crt_fast_decode_pointer@P6AHPEA_WK_J@Z@@YAP6AHPEA_WK_J@ZQ6AH0K1@Z@Z 000000018005525c f i libucrt:winapi_thunks.obj
 0001:00054274       ??$__crt_fast_decode_pointer@PEAX@@YAPEAXQEAX@Z 0000000180055274 f i libucrt:winapi_thunks.obj
 0001:0005428c       ??$__crt_fast_encode_pointer@P6AHPEA_WK_J@Z@@YAP6AHPEA_WK_J@ZQ6AH0K1@Z@Z 000000018005528c f i libucrt:winapi_thunks.obj
 0001:00054ce8       GetCurrentThreadEffectiveToken 0000000180055ce8 f i libucrt:winapi_thunks.obj
 0001:00054cf0       __acrt_AppPolicyGetProcessTerminationMethodInternal 0000000180055cf0 f   libucrt:winapi_thunks.obj
 0001:00054d48       __acrt_AppPolicyGetShowDeveloperDiagnosticInternal 0000000180055d48 f   libucrt:winapi_thunks.obj
 0001:00054da0       __acrt_AppPolicyGetThreadInitializationTypeInternal 0000000180055da0 f   libucrt:winapi_thunks.obj
 0001:00054df8       __acrt_AppPolicyGetWindowingModelInternal 0000000180055df8 f   libucrt:winapi_thunks.obj
 0001:00054e50       __acrt_AreFileApisANSI     0000000180055e50 f   libucrt:winapi_thunks.obj
 0001:00054e94       __acrt_CompareStringEx     0000000180055e94 f   libucrt:winapi_thunks.obj
 0001:00054f80       __acrt_EnumSystemLocalesEx 0000000180055f80 f   libucrt:winapi_thunks.obj
 0001:00055020       __acrt_FlsAlloc            0000000180056020 f   libucrt:winapi_thunks.obj
 0001:00055028       __acrt_FlsFree             0000000180056028 f   libucrt:winapi_thunks.obj
 0001:00055030       __acrt_FlsGetValue         0000000180056030 f   libucrt:winapi_thunks.obj
 0001:00055038       __acrt_FlsSetValue         0000000180056038 f   libucrt:winapi_thunks.obj
 0001:00055040       __acrt_GetDateFormatEx     0000000180056040 f   libucrt:winapi_thunks.obj
 0001:00055100       __acrt_GetEnabledXStateFeatures 0000000180056100 f   libucrt:winapi_thunks.obj
 0001:00055144       __acrt_GetLocaleInfoEx     0000000180056144 f   libucrt:winapi_thunks.obj
 0001:000551d4       __acrt_GetSystemTimePreciseAsFileTime 00000001800561d4 f   libucrt:winapi_thunks.obj
 0001:0005522c       __acrt_GetTimeFormatEx     000000018005622c f   libucrt:winapi_thunks.obj
 0001:000552e0       __acrt_GetUserDefaultLocaleName 00000001800562e0 f   libucrt:winapi_thunks.obj
 0001:0005534c       __acrt_GetXStateFeaturesMask 000000018005634c f   libucrt:winapi_thunks.obj
 0001:000553a8       __acrt_InitializeCriticalSectionEx 00000001800563a8 f   libucrt:winapi_thunks.obj
 0001:00055418       __acrt_IsValidLocaleName   0000000180056418 f   libucrt:winapi_thunks.obj
 0001:0005547c       __acrt_LCIDToLocaleName    000000018005647c f   libucrt:winapi_thunks.obj
 0001:00055500       __acrt_LCMapStringEx       0000000180056500 f   libucrt:winapi_thunks.obj
 0001:000555ec       __acrt_LocaleNameToLCID    00000001800565ec f   libucrt:winapi_thunks.obj
 0001:0005564c       __acrt_LocateXStateFeature 000000018005664c f   libucrt:winapi_thunks.obj
 0001:000556b8       __acrt_MessageBoxA         00000001800566b8 f   libucrt:winapi_thunks.obj
 0001:00055734       __acrt_MessageBoxW         0000000180056734 f   libucrt:winapi_thunks.obj
 0001:000557b0       __acrt_RoInitialize        00000001800567b0 f   libucrt:winapi_thunks.obj
 0001:000557fc       __acrt_RoUninitialize      00000001800567fc f   libucrt:winapi_thunks.obj
 0001:0005583c       __acrt_RtlGenRandom        000000018005683c f   libucrt:winapi_thunks.obj
 0001:00055898       __acrt_SetThreadStackGuarantee 0000000180056898 f   libucrt:winapi_thunks.obj
 0001:000558e4       __acrt_can_show_message_box 00000001800568e4 f   libucrt:winapi_thunks.obj
 0001:00055954       __acrt_can_use_vista_locale_apis 0000000180056954 f   libucrt:winapi_thunks.obj
 0001:00055984       __acrt_can_use_xstate_apis 0000000180056984 f   libucrt:winapi_thunks.obj
 0001:000559b4       __acrt_eagerly_load_locale_apis 00000001800569b4 f   libucrt:winapi_thunks.obj
 0001:00055b10       __acrt_get_parent_window   0000000180056b10 f   libucrt:winapi_thunks.obj
 0001:00055b9c       __acrt_initialize_winapi_thunks 0000000180056b9c f   libucrt:winapi_thunks.obj
 0001:00055bc0       __acrt_is_interactive      0000000180056bc0 f   libucrt:winapi_thunks.obj
 0001:00055ca0       __acrt_uninitialize_winapi_thunks 0000000180056ca0 f   libucrt:winapi_thunks.obj
 0001:00055ce4       ??0__crt_stdio_stream@@QEAA@QEAU__crt_stdio_stream_data@@@Z 0000000180056ce4 f i libucrt:closeall.obj
 0001:00055cec       _fcloseall                 0000000180056cec f   libucrt:closeall.obj
 0001:000561a8       ?__acrt_stdio_reset_buffer@@YAXV__crt_stdio_stream@@@Z 00000001800571a8 f i libucrt:fflush.obj
 0001:00056294       ?has_all_of@__crt_stdio_stream@@QEBA_NJ@Z 0000000180057294 f i libucrt:fflush.obj
 0001:000562e0       __acrt_stdio_flush_nolock  00000001800572e0 f   libucrt:fflush.obj
 0001:0005636c       _fflush_nolock             000000018005736c f   libucrt:fflush.obj
 0001:00056440       _flushall                  0000000180057440 f   libucrt:fflush.obj
 0001:00056448       fflush                     0000000180057448 f   libucrt:fflush.obj
 0001:000564b0       ?has_crt_buffer@__crt_stdio_stream@@QEBA_NXZ 00000001800574b0 f i libucrt:_freebuf.obj
 0001:000564bc       __acrt_stdio_free_buffer_nolock 00000001800574bc f   libucrt:_freebuf.obj
 0001:000564fc       ??$?RU__crt_stdio_stream_data@@@__crt_internal_free_policy@@QEBAXQEBU__crt_stdio_stream_data@@@Z 00000001800574fc f i libucrt:stream.obj
 0001:00056504       ??0?$__crt_unique_heap_ptr@U__crt_stdio_stream_data@@U__crt_internal_free_policy@@@@QEAA@QEAU__crt_stdio_stream_data@@@Z 0000000180057504 f i libucrt:stream.obj
 0001:0005650c       ??0__crt_stdio_stream@@QEAA@XZ 000000018005750c f i libucrt:stream.obj
 0001:00056514       ??1?$__crt_unique_heap_ptr@U__crt_stdio_stream_data@@U__crt_internal_free_policy@@@@QEAA@XZ 0000000180057514 f i libucrt:stream.obj
 0001:00056530       ?__acrt_stdio_allocate_stream@@YA?AV__crt_stdio_stream@@XZ 0000000180057530 f   libucrt:stream.obj
 0001:00056588       ?__acrt_stdio_free_stream@@YAXV__crt_stdio_stream@@@Z 0000000180057588 f   libucrt:stream.obj
 0001:000565a4       ?deallocate@__crt_stdio_stream@@QEAAXXZ 00000001800575a4 f i libucrt:stream.obj
 0001:000565b0       ?detach@?$__crt_unique_heap_ptr@U__crt_stdio_stream_data@@U__crt_internal_free_policy@@@@QEAAPEAU__crt_stdio_stream_data@@XZ 00000001800575b0 f i libucrt:stream.obj
 0001:000566a4       ?lock@__crt_stdio_stream@@QEBAXXZ 00000001800576a4 f i libucrt:stream.obj
 0001:000566ac       ?release@?$__crt_unique_heap_ptr@U__crt_stdio_stream_data@@U__crt_internal_free_policy@@@@QEAAXXZ 00000001800576ac f i libucrt:stream.obj
 0001:000566c8       ?try_allocate@__crt_stdio_stream@@QEAA_NXZ 00000001800576c8 f i libucrt:stream.obj
 0001:000566e8       ??$__acrt_stdio_parse_mode@D@@YA?AU__acrt_stdio_stream_mode@@QEBD@Z 00000001800576e8 f i libucrt:openfile.obj
 0001:000569ac       ??$__acrt_stdio_parse_mode@_W@@YA?AU__acrt_stdio_stream_mode@@QEB_W@Z 00000001800579ac f i libucrt:openfile.obj
 0001:00056de0       ??$tcsncmp@AEAPEBDAEAY02$$CBD_K@?$__crt_char_traits@D@@SAHAEAPEBDAEAY02$$CBD$$QEA_K@Z 0000000180057de0 f i libucrt:openfile.obj
 0001:00056dec       ??$tcsncmp@AEAPEB_WAEAY02$$CB_W_K@?$__crt_char_traits@_W@@SAHAEAPEB_WAEAY02$$CB_W$$QEA_K@Z 0000000180057dec f i libucrt:openfile.obj
 0001:00056df8       ??$tcsnicmp@AEAPEBDAEAY04$$CBD_K@?$__crt_char_traits@D@@SAHAEAPEBDAEAY04$$CBD$$QEA_K@Z 0000000180057df8 f i libucrt:openfile.obj
 0001:00056e04       ??$tcsnicmp@AEAPEBDAEAY06$$CBD_K@?$__crt_char_traits@D@@SAHAEAPEBDAEAY06$$CBD$$QEA_K@Z 0000000180057e04 f i libucrt:openfile.obj
 0001:00056e10       ??$tcsnicmp@AEAPEBDAEAY07$$CBD_K@?$__crt_char_traits@D@@SAHAEAPEBDAEAY07$$CBD$$QEA_K@Z 0000000180057e10 f i libucrt:openfile.obj
 0001:00056e1c       ??$tcsnicmp@AEAPEB_WAEAY04$$CB_W_K@?$__crt_char_traits@_W@@SAHAEAPEB_WAEAY04$$CB_W$$QEA_K@Z 0000000180057e1c f i libucrt:openfile.obj
 0001:00056e28       ??$tcsnicmp@AEAPEB_WAEAY06$$CB_W_K@?$__crt_char_traits@_W@@SAHAEAPEB_WAEAY06$$CB_W$$QEA_K@Z 0000000180057e28 f i libucrt:openfile.obj
 0001:00056e34       ??$tcsnicmp@AEAPEB_WAEAY07$$CB_W_K@?$__crt_char_traits@_W@@SAHAEAPEB_WAEAY07$$CB_W$$QEA_K@Z 0000000180057e34 f i libucrt:openfile.obj
 0001:00056e40       ??$tsopen_s@PEAHAEBQEBDAEBHAEBHH@?$__crt_char_traits@D@@SAH$$QEAPEAHAEBQEBDAEBH2$$QEAH@Z 0000000180057e40 f i libucrt:openfile.obj
 0001:00056e60       ??$tsopen_s@PEAHAEBQEB_WAEBHAEBHH@?$__crt_char_traits@_W@@SAH$$QEAPEAHAEBQEB_WAEBH2$$QEAH@Z 0000000180057e60 f i libucrt:openfile.obj
 0001:00056e80       ?__acrt_stdio_parse_mode_D@@YA_NAEAU__acrt_stdio_stream_mode@@@Z 0000000180057e80 f i libucrt:openfile.obj
 0001:00056e94       ?__acrt_stdio_parse_mode_N@@YA_NAEAU__acrt_stdio_stream_mode@@@Z 0000000180057e94 f i libucrt:openfile.obj
 0001:00056e9c       ?__acrt_stdio_parse_mode_R@@YA_NAEAU__acrt_stdio_stream_mode@@AEA_N@Z 0000000180057e9c f i libucrt:openfile.obj
 0001:00056eb0       ?__acrt_stdio_parse_mode_S@@YA_NAEAU__acrt_stdio_stream_mode@@AEA_N@Z 0000000180057eb0 f i libucrt:openfile.obj
 0001:00056ec4       ?__acrt_stdio_parse_mode_T@@YA_NAEAU__acrt_stdio_stream_mode@@@Z 0000000180057ec4 f i libucrt:openfile.obj
 0001:00056edc       ?__acrt_stdio_parse_mode_b@@YA_NAEAU__acrt_stdio_stream_mode@@@Z 0000000180057edc f i libucrt:openfile.obj
 0001:00056ef4       ?__acrt_stdio_parse_mode_c@@YA_NAEAU__acrt_stdio_stream_mode@@AEA_N@Z 0000000180057ef4 f i libucrt:openfile.obj
 0001:00056f08       ?__acrt_stdio_parse_mode_n@@YA_NAEAU__acrt_stdio_stream_mode@@AEA_N@Z 0000000180057f08 f i libucrt:openfile.obj
 0001:00056f1c       ?__acrt_stdio_parse_mode_plus@@YA_NAEAU__acrt_stdio_stream_mode@@AEA_N@Z 0000000180057f1c f i libucrt:openfile.obj
 0001:00056f4c       ?__acrt_stdio_parse_mode_t@@YA_NAEAU__acrt_stdio_stream_mode@@@Z 0000000180057f4c f i libucrt:openfile.obj
 0001:00056f64       ?__acrt_stdio_parse_mode_x@@YA_NAEAU__acrt_stdio_stream_mode@@@Z 0000000180057f64 f i libucrt:openfile.obj
 0001:00056f78       _openfile                  0000000180057f78 f   libucrt:openfile.obj
 0001:00057014       _wopenfile                 0000000180058014 f   libucrt:openfile.obj
 0001:000570b0       __ascii_wcsicmp            00000001800580b0 f   libucrt:wcsicmp.obj
 0001:000570f0       _towlower_fast_internal    00000001800580f0 f i libucrt:wcsicmp.obj
 0001:00057118       _towlower_internal         0000000180058118 f i libucrt:wcsicmp.obj
 0001:0005714c       _wcsicmp                   000000018005814c f   libucrt:wcsicmp.obj
 0001:00057194       _wcsicmp_l                 0000000180058194 f   libucrt:wcsicmp.obj
 0001:000572bc       ?dangerous_get_state_array@?$dual_state_global@PEAPEAD@__crt_state_management@@QEAAPEAPEAPEADXZ 00000001800582bc f i libucrt:timeset.obj
 0001:000572c0       ?dangerous_get_state_array@?$dual_state_global@PEAPEA_W@__crt_state_management@@QEAAPEAPEAPEA_WXZ 00000001800582c0 f i libucrt:timeset.obj
 0001:000572c4       ?initialize@?$dual_state_global@H@__crt_state_management@@QEAAXH@Z 00000001800582c4 f i libucrt:timeset.obj
 0001:000572d0       ?initialize@?$dual_state_global@J@__crt_state_management@@QEAAXJ@Z 00000001800582d0 f i libucrt:timeset.obj
 0001:000572dc       ?value@?$dual_state_global@H@__crt_state_management@@QEAAAEAHXZ 00000001800582dc f i libucrt:timeset.obj
 0001:000572e0       ?value@?$dual_state_global@J@__crt_state_management@@QEAAAEAJXZ 00000001800582e0 f i libucrt:timeset.obj
 0001:000572e4       __acrt_initialize_timeset  00000001800582e4 f   libucrt:timeset.obj
 0001:00057334       __daylight                 0000000180058334 f   libucrt:timeset.obj
 0001:0005733c       __dstbias                  000000018005833c f   libucrt:timeset.obj
 0001:00057344       __timezone                 0000000180058344 f   libucrt:timeset.obj
 0001:0005734c       __tzname                   000000018005834c f   libucrt:timeset.obj
 0001:00057354       __wide_tzname              0000000180058354 f   libucrt:timeset.obj
 0001:0005735c       _get_daylight              000000018005835c f   libucrt:timeset.obj
 0001:0005738c       _get_dstbias               000000018005838c f   libucrt:timeset.obj
 0001:000573bc       _get_timezone              00000001800583bc f   libucrt:timeset.obj
 0001:000573ec       _get_tzname                00000001800583ec f   libucrt:timeset.obj
 0001:0005748c       ??$__crt_time_elapsed_leap_years@H@@YAHH@Z 000000018005848c f i libucrt:tzset.obj
 0001:000574d8       ?__acrt_get_utf8_acp_compatibility_codepage@@YAIXZ 00000001800584d8 f i libucrt:tzset.obj
 0001:00057818       ?_set_daylight@@YAXH@Z     0000000180058818 f i libucrt:tzset.obj
 0001:00057830       ?_set_dstbias@@YAXJ@Z      0000000180058830 f i libucrt:tzset.obj
 0001:00057848       ?_set_timezone@@YAXJ@Z     0000000180058848 f i libucrt:tzset.obj
 0001:00057a58       ?dangerous_get_state_array@?$dual_state_global@J@__crt_state_management@@QEAAPEAJXZ 0000000180058a58 f i libucrt:tzset.obj
 0001:00058154       __tzset                    0000000180059154 f   libucrt:tzset.obj
 0001:00058194       _isindst                   0000000180059194 f   libucrt:tzset.obj
 0001:000581c4       _tzset                     00000001800591c4 f   libucrt:tzset.obj
 0001:00058380       _close                     0000000180059380 f   libucrt:close.obj
 0001:00058418       _close_internal            0000000180059418 f   libucrt:close.obj
 0001:000584dc       _close_nolock              00000001800594dc f   libucrt:close.obj
 0001:00058574       _close_nolock_internal     0000000180059574 f   libucrt:close.obj
 0001:00058778       ?has_big_buffer@__crt_stdio_stream@@QEBA_NXZ 0000000180059778 f i libucrt:fwrite.obj
 0001:00058788       _fwrite_internal           0000000180059788 f   libucrt:fwrite.obj
 0001:00058824       _fwrite_nolock             0000000180059824 f   libucrt:fwrite.obj
 0001:000588c8       _fwrite_nolock_internal    00000001800598c8 f   libucrt:fwrite.obj
 0001:00058ac8       fwrite                     0000000180059ac8 f   libucrt:fwrite.obj
 0001:00058b6c       ??$?RUtm@@@__crt_internal_free_policy@@QEBAXQEBUtm@@@Z 0000000180059b6c f i libucrt:gmtime.obj
 0001:00058f1c       ??0?$__crt_unique_heap_ptr@Utm@@U__crt_internal_free_policy@@@@QEAA@QEAUtm@@@Z 0000000180059f1c f i libucrt:gmtime.obj
 0001:00058f24       ??1?$__crt_unique_heap_ptr@Utm@@U__crt_internal_free_policy@@@@QEAA@XZ 0000000180059f24 f i libucrt:gmtime.obj
 0001:00059098       ?detach@?$__crt_unique_heap_ptr@Utm@@U__crt_internal_free_policy@@@@QEAAPEAUtm@@XZ 000000018005a098 f i libucrt:gmtime.obj
 0001:000590a0       ?release@?$__crt_unique_heap_ptr@Utm@@U__crt_internal_free_policy@@@@QEAAXXZ 000000018005a0a0 f i libucrt:gmtime.obj
 0001:000590bc       __getgmtimebuf             000000018005a0bc f   libucrt:gmtime.obj
 0001:00059108       _gmtime32                  000000018005a108 f   libucrt:gmtime.obj
 0001:00059150       _gmtime32_s                000000018005a150 f   libucrt:gmtime.obj
 0001:00059158       _gmtime64                  000000018005a158 f   libucrt:gmtime.obj
 0001:000591a0       _gmtime64_s                000000018005a1a0 f   libucrt:gmtime.obj
 0001:000591a8       _msize                     000000018005a1a8 f   libucrt:msize.obj
 0001:000591b0       _msize_base                000000018005a1b0 f   libucrt:msize.obj
 0001:00059214       ??$__acrt_convert_wcs_mbs_cp@D_WV<lambda_7c9dea7b4ca7285d2cdb541a38da6275>@@U__crt_win32_buffer_internal_dynamic_resizing@@@@YAHQEBDAEAV?$__crt_win32_buffer@_WU__crt_win32_buffer_internal_dynamic_resizing@@@@AEBV<lambda_7c9dea7b4ca7285d2cdb541a38da6275>@@I@Z 000000018005a214 f i libucrt:argv_wildcards.obj
 0001:00059390       ??$__acrt_convert_wcs_mbs_cp@_WDV<lambda_d8593a27d1aa8c02be35c86a17d324c4>@@U__crt_win32_buffer_internal_dynamic_resizing@@@@YAHQEB_WAEAV?$__crt_win32_buffer@DU__crt_win32_buffer_internal_dynamic_resizing@@@@AEBV<lambda_d8593a27d1aa8c02be35c86a17d324c4>@@I@Z 000000018005a390 f i libucrt:argv_wildcards.obj
 0001:0005951c       ??$__acrt_mbs_to_wcs_cp@U__crt_win32_buffer_internal_dynamic_resizing@@@@YAHQEBDAEAV?$__crt_win32_buffer@_WU__crt_win32_buffer_internal_dynamic_resizing@@@@I@Z 000000018005a51c f i libucrt:argv_wildcards.obj
 0001:0005952c       ??$__acrt_wcs_to_mbs_cp@U__crt_win32_buffer_internal_dynamic_resizing@@@@YAHQEB_WAEAV?$__crt_win32_buffer@DU__crt_win32_buffer_internal_dynamic_resizing@@@@I@Z 000000018005a52c f i libucrt:argv_wildcards.obj
 0001:0005a364       ??$tcslen@AEBQEBD@?$__crt_char_traits@D@@SA_KAEBQEBD@Z 000000018005b364 f i libucrt:argv_wildcards.obj
 0001:0005a378       ??$tcslen@AEBQEB_W@?$__crt_char_traits@_W@@SA_KAEBQEB_W@Z 000000018005b378 f i libucrt:argv_wildcards.obj
 0001:0005a38c       ??$tcsncpy_s@AEAPEAD_KAEAPEADAEB_K@?$__crt_char_traits@D@@SAHAEAPEAD$$QEA_K0AEB_K@Z 000000018005b38c f i libucrt:argv_wildcards.obj
 0001:0005a3a0       ??$tcsncpy_s@AEAPEA_W_KAEAPEA_WAEB_K@?$__crt_char_traits@_W@@SAHAEAPEA_W$$QEA_K0AEB_K@Z 000000018005b3a0 f i libucrt:argv_wildcards.obj
 0001:0005a3b4       ??$tcsncpy_s@PEADAEB_KAEBQEBDAEB_K@?$__crt_char_traits@D@@SAH$$QEAPEADAEB_KAEBQEBD1@Z 000000018005b3b4 f i libucrt:argv_wildcards.obj
 0001:0005a3c8       ??$tcsncpy_s@PEAD_KAEBQEBDAEB_K@?$__crt_char_traits@D@@SAH$$QEAPEAD$$QEA_KAEBQEBDAEB_K@Z 000000018005b3c8 f i libucrt:argv_wildcards.obj
 0001:0005a3dc       ??$tcsncpy_s@PEA_WAEB_KAEBQEB_WAEB_K@?$__crt_char_traits@_W@@SAH$$QEAPEA_WAEB_KAEBQEB_W1@Z 000000018005b3dc f i libucrt:argv_wildcards.obj
 0001:0005a3f0       ??$tcsncpy_s@PEA_W_KAEBQEB_WAEB_K@?$__crt_char_traits@_W@@SAH$$QEAPEA_W$$QEA_KAEBQEB_WAEB_K@Z 000000018005b3f0 f i libucrt:argv_wildcards.obj
 0001:0005a404       ??$tcspbrk@AEAPEADAEAY02$$CBD@?$__crt_char_traits@D@@SAPEADAEAPEADAEAY02$$CBD@Z 000000018005b404 f i libucrt:argv_wildcards.obj
 0001:0005a40c       ??$tcspbrk@AEAPEA_WAEAY02$$CB_W@?$__crt_char_traits@_W@@SAPEA_WAEAPEA_WAEAY02$$CB_W@Z 000000018005b40c f i libucrt:argv_wildcards.obj
 0001:0005a414       ??0?$__crt_unique_handle_t@U__crt_findfile_traits@@@@QEAA@QEAX@Z 000000018005b414 f i libucrt:argv_wildcards.obj
 0001:0005a41c       ??0?$__crt_win32_buffer@DU__crt_win32_buffer_internal_dynamic_resizing@@@@QEAA@XZ 000000018005b41c f i libucrt:argv_wildcards.obj
 0001:0005a438       ??0?$__crt_win32_buffer@_WU__crt_win32_buffer_internal_dynamic_resizing@@@@QEAA@XZ 000000018005b438 f i libucrt:argv_wildcards.obj
 0001:0005a47c       ??1?$__crt_unique_handle_t@U__crt_findfile_traits@@@@QEAA@XZ 000000018005b47c f i libucrt:argv_wildcards.obj
 0001:0005a4a0       ??1?$__crt_win32_buffer@DU__crt_win32_buffer_internal_dynamic_resizing@@@@QEAA@XZ 000000018005b4a0 f i libucrt:argv_wildcards.obj
 0001:0005a4c4       ??1?$__crt_win32_buffer@_WU__crt_win32_buffer_internal_dynamic_resizing@@@@QEAA@XZ 000000018005b4c4 f i libucrt:argv_wildcards.obj
 0001:0005a578       ??R<lambda_7c9dea7b4ca7285d2cdb541a38da6275>@@QEBAHIQEBDQEA_W_K@Z 000000018005b578 f i libucrt:argv_wildcards.obj
 0001:0005a608       ??R<lambda_d8593a27d1aa8c02be35c86a17d324c4>@@QEBAHIQEB_WQEAD_K@Z 000000018005b608 f i libucrt:argv_wildcards.obj
 0001:0005a638       ?_deallocate@?$__crt_win32_buffer@DU__crt_win32_buffer_internal_dynamic_resizing@@@@AEAAXXZ 000000018005b638 f i libucrt:argv_wildcards.obj
 0001:0005a65c       ?_deallocate@?$__crt_win32_buffer@_WU__crt_win32_buffer_internal_dynamic_resizing@@@@AEAAXXZ 000000018005b65c f i libucrt:argv_wildcards.obj
 0001:0005a680       ?allocate@?$__crt_win32_buffer@DU__crt_win32_buffer_internal_dynamic_resizing@@@@QEAAH_K@Z 000000018005b680 f i libucrt:argv_wildcards.obj
 0001:0005a6d8       ?allocate@?$__crt_win32_buffer@_WU__crt_win32_buffer_internal_dynamic_resizing@@@@QEAAH_K@Z 000000018005b6d8 f i libucrt:argv_wildcards.obj
 0001:0005a730       ?allocate@__crt_win32_buffer_internal_dynamic_resizing@@SAHQEAPEAX_KAEBV__crt_win32_buffer_empty_debug_info@@@Z 000000018005b730 f i libucrt:argv_wildcards.obj
 0001:0005a91c       ?capacity@?$__crt_win32_buffer@DU__crt_win32_buffer_internal_dynamic_resizing@@@@QEBA_KXZ 000000018005b91c f i libucrt:argv_wildcards.obj
 0001:0005a924       ?capacity@?$__crt_win32_buffer@_WU__crt_win32_buffer_internal_dynamic_resizing@@@@QEBA_KXZ 000000018005b924 f i libucrt:argv_wildcards.obj
 0001:0005a92c       ?close@?$__crt_unique_handle_t@U__crt_findfile_traits@@@@QEAAXXZ 000000018005b92c f i libucrt:argv_wildcards.obj
 0001:0005a950       ?close@__crt_findfile_traits@@SA_NPEAX@Z 000000018005b950 f i libucrt:argv_wildcards.obj
 0001:0005a964       ?data@?$__crt_win32_buffer@DU__crt_win32_buffer_internal_dynamic_resizing@@@@QEAAPEADXZ 000000018005b964 f i libucrt:argv_wildcards.obj
 0001:0005a96c       ?data@?$__crt_win32_buffer@_WU__crt_win32_buffer_internal_dynamic_resizing@@@@QEAAPEA_WXZ 000000018005b96c f i libucrt:argv_wildcards.obj
 0001:0005a974       ?deallocate@__crt_win32_buffer_internal_dynamic_resizing@@SAXQEAXAEBV__crt_win32_buffer_empty_debug_info@@@Z 000000018005b974 f i libucrt:argv_wildcards.obj
 0001:0005a97c       ?debug_info@?$__crt_win32_buffer@DU__crt_win32_buffer_internal_dynamic_resizing@@@@QEBAAEBV__crt_win32_buffer_empty_debug_info@@XZ 000000018005b97c f i libucrt:argv_wildcards.obj
 0001:0005a980       ?debug_info@?$__crt_win32_buffer@_WU__crt_win32_buffer_internal_dynamic_resizing@@@@QEBAAEBV__crt_win32_buffer_empty_debug_info@@XZ 000000018005b980 f i libucrt:argv_wildcards.obj
 0001:0005ab24       ?get@?$__crt_unique_handle_t@U__crt_findfile_traits@@@@QEBAPEAXXZ 000000018005bb24 f i libucrt:argv_wildcards.obj
 0001:0005abd0       ?get_invalid_value@__crt_findfile_traits@@SAPEAXXZ 000000018005bbd0 f i libucrt:argv_wildcards.obj
 0001:0005ac90       ?set_to_nullptr@?$__crt_win32_buffer@DU__crt_win32_buffer_internal_dynamic_resizing@@@@QEAAXXZ 000000018005bc90 f i libucrt:argv_wildcards.obj
 0001:0005acc4       ?set_to_nullptr@?$__crt_win32_buffer@_WU__crt_win32_buffer_internal_dynamic_resizing@@@@QEAAXXZ 000000018005bcc4 f i libucrt:argv_wildcards.obj
 0001:0005acf8       ?size@?$__crt_win32_buffer@DU__crt_win32_buffer_internal_dynamic_resizing@@@@QEAAX_K@Z 000000018005bcf8 f i libucrt:argv_wildcards.obj
 0001:0005ad00       ?size@?$__crt_win32_buffer@_WU__crt_win32_buffer_internal_dynamic_resizing@@@@QEAAX_K@Z 000000018005bd00 f i libucrt:argv_wildcards.obj
 0001:0005ad20       ?strpbrk@@YAPEADQEADQEBD@Z 000000018005bd20 f i libucrt:argv_wildcards.obj
 0001:0005ad28       ?wcspbrk@@YAPEA_WPEA_WPEB_W@Z 000000018005bd28 f i libucrt:argv_wildcards.obj
 0001:0005ad30       __acrt_expand_narrow_argv_wildcards 000000018005bd30 f   libucrt:argv_wildcards.obj
 0001:0005ad38       __acrt_expand_wide_argv_wildcards 000000018005bd38 f   libucrt:argv_wildcards.obj
 0001:0005ad40       ??$__acrt_convert_wcs_mbs_cp@_WDV<lambda_f788ae46380686e8b737efdd8c720d07>@@U__crt_win32_buffer_no_resizing@@@@YAHQEB_WAEAV?$__crt_win32_buffer@DU__crt_win32_buffer_no_resizing@@@@AEBV<lambda_f788ae46380686e8b737efdd8c720d07>@@I@Z 000000018005bd40 f i libucrt:getmodulefilenamea.obj
 0001:0005ae5c       ??$__acrt_wcs_to_mbs_cp@U__crt_win32_buffer_no_resizing@@@@YAHQEB_WAEAV?$__crt_win32_buffer@DU__crt_win32_buffer_no_resizing@@@@I@Z 000000018005be5c f i libucrt:getmodulefilenamea.obj
 0001:0005ae6c       ??0?$__crt_win32_buffer@DU__crt_win32_buffer_no_resizing@@@@QEAA@QEAD_K@Z 000000018005be6c f i libucrt:getmodulefilenamea.obj
 0001:0005ae88       ??1?$__crt_win32_buffer@DU__crt_win32_buffer_no_resizing@@@@QEAA@XZ 000000018005be88 f i libucrt:getmodulefilenamea.obj
 0001:0005ae94       ??R<lambda_f788ae46380686e8b737efdd8c720d07>@@QEBAHIQEB_WQEAD_K@Z 000000018005be94 f i libucrt:getmodulefilenamea.obj
 0001:0005aec4       ?_deallocate@?$__crt_win32_buffer@DU__crt_win32_buffer_no_resizing@@@@AEAAXXZ 000000018005bec4 f i libucrt:getmodulefilenamea.obj
 0001:0005aed0       ?allocate@?$__crt_win32_buffer@DU__crt_win32_buffer_no_resizing@@@@QEAAH_K@Z 000000018005bed0 f i libucrt:getmodulefilenamea.obj
 0001:0005af00       ?allocate@__crt_win32_buffer_no_resizing@@SAHQEAPEAX_KAEBV__crt_win32_buffer_empty_debug_info@@@Z 000000018005bf00 f i libucrt:getmodulefilenamea.obj
 0001:0005af18       ?capacity@?$__crt_win32_buffer@DU__crt_win32_buffer_no_resizing@@@@QEBA_KXZ 000000018005bf18 f i libucrt:getmodulefilenamea.obj
 0001:0005af20       ?data@?$__crt_win32_buffer@DU__crt_win32_buffer_no_resizing@@@@QEAAPEADXZ 000000018005bf20 f i libucrt:getmodulefilenamea.obj
 0001:0005af28       ?deallocate@__crt_win32_buffer_no_resizing@@SAXQEAXAEBV__crt_win32_buffer_empty_debug_info@@@Z 000000018005bf28 f i libucrt:getmodulefilenamea.obj
 0001:0005af2c       ?debug_info@?$__crt_win32_buffer@DU__crt_win32_buffer_no_resizing@@@@QEBAAEBV__crt_win32_buffer_empty_debug_info@@XZ 000000018005bf2c f i libucrt:getmodulefilenamea.obj
 0001:0005af30       ?set_to_nullptr@?$__crt_win32_buffer@DU__crt_win32_buffer_no_resizing@@@@QEAAXXZ 000000018005bf30 f i libucrt:getmodulefilenamea.obj
 0001:0005af48       ?size@?$__crt_win32_buffer@DU__crt_win32_buffer_no_resizing@@@@QEAAX_K@Z 000000018005bf48 f i libucrt:getmodulefilenamea.obj
 0001:0005af50       ?size@?$__crt_win32_buffer@DU__crt_win32_buffer_no_resizing@@@@QEBA_KXZ 000000018005bf50 f i libucrt:getmodulefilenamea.obj
 0001:0005af58       __acrt_GetModuleFileNameA  000000018005bf58 f   libucrt:getmodulefilenamea.obj
 0001:0005b274       ??$initialize_from_array@$$BY10BAA@E@?$dual_state_global@PEAE@__crt_state_management@@QEAAXAEAY10BAA@E@Z 000000018005c274 f i libucrt:mbctype.obj
 0001:0005b278       ??$initialize_from_array@$$BY10BAB@E@?$dual_state_global@PEAE@__crt_state_management@@QEAAXAEAY10BAB@E@Z 000000018005c278 f i libucrt:mbctype.obj
 0001:0005b484       ?dangerous_get_state_array@?$dual_state_global@PEAE@__crt_state_management@@QEAAPEAPEAEXZ 000000018005c484 f i libucrt:mbctype.obj
 0001:0005b488       ?dangerous_get_state_array@?$dual_state_global@PEAU__crt_multibyte_data@@@__crt_state_management@@QEAAPEAPEAU__crt_multibyte_data@@XZ 000000018005c488 f i libucrt:mbctype.obj
 0001:0005b50c       ?initialize@?$dual_state_global@PEAU__crt_multibyte_data@@@__crt_state_management@@QEAAXQEAU__crt_multibyte_data@@@Z 000000018005c50c f i libucrt:mbctype.obj
 0001:0005bac4       ?value@?$dual_state_global@PEAE@__crt_state_management@@QEAAAEAPEAEXZ 000000018005cac4 f i libucrt:mbctype.obj
 0001:0005bac8       __acrt_initialize_multibyte 000000018005cac8 f   libucrt:mbctype.obj
 0001:0005bb28       __acrt_update_thread_multibyte_data 000000018005cb28 f   libucrt:mbctype.obj
 0001:0005bb44       __p__mbcasemap             000000018005cb44 f   libucrt:mbctype.obj
 0001:0005bb4c       __p__mbctype               000000018005cb4c f   libucrt:mbctype.obj
 0001:0005bb54       _getmbcp                   000000018005cb54 f   libucrt:mbctype.obj
 0001:0005bb90       _setmbcp                   000000018005cb90 f   libucrt:mbctype.obj
 0001:0005bbb8       _setmbcp_nolock            000000018005cbb8 f   libucrt:mbctype.obj
 0001:0005bf74       _ismbbalnum                000000018005cf74 f   libucrt:ismbbyte.obj
 0001:0005bf8c       _ismbbalnum_l              000000018005cf8c f   libucrt:ismbbyte.obj
 0001:0005bfa8       _ismbbalpha                000000018005cfa8 f   libucrt:ismbbyte.obj
 0001:0005bfc0       _ismbbalpha_l              000000018005cfc0 f   libucrt:ismbbyte.obj
 0001:0005bfdc       _ismbbblank                000000018005cfdc f   libucrt:ismbbyte.obj
 0001:0005bff8       _ismbbblank_l              000000018005cff8 f   libucrt:ismbbyte.obj
 0001:0005c018       _ismbbgraph                000000018005d018 f   libucrt:ismbbyte.obj
 0001:0005c030       _ismbbgraph_l              000000018005d030 f   libucrt:ismbbyte.obj
 0001:0005c04c       _ismbbkalnum               000000018005d04c f   libucrt:ismbbyte.obj
 0001:0005c060       _ismbbkalnum_l             000000018005d060 f   libucrt:ismbbyte.obj
 0001:0005c078       _ismbbkana                 000000018005d078 f   libucrt:ismbbyte.obj
 0001:0005c080       _ismbbkana_l               000000018005d080 f   libucrt:ismbbyte.obj
 0001:0005c0e8       _ismbbkprint               000000018005d0e8 f   libucrt:ismbbyte.obj
 0001:0005c0fc       _ismbbkprint_l             000000018005d0fc f   libucrt:ismbbyte.obj
 0001:0005c114       _ismbbkpunct               000000018005d114 f   libucrt:ismbbyte.obj
 0001:0005c128       _ismbbkpunct_l             000000018005d128 f   libucrt:ismbbyte.obj
 0001:0005c140       _ismbblead                 000000018005d140 f   libucrt:ismbbyte.obj
 0001:0005c154       _ismbblead_l               000000018005d154 f   libucrt:ismbbyte.obj
 0001:0005c16c       _ismbbprint                000000018005d16c f   libucrt:ismbbyte.obj
 0001:0005c184       _ismbbprint_l              000000018005d184 f   libucrt:ismbbyte.obj
 0001:0005c1a0       _ismbbpunct                000000018005d1a0 f   libucrt:ismbbyte.obj
 0001:0005c1b4       _ismbbpunct_l              000000018005d1b4 f   libucrt:ismbbyte.obj
 0001:0005c1cc       _ismbbtrail                000000018005d1cc f   libucrt:ismbbyte.obj
 0001:0005c1e0       _ismbbtrail_l              000000018005d1e0 f   libucrt:ismbbyte.obj
 0001:0005c1f8       __acrt_initialize_command_line 000000018005d1f8 f   libucrt:argv_data.obj
 0001:0005c220       __acrt_uninitialize_command_line 000000018005d220 f   libucrt:argv_data.obj
 0001:0005c224       __p___argc                 000000018005d224 f   libucrt:argv_data.obj
 0001:0005c22c       __p___argv                 000000018005d22c f   libucrt:argv_data.obj
 0001:0005c234       __p___wargv                000000018005d234 f   libucrt:argv_data.obj
 0001:0005c23c       __p__acmdln                000000018005d23c f   libucrt:argv_data.obj
 0001:0005c244       __p__pgmptr                000000018005d244 f   libucrt:argv_data.obj
 0001:0005c24c       __p__wcmdln                000000018005d24c f   libucrt:argv_data.obj
 0001:0005c254       __p__wpgmptr               000000018005d254 f   libucrt:argv_data.obj
 0001:0005c25c       _get_pgmptr                000000018005d25c f   libucrt:argv_data.obj
 0001:0005c294       _get_wpgmptr               000000018005d294 f   libucrt:argv_data.obj
 0001:0005c324       __acrt_MultiByteToWideChar 000000018005d324 f   libucrt:multibytetowidechar.obj
 0001:0005c3c4       __acrt_WideCharToMultiByte 000000018005d3c4 f   libucrt:widechartomultibyte.obj
 0001:0005c514       __dcrt_get_narrow_environment_from_os 000000018005d514 f   libucrt:get_environment_from_os.obj
 0001:0005c624       __dcrt_get_wide_environment_from_os 000000018005d624 f   libucrt:get_environment_from_os.obj
 0001:0005d0bc       ??$get_or_create_environment_nolock@$$V@?$__crt_char_traits@D@@SAPEAPEADXZ 000000018005e0bc f i libucrt:setenv.obj
 0001:0005d0c4       ??$get_or_create_environment_nolock@$$V@?$__crt_char_traits@_W@@SAPEAPEA_WXZ 000000018005e0c4 f i libucrt:setenv.obj
 0001:0005d0cc       ??$set_environment_variable@AEBQEADQEAD@?$__crt_char_traits@D@@SAHAEBQEAD$$QEBQEAD@Z 000000018005e0cc f i libucrt:setenv.obj
 0001:0005d0d8       ??$set_environment_variable@AEBQEA_WQEA_W@?$__crt_char_traits@_W@@SAHAEBQEA_W$$QEBQEA_W@Z 000000018005e0d8 f i libucrt:setenv.obj
 0001:0005d0e8       ??$tcschr@AEBQEADD@?$__crt_char_traits@D@@SAPEADAEBQEAD$$QEAD@Z 000000018005e0e8 f i libucrt:setenv.obj
 0001:0005d0f4       ??$tcschr@AEBQEA_WD@?$__crt_char_traits@_W@@SAPEA_WAEBQEA_W$$QEAD@Z 000000018005e0f4 f i libucrt:setenv.obj
 0001:0005d100       ??$tcscpy_s@AEAPEADAEB_KAEAPEAD@?$__crt_char_traits@D@@SAHAEAPEADAEB_K0@Z 000000018005e100 f i libucrt:setenv.obj
 0001:0005d110       ??$tcscpy_s@AEAPEA_WAEB_KAEAPEA_W@?$__crt_char_traits@_W@@SAHAEAPEA_WAEB_K0@Z 000000018005e110 f i libucrt:setenv.obj
 0001:0005d120       ??$tcscpy_s@AEBQEADAEB_KAEBQEAD@?$__crt_char_traits@D@@SAHAEBQEADAEB_K0@Z 000000018005e120 f i libucrt:setenv.obj
 0001:0005d130       ??$tcscpy_s@AEBQEA_WAEB_KAEBQEA_W@?$__crt_char_traits@_W@@SAHAEBQEA_WAEB_K0@Z 000000018005e130 f i libucrt:setenv.obj
 0001:0005d140       ??$tcslen@AEBQEAD@?$__crt_char_traits@D@@SA_KAEBQEAD@Z 000000018005e140 f i libucrt:setenv.obj
 0001:0005d154       ??$tcslen@AEBQEA_W@?$__crt_char_traits@_W@@SA_KAEBQEA_W@Z 000000018005e154 f i libucrt:setenv.obj
 0001:0005d168       ??$tcsnicoll@AEBQEBDAEAPEADAEB_K@?$__crt_char_traits@D@@SAHAEBQEBDAEAPEADAEB_K@Z 000000018005e168 f i libucrt:setenv.obj
 0001:0005d178       ??$tcsnicoll@AEBQEB_WAEAPEA_WAEB_K@?$__crt_char_traits@_W@@SAHAEBQEB_WAEAPEA_WAEB_K@Z 000000018005e178 f i libucrt:setenv.obj
 0001:0005d1b8       ?strchr@@YAPEADQEADH@Z     000000018005e1b8 f i libucrt:setenv.obj
 0001:0005d1c0       ?wcschr@@YAPEA_WPEA_W_W@Z  000000018005e1c0 f i libucrt:setenv.obj
 0001:0005d1c8       __dcrt_set_variable_in_narrow_environment_nolock 000000018005e1c8 f   libucrt:setenv.obj
 0001:0005d1d0       __dcrt_set_variable_in_wide_environment_nolock 000000018005e1d0 f   libucrt:setenv.obj
 0001:0005d1d8       __acrt_getheap             000000018005e1d8 f   libucrt:heap_handle.obj
 0001:0005d1e0       __acrt_initialize_heap     000000018005e1e0 f   libucrt:heap_handle.obj
 0001:0005d1fc       __acrt_uninitialize_heap   000000018005e1fc f   libucrt:heap_handle.obj
 0001:0005d208       _get_heap_handle           000000018005e208 f   libucrt:heap_handle.obj
 0001:0005d210       __acrt_execute_initializers 000000018005e210 f   libucrt:shared_initialization.obj
 0001:0005d2a4       __acrt_execute_uninitializers 000000018005e2a4 f   libucrt:shared_initialization.obj
 0001:0005d2ec       ??$__crt_fast_decode_pointer@P6AHPEAU_exception@@@Z@@YAP6AHPEAU_exception@@@ZQ6AH0@Z@Z 000000018005e2ec f i libucrt:matherr.obj
 0001:0005d304       ??$__crt_fast_encode_pointer@P6AHPEAU_exception@@@Z@@YAP6AHPEAU_exception@@@ZQ6AH0@Z@Z 000000018005e304 f i libucrt:matherr.obj
 0001:0005d324       ?initialize@?$dual_state_global@P6AHPEAU_exception@@@Z@__crt_state_management@@QEAAXQ6AHPEAU_exception@@@Z@Z 000000018005e324 f i libucrt:matherr.obj
 0001:0005d334       ?value@?$dual_state_global@P6AHPEAU_exception@@@Z@__crt_state_management@@QEAAAEAP6AHPEAU_exception@@@ZXZ 000000018005e334 f i libucrt:matherr.obj
 0001:0005d338       __acrt_has_user_matherr    000000018005e338 f   libucrt:matherr.obj
 0001:0005d358       __acrt_initialize_user_matherr 000000018005e358 f   libucrt:matherr.obj
 0001:0005d360       __acrt_invoke_user_matherr 000000018005e360 f   libucrt:matherr.obj
 0001:0005d398       __setusermatherr           000000018005e398 f   libucrt:matherr.obj
 0001:0005d3c0       __pctype_func              000000018005e3c0 f   libucrt:ctype.obj
 0001:0005d3f0       __pwctype_func             000000018005e3f0 f   libucrt:ctype.obj
 0001:0005d3f8       _isctype                   000000018005e3f8 f   libucrt:isctype.obj
 0001:0005d428       _isctype_l                 000000018005e428 f   libucrt:isctype.obj
 0001:0005d530       __acrt_add_locale_ref      000000018005e530 f   libucrt:locale_refcounting.obj
 0001:0005d5bc       __acrt_free_locale         000000018005e5bc f   libucrt:locale_refcounting.obj
 0001:0005d734       __acrt_locale_add_lc_time_reference 000000018005e734 f   libucrt:locale_refcounting.obj
 0001:0005d75c       __acrt_locale_free_lc_time_if_unreferenced 000000018005e75c f   libucrt:locale_refcounting.obj
 0001:0005d794       __acrt_locale_release_lc_time_reference 000000018005e794 f   libucrt:locale_refcounting.obj
 0001:0005d7bc       __acrt_release_locale_ref  000000018005e7bc f   libucrt:locale_refcounting.obj
 0001:0005d864       __acrt_update_thread_locale_data 000000018005e864 f   libucrt:locale_refcounting.obj
 0001:0005d8d4       _updatetlocinfoEx_nolock   000000018005e8d4 f   libucrt:locale_refcounting.obj
 0001:0005d93c       ??$?RG@__crt_internal_free_policy@@QEBAXQEBG@Z 000000018005e93c f i libucrt:initctype.obj
 0001:0005d944       ??$?RJ@__crt_internal_free_policy@@QEBAXQEBJ@Z 000000018005e944 f i libucrt:initctype.obj
 0001:0005d94c       ??0?$__crt_unique_heap_ptr@GU__crt_internal_free_policy@@@@QEAA@QEAG@Z 000000018005e94c f i libucrt:initctype.obj
 0001:0005d954       ??0?$__crt_unique_heap_ptr@JU__crt_internal_free_policy@@@@QEAA@QEAJ@Z 000000018005e954 f i libucrt:initctype.obj
 0001:0005d95c       ??1?$__crt_unique_heap_ptr@GU__crt_internal_free_policy@@@@QEAA@XZ 000000018005e95c f i libucrt:initctype.obj
 0001:0005d978       ??1?$__crt_unique_heap_ptr@JU__crt_internal_free_policy@@@@QEAA@XZ 000000018005e978 f i libucrt:initctype.obj
 0001:0005d994       ?detach@?$__crt_unique_heap_ptr@GU__crt_internal_free_policy@@@@QEAAPEAGXZ 000000018005e994 f i libucrt:initctype.obj
 0001:0005d99c       ?detach@?$__crt_unique_heap_ptr@JU__crt_internal_free_policy@@@@QEAAPEAJXZ 000000018005e99c f i libucrt:initctype.obj
 0001:0005d9a4       ?release@?$__crt_unique_heap_ptr@GU__crt_internal_free_policy@@@@QEAAXXZ 000000018005e9a4 f i libucrt:initctype.obj
 0001:0005d9c0       ?release@?$__crt_unique_heap_ptr@JU__crt_internal_free_policy@@@@QEAAXXZ 000000018005e9c0 f i libucrt:initctype.obj
 0001:0005d9dc       ___lc_codepage_func        000000018005e9dc f   libucrt:initctype.obj
 0001:0005da0c       ___lc_collate_cp_func      000000018005ea0c f   libucrt:initctype.obj
 0001:0005da3c       ___lc_locale_name_func     000000018005ea3c f   libucrt:initctype.obj
 0001:0005da70       ___mb_cur_max_func         000000018005ea70 f   libucrt:initctype.obj
 0001:0005daa0       ___mb_cur_max_l_func       000000018005eaa0 f   libucrt:initctype.obj
 0001:0005dab0       __acrt_locale_initialize_ctype 000000018005eab0 f   libucrt:initctype.obj
 0001:0005e114       ??$?RUlconv@@@__crt_internal_free_policy@@QEBAXQEBUlconv@@@Z 000000018005f114 f i libucrt:initmon.obj
 0001:0005e11c       ??0?$__crt_unique_heap_ptr@Ulconv@@U__crt_internal_free_policy@@@@QEAA@QEAUlconv@@@Z 000000018005f11c f i libucrt:initmon.obj
 0001:0005e124       ??1?$__crt_unique_heap_ptr@Ulconv@@U__crt_internal_free_policy@@@@QEAA@XZ 000000018005f124 f i libucrt:initmon.obj
 0001:0005e140       ?detach@?$__crt_unique_heap_ptr@Ulconv@@U__crt_internal_free_policy@@@@QEAAPEAUlconv@@XZ 000000018005f140 f i libucrt:initmon.obj
 0001:0005e148       ?release@?$__crt_unique_heap_ptr@Ulconv@@U__crt_internal_free_policy@@@@QEAAXXZ 000000018005f148 f i libucrt:initmon.obj
 0001:0005e164       __acrt_locale_free_monetary 000000018005f164 f   libucrt:initmon.obj
 0001:0005e270       __acrt_locale_initialize_monetary 000000018005f270 f   libucrt:initmon.obj
 0001:0005e7d8       __acrt_locale_free_numeric 000000018005f7d8 f   libucrt:initnum.obj
 0001:0005e844       __acrt_locale_initialize_numeric 000000018005f844 f   libucrt:initnum.obj
 0001:0005eb5c       ??$?RU__crt_lc_time_data@@@__crt_internal_free_policy@@QEBAXQEBU__crt_lc_time_data@@@Z 000000018005fb5c f i libucrt:inittime.obj
 0001:0005ebac       ??0?$__crt_unique_heap_ptr@U__crt_lc_time_data@@U__crt_internal_free_policy@@@@QEAA@QEAU__crt_lc_time_data@@@Z 000000018005fbac f i libucrt:inittime.obj
 0001:0005ebb4       ??1?$__crt_unique_heap_ptr@U__crt_lc_time_data@@U__crt_internal_free_policy@@@@QEAA@XZ 000000018005fbb4 f i libucrt:inittime.obj
 0001:0005ebd0       ??B?$__crt_unique_heap_ptr@U__crt_lc_time_data@@U__crt_internal_free_policy@@@@QEBA_NXZ 000000018005fbd0 f i libucrt:inittime.obj
 0001:0005ebd8       ?detach@?$__crt_unique_heap_ptr@U__crt_lc_time_data@@U__crt_internal_free_policy@@@@QEAAPEAU__crt_lc_time_data@@XZ 000000018005fbd8 f i libucrt:inittime.obj
 0001:0005ec14       ?get@?$__crt_unique_heap_ptr@U__crt_lc_time_data@@U__crt_internal_free_policy@@@@QEBAPEAU__crt_lc_time_data@@XZ 000000018005fc14 f i libucrt:inittime.obj
 0001:0005efd8       ?is_valid@?$__crt_unique_heap_ptr@U__crt_lc_time_data@@U__crt_internal_free_policy@@@@QEBA_NXZ 000000018005ffd8 f i libucrt:inittime.obj
 0001:0005efe0       ?release@?$__crt_unique_heap_ptr@U__crt_lc_time_data@@U__crt_internal_free_policy@@@@QEAAXXZ 000000018005ffe0 f i libucrt:inittime.obj
 0001:0005effc       __acrt_locale_free_time    000000018005fffc f   libucrt:inittime.obj
 0001:0005f104       __acrt_locale_initialize_time 0000000180060104 f   libucrt:inittime.obj
 0001:0005f22c       wcscat_s                   000000018006022c f   libucrt:wcscat_s.obj
 0001:0005f3b0       wcsncat_s                  00000001800603b0 f   libucrt:wcsncat_s.obj
 0001:0005f4b4       wcscspn                    00000001800604b4 f   libucrt:wcscspn.obj
 0001:0005f4f4       wcspbrk                    00000001800604f4 f   libucrt:wcspbrk.obj
 0001:0005f528       __acrt_GetStringTypeA      0000000180060528 f   libucrt:getstringtypea.obj
 0001:0005ff20       __acrt_get_qualified_locale 0000000180060f20 f   libucrt:get_qualified_locale.obj
 0001:00060a24       __acrt_get_qualified_locale_downlevel 0000000180061a24 f   libucrt:getqloc_downlevel.obj
 0001:00060ca4       localeconv                 0000000180061ca4 f   libucrt:localeconv.obj
 0001:00060cd8       _query_new_mode            0000000180061cd8 f   libucrt:new_mode.obj
 0001:00060ce0       _set_new_mode              0000000180061ce0 f   libucrt:new_mode.obj
 0001:00060dd4       __acrt_fp_strflt_to_string 0000000180061dd4 f   libucrt:_fptostr.obj
 0001:000620a0       ??0big_integer@__crt_strtox@@QEAA@AEBU01@@Z 00000001800630a0 f i libucrt:cfout.obj
 0001:000620d0       ??0big_integer@__crt_strtox@@QEAA@XZ 00000001800630d0 f i libucrt:cfout.obj
 0001:00062130       ??4big_integer@__crt_strtox@@QEAAAEAU01@AEBU01@@Z 0000000180063130 f i libucrt:cfout.obj
 0001:00062160       ??8__crt_strtox@@YA_NAEBUbig_integer@0@0@Z 0000000180063160 f i libucrt:cfout.obj
 0001:00062190       ??9__crt_strtox@@YA_NAEBUbig_integer@0@0@Z 0000000180063190 f i libucrt:cfout.obj
 0001:000621d0       ?add_carry@__crt_strtox@@YAIAEAIII@Z 00000001800631d0 f i libucrt:cfout.obj
 0001:000621f0       ?add_multiply_carry@__crt_strtox@@YAIAEAIIII@Z 00000001800631f0 f i libucrt:cfout.obj
 0001:00062210       ?bit_scan_reverse@__crt_strtox@@YAII@Z 0000000180063210 f i libucrt:cfout.obj
 0001:00062230       ?count_sequential_high_zeroes@__crt_strtox@@YAII@Z 0000000180063230 f i libucrt:cfout.obj
 0001:00062250       ?divide@__crt_strtox@@YA_KAEAUbig_integer@1@AEBU21@@Z 0000000180063250 f i libucrt:cfout.obj
 0001:000626e0       ?is_zero@__crt_strtox@@YA_NAEBUbig_integer@1@@Z 00000001800636e0 f i libucrt:cfout.obj
 0001:000626f0       ?make_big_integer@__crt_strtox@@YA?AUbig_integer@1@_K@Z 00000001800636f0 f i libucrt:cfout.obj
 0001:00062710       ?make_big_integer_power_of_two@__crt_strtox@@YA?AUbig_integer@1@I@Z 0000000180063710 f i libucrt:cfout.obj
 0001:00062780       ?multiply@__crt_strtox@@YA_NAEAUbig_integer@1@AEBU21@@Z 0000000180063780 f i libucrt:cfout.obj
 0001:00062b30       ?multiply@__crt_strtox@@YA_NAEAUbig_integer@1@I@Z 0000000180063b30 f i libucrt:cfout.obj
 0001:00062c20       ?multiply_64_32@__crt_strtox@@YA_K_KI@Z 0000000180063c20 f i libucrt:cfout.obj
 0001:00062c30       ?multiply_by_power_of_ten@__crt_strtox@@YA_NAEAUbig_integer@1@I@Z 0000000180063c30 f i libucrt:cfout.obj
 0001:000631c0       ?multiply_core@__crt_strtox@@YAIQEAIII@Z 00000001800641c0 f i libucrt:cfout.obj
 0001:00063210       ?shift_left@__crt_strtox@@YA_NAEAUbig_integer@1@I@Z 0000000180064210 f i libucrt:cfout.obj
 0001:0006338c       __acrt_fltout              000000018006438c f   libucrt:cfout.obj
 0001:00064654       __fpe_flt_rounds           0000000180065654 f   libucrt:fegetround.obj
 0001:0006469c       fegetround                 000000018006569c f   libucrt:fegetround.obj
 0001:000646b0       ?__c32rtomb_utf8@__crt_mbstring@@YA_KPEAD_UPEAU_Mbstatet@@AEAV__crt_cached_ptd_host@@@Z 00000001800656b0 f   libucrt:c32rtomb.obj
 0001:00064754       c32rtomb                   0000000180065754 f   libucrt:c32rtomb.obj
 0001:00064818       ?__mbrtowc_utf8@__crt_mbstring@@YA_KPEA_WPEBD_KPEAU_Mbstatet@@AEAV__crt_cached_ptd_host@@@Z 0000000180065818 f   libucrt:mbrtowc.obj
 0001:0006485c       ?__mbsrtowcs_utf8@__crt_mbstring@@YA_KPEA_WPEAPEBD_KPEAU_Mbstatet@@AEAV__crt_cached_ptd_host@@@Z 000000018006585c f   libucrt:mbrtowc.obj
 0001:00064e90       btowc                      0000000180065e90 f   libucrt:mbrtowc.obj
 0001:00064f68       mbrlen                     0000000180065f68 f   libucrt:mbrtowc.obj
 0001:00065030       mbrtowc                    0000000180066030 f   libucrt:mbrtowc.obj
 0001:00065118       mbsrtowcs                  0000000180066118 f   libucrt:mbrtowc.obj
 0001:000651bc       mbsrtowcs_s                00000001800661bc f   libucrt:mbrtowc.obj
 0001:00065718       __acrt_stdio_flush_and_write_narrow_nolock 0000000180066718 f   libucrt:_flsbuf.obj
 0001:000657dc       __acrt_stdio_flush_and_write_wide_nolock 00000001800667dc f   libucrt:_flsbuf.obj
 0001:000658a0       _isatty                    00000001800668a0 f   libucrt:isatty.obj
 0001:00065900       ??$?RU__crt_lowio_handle_data@@@__crt_internal_free_policy@@QEBAXQEBU__crt_lowio_handle_data@@@Z 0000000180066900 f i libucrt:osfinfo.obj
 0001:00065908       ??0?$__crt_unique_heap_ptr@U__crt_lowio_handle_data@@U__crt_internal_free_policy@@@@QEAA@QEAU__crt_lowio_handle_data@@@Z 0000000180066908 f i libucrt:osfinfo.obj
 0001:00065910       ??1?$__crt_unique_heap_ptr@U__crt_lowio_handle_data@@U__crt_internal_free_policy@@@@QEAA@XZ 0000000180066910 f i libucrt:osfinfo.obj
 0001:0006592c       ??B?$__crt_unique_heap_ptr@U__crt_lowio_handle_data@@U__crt_internal_free_policy@@@@QEBA_NXZ 000000018006692c f i libucrt:osfinfo.obj
 0001:00065934       ?detach@?$__crt_unique_heap_ptr@U__crt_lowio_handle_data@@U__crt_internal_free_policy@@@@QEAAPEAU__crt_lowio_handle_data@@XZ 0000000180066934 f i libucrt:osfinfo.obj
 0001:0006593c       ?get@?$__crt_unique_heap_ptr@U__crt_lowio_handle_data@@U__crt_internal_free_policy@@@@QEBAPEAU__crt_lowio_handle_data@@XZ 000000018006693c f i libucrt:osfinfo.obj
 0001:00065940       ?is_valid@?$__crt_unique_heap_ptr@U__crt_lowio_handle_data@@U__crt_internal_free_policy@@@@QEBA_NXZ 0000000180066940 f i libucrt:osfinfo.obj
 0001:00065948       ?release@?$__crt_unique_heap_ptr@U__crt_lowio_handle_data@@U__crt_internal_free_policy@@@@QEAAXXZ 0000000180066948 f i libucrt:osfinfo.obj
 0001:00065964       __acrt_lowio_create_handle_array 0000000180066964 f   libucrt:osfinfo.obj
 0001:00065a0c       __acrt_lowio_destroy_handle_array 0000000180066a0c f   libucrt:osfinfo.obj
 0001:00065a5c       __acrt_lowio_ensure_fh_exists 0000000180066a5c f   libucrt:osfinfo.obj
 0001:00065b04       __acrt_lowio_lock_fh       0000000180066b04 f   libucrt:osfinfo.obj
 0001:00065b2c       __acrt_lowio_set_os_handle 0000000180066b2c f   libucrt:osfinfo.obj
 0001:00065bec       __acrt_lowio_unlock_fh     0000000180066bec f   libucrt:osfinfo.obj
 0001:00065c14       _alloc_osfhnd              0000000180066c14 f   libucrt:osfinfo.obj
 0001:00065d54       _free_osfhnd               0000000180066d54 f   libucrt:osfinfo.obj
 0001:00065e10       _get_osfhandle             0000000180066e10 f   libucrt:osfinfo.obj
 0001:00065e88       _open_osfhandle            0000000180066e88 f   libucrt:osfinfo.obj
 0001:00065f8c       __acrt_GetStringTypeW      0000000180066f8c f   libucrt:getstringtypew.obj
 0001:00066068       __acrt_DownlevelLCIDToLocaleName 0000000180067068 f   libucrt:lcidtoname_downlevel.obj
 0001:00066150       __acrt_DownlevelLocaleNameToLCID 0000000180067150 f   libucrt:lcidtoname_downlevel.obj
 0001:0006633c       _commit                    000000018006733c f   libucrt:commit.obj
 0001:00066d94       _utf8_no_of_trailbytes     0000000180067d94 f i libucrt:write.obj
 0001:00066da4       _write                     0000000180067da4 f   libucrt:write.obj
 0001:00066e3c       _write_internal            0000000180067e3c f   libucrt:write.obj
 0001:00066f64       _write_nolock              0000000180067f64 f   libucrt:write.obj
 0001:00067274       __ascii_wcsnicmp           0000000180068274 f   libucrt:wcsnicmp.obj
 0001:000672c0       _wcsnicmp                  00000001800682c0 f   libucrt:wcsnicmp.obj
 0001:00067308       _wcsnicmp_l                0000000180068308 f   libucrt:wcsnicmp.obj
 0001:00067458       __ascii_strnicmp           0000000180068458 f   libucrt:strnicmp.obj
 0001:000674a4       _strnicmp                  00000001800684a4 f   libucrt:strnicmp.obj
 0001:000674f4       _strnicmp_l                00000001800684f4 f   libucrt:strnicmp.obj
 0001:0006788c       ??$tsopen_nolock@PEAHAEBQEAHAEBQEBDAEBHAEBHAEBHAEBH@?$__crt_char_traits@D@@SAH$$QEAPEAHAEBQEAHAEBQEBDAEBH333@Z 000000018006888c f i libucrt:open.obj
 0001:000678c4       ??$tsopen_nolock@PEAHAEBQEAHAEBQEB_WAEBHAEBHAEBHAEBH@?$__crt_char_traits@_W@@SAH$$QEAPEAHAEBQEAHAEBQEB_WAEBH333@Z 00000001800688c4 f i libucrt:open.obj
 0001:000678fc       ??$tsopen_nolock@PEAHPEAHAEBQEBDAEBHHAEBHH@?$__crt_char_traits@D@@SAH$$QEAPEAH0AEBQEBDAEBH$$QEAH23@Z 00000001800688fc f i libucrt:open.obj
 0001:00067934       ??$tsopen_nolock@PEAHPEAHAEBQEB_WAEBHHAEBHH@?$__crt_char_traits@_W@@SAH$$QEAPEAH0AEBQEB_WAEBH$$QEAH23@Z 0000000180068934 f i libucrt:open.obj
 0001:00068068       _open                      0000000180069068 f   libucrt:open.obj
 0001:0006808c       _sopen                     000000018006908c f   libucrt:open.obj
 0001:000680d0       _sopen_dispatch            00000001800690d0 f   libucrt:open.obj
 0001:000680d8       _sopen_nolock              00000001800690d8 f   libucrt:open.obj
 0001:000681f4       _sopen_s                   00000001800691f4 f   libucrt:open.obj
 0001:00068228       _wopen                     0000000180069228 f   libucrt:open.obj
 0001:0006824c       _wsopen                    000000018006924c f   libucrt:open.obj
 0001:00068290       _wsopen_dispatch           0000000180069290 f   libucrt:open.obj
 0001:00068298       _wsopen_nolock             0000000180069298 f   libucrt:open.obj
 0001:00068688       _wsopen_s                  0000000180069688 f   libucrt:open.obj
 0001:000686bc       __p__commode               00000001800696bc f   libucrt:ncommode.obj
 0001:000686c4       _towlower_l                00000001800696c4 f   libucrt:towlower.obj
 0001:000687bc       towlower                   00000001800697bc f   libucrt:towlower.obj
 0001:000687c4       ??$parse_integer_from_string@JDPEAPEAD@__crt_strtox@@YAJQEBDQEAPEADHQEAU__crt_locale_pointers@@@Z 00000001800697c4 f i libucrt:strtox.obj
 0001:00068880       ??$parse_integer_from_string@J_WPEAPEA_W@__crt_strtox@@YAJQEB_WQEAPEA_WHQEAU__crt_locale_pointers@@@Z 0000000180069880 f i libucrt:strtox.obj
 0001:0006893c       ??$parse_integer_from_string@KDPEAPEAD@__crt_strtox@@YAKQEBDQEAPEADHQEAU__crt_locale_pointers@@@Z 000000018006993c f i libucrt:strtox.obj
 0001:000689f8       ??$parse_integer_from_string@K_WPEAPEA_W@__crt_strtox@@YAKQEB_WQEAPEA_WHQEAU__crt_locale_pointers@@@Z 00000001800699f8 f i libucrt:strtox.obj
 0001:00068ab4       ??$parse_integer_from_string@_JDPEAPEAD@__crt_strtox@@YA_JQEBDQEAPEADHQEAU__crt_locale_pointers@@@Z 0000000180069ab4 f i libucrt:strtox.obj
 0001:00068b74       ??$parse_integer_from_string@_J_WPEAPEA_W@__crt_strtox@@YA_JQEB_WQEAPEA_WHQEAU__crt_locale_pointers@@@Z 0000000180069b74 f i libucrt:strtox.obj
 0001:00068c34       ??$parse_integer_from_string@_KDPEAPEAD@__crt_strtox@@YA_KQEBDQEAPEADHQEAU__crt_locale_pointers@@@Z 0000000180069c34 f i libucrt:strtox.obj
 0001:00068cf4       ??$parse_integer_from_string@_K_WPEAPEA_W@__crt_strtox@@YA_KQEB_WQEAPEA_WHQEAU__crt_locale_pointers@@@Z 0000000180069cf4 f i libucrt:strtox.obj
 0001:00068db4       _strtoi64                  0000000180069db4 f   libucrt:strtox.obj
 0001:00068e68       _strtoi64_l                0000000180069e68 f   libucrt:strtox.obj
 0001:00068f28       _strtoimax_l               0000000180069f28 f   libucrt:strtox.obj
 0001:00068fe8       _strtol_l                  0000000180069fe8 f   libucrt:strtox.obj
 0001:000690a4       _strtoll_l                 000000018006a0a4 f   libucrt:strtox.obj
 0001:00069164       _strtoui64                 000000018006a164 f   libucrt:strtox.obj
 0001:00069218       _strtoui64_l               000000018006a218 f   libucrt:strtox.obj
 0001:000692d8       _strtoul_l                 000000018006a2d8 f   libucrt:strtox.obj
 0001:00069394       _strtoull_l                000000018006a394 f   libucrt:strtox.obj
 0001:00069454       _strtoumax_l               000000018006a454 f   libucrt:strtox.obj
 0001:00069514       _wcstoi64                  000000018006a514 f   libucrt:strtox.obj
 0001:000695c8       _wcstoi64_l                000000018006a5c8 f   libucrt:strtox.obj
 0001:00069688       _wcstoimax_l               000000018006a688 f   libucrt:strtox.obj
 0001:00069748       _wcstol_l                  000000018006a748 f   libucrt:strtox.obj
 0001:00069804       _wcstoll_l                 000000018006a804 f   libucrt:strtox.obj
 0001:000698c4       _wcstoui64                 000000018006a8c4 f   libucrt:strtox.obj
 0001:00069978       _wcstoui64_l               000000018006a978 f   libucrt:strtox.obj
 0001:00069a38       _wcstoul_l                 000000018006aa38 f   libucrt:strtox.obj
 0001:00069af4       _wcstoull_l                000000018006aaf4 f   libucrt:strtox.obj
 0001:00069bb4       _wcstoumax_l               000000018006abb4 f   libucrt:strtox.obj
 0001:00069c74       strtoimax                  000000018006ac74 f   libucrt:strtox.obj
 0001:00069d28       strtol                     000000018006ad28 f   libucrt:strtox.obj
 0001:00069ddc       strtoll                    000000018006addc f   libucrt:strtox.obj
 0001:00069e90       strtoul                    000000018006ae90 f   libucrt:strtox.obj
 0001:00069f44       strtoull                   000000018006af44 f   libucrt:strtox.obj
 0001:00069ff8       strtoumax                  000000018006aff8 f   libucrt:strtox.obj
 0001:0006a0ac       wcstoimax                  000000018006b0ac f   libucrt:strtox.obj
 0001:0006a160       wcstol                     000000018006b160 f   libucrt:strtox.obj
 0001:0006a214       wcstoll                    000000018006b214 f   libucrt:strtox.obj
 0001:0006a2c8       wcstoul                    000000018006b2c8 f   libucrt:strtox.obj
 0001:0006a37c       wcstoull                   000000018006b37c f   libucrt:strtox.obj
 0001:0006a430       wcstoumax                  000000018006b430 f   libucrt:strtox.obj
 0001:0006addc       ??$tcscpy_s@AEAPEADAEB_KAEBQEBD@?$__crt_char_traits@D@@SAHAEAPEADAEB_KAEBQEBD@Z 000000018006bddc f i libucrt:getenv.obj
 0001:0006adec       ??$tcscpy_s@AEAPEA_WAEB_KAEBQEB_W@?$__crt_char_traits@_W@@SAHAEAPEA_WAEB_KAEBQEB_W@Z 000000018006bdec f i libucrt:getenv.obj
 0001:0006adfc       ??$tcscpy_s@AEBQEADAEB_KAEBQEBD@?$__crt_char_traits@D@@SAHAEBQEADAEB_KAEBQEBD@Z 000000018006bdfc f i libucrt:getenv.obj
 0001:0006ae0c       ??$tcscpy_s@AEBQEA_WAEB_KAEBQEB_W@?$__crt_char_traits@_W@@SAHAEBQEA_WAEB_KAEBQEB_W@Z 000000018006be0c f i libucrt:getenv.obj
 0001:0006ae1c       ??$tcsnicoll@AEAPEADAEBQEBDAEB_K@?$__crt_char_traits@D@@SAHAEAPEADAEBQEBDAEB_K@Z 000000018006be1c f i libucrt:getenv.obj
 0001:0006ae2c       ??$tcsnicoll@AEAPEA_WAEBQEB_WAEB_K@?$__crt_char_traits@_W@@SAHAEAPEA_WAEBQEB_WAEB_K@Z 000000018006be2c f i libucrt:getenv.obj
 0001:0006ae3c       ??$tcsnlen@AEBQEBDH@?$__crt_char_traits@D@@SA_KAEBQEBD$$QEAH@Z 000000018006be3c f i libucrt:getenv.obj
 0001:0006ae48       ??$tcsnlen@AEBQEB_WH@?$__crt_char_traits@_W@@SA_KAEBQEB_W$$QEAH@Z 000000018006be48 f i libucrt:getenv.obj
 0001:0006ae54       _dupenv_s                  000000018006be54 f   libucrt:getenv.obj
 0001:0006ae74       _wdupenv_s                 000000018006be74 f   libucrt:getenv.obj
 0001:0006ae94       _wgetenv                   000000018006be94 f   libucrt:getenv.obj
 0001:0006ae9c       _wgetenv_s                 000000018006be9c f   libucrt:getenv.obj
 0001:0006aea4       getenv                     000000018006bea4 f   libucrt:getenv.obj
 0001:0006aeac       getenv_s                   000000018006beac f   libucrt:getenv.obj
 0001:0006afc0       qsort                      000000018006bfc0 f   libucrt:qsort.obj
 0001:0006b4b0       strncpy_s                  000000018006c4b0 f   libucrt:strncpy_s.obj
 0001:0006b640       strpbrk                    000000018006c640 f   libucrt:strpbrk.obj
 0001:0006ba08       _mbsdec                    000000018006ca08 f   libucrt:mbsdec.obj
 0001:0006ba10       _mbsdec_l                  000000018006ca10 f   libucrt:mbsdec.obj
 0001:0006bdc4       __acrt_LCMapStringA        000000018006cdc4 f   libucrt:lcmapstringa.obj
 0001:0006be74       _wcsnicoll                 000000018006ce74 f   libucrt:wcsnicol.obj
 0001:0006bec4       _wcsnicoll_l               000000018006cec4 f   libucrt:wcsnicol.obj
 0001:0006bfb4       _strnicoll                 000000018006cfb4 f   libucrt:strnicol.obj
 0001:0006bfcc       _strnicoll_l               000000018006cfcc f   libucrt:strnicol.obj
 0001:0006c0cc       __acrt_SetEnvironmentVariableA 000000018006d0cc f   libucrt:setenvironmentvariablea.obj
 0001:0006c3f0       __acrt_GetLocaleInfoA      000000018006d3f0 f   libucrt:getlocaleinfoa.obj
 0001:0006caa4       _i64toa                    000000018006daa4 f   libucrt:xtoa.obj
 0001:0006cad8       _i64toa_s                  000000018006dad8 f   libucrt:xtoa.obj
 0001:0006cafc       _i64tow                    000000018006dafc f   libucrt:xtoa.obj
 0001:0006cb30       _i64tow_s                  000000018006db30 f   libucrt:xtoa.obj
 0001:0006cb54       _itoa                      000000018006db54 f   libucrt:xtoa.obj
 0001:0006cb84       _itoa_s                    000000018006db84 f   libucrt:xtoa.obj
 0001:0006cba4       _itow                      000000018006dba4 f   libucrt:xtoa.obj
 0001:0006cbd4       _itow_s                    000000018006dbd4 f   libucrt:xtoa.obj
 0001:0006cbf4       _ltoa                      000000018006dbf4 f   libucrt:xtoa.obj
 0001:0006cc24       _ltoa_s                    000000018006dc24 f   libucrt:xtoa.obj
 0001:0006cc44       _ltow                      000000018006dc44 f   libucrt:xtoa.obj
 0001:0006cc74       _ltow_s                    000000018006dc74 f   libucrt:xtoa.obj
 0001:0006cc94       _ui64toa                   000000018006dc94 f   libucrt:xtoa.obj
 0001:0006ccb8       _ui64toa_s                 000000018006dcb8 f   libucrt:xtoa.obj
 0001:0006cccc       _ui64tow                   000000018006dccc f   libucrt:xtoa.obj
 0001:0006ccf0       _ui64tow_s                 000000018006dcf0 f   libucrt:xtoa.obj
 0001:0006cd04       _ultoa                     000000018006dd04 f   libucrt:xtoa.obj
 0001:0006cd28       _ultoa_s                   000000018006dd28 f   libucrt:xtoa.obj
 0001:0006cd3c       _ultow                     000000018006dd3c f   libucrt:xtoa.obj
 0001:0006cd60       _ultow_s                   000000018006dd60 f   libucrt:xtoa.obj
 0001:0006cd74       _controlfp_s               000000018006dd74 f   libucrt:contrlfp.obj
 0001:0006cdd8       fegetenv                   000000018006ddd8 f   libucrt:fegetenv.obj
 0001:0006cdf8       fesetenv                   000000018006ddf8 f   libucrt:fesetenv.obj
 0001:0006ce44       feholdexcept               000000018006de44 f   libucrt:feholdexcept.obj
 0001:0006ce94       ceil                       000000018006de94 f   libucrt:ceil.obj
 0001:0006cf60       log10                      000000018006df60 f   libucrt:log10.obj
 0001:0006d50c       ??$__acrt_fenv_shift_bits@W4__acrt_fenv_abstract_control@@@@YA?AW4__acrt_fenv_abstract_control@@W40@0I@Z 000000018006e50c f i libucrt:_fenvutils.obj
 0001:0006d518       ??$__acrt_fenv_shift_bits@W4__acrt_fenv_abstract_status@@@@YA?AW4__acrt_fenv_abstract_status@@W40@0I@Z 000000018006e518 f i libucrt:_fenvutils.obj
 0001:0006d524       ??$__acrt_fenv_translate_bit@W4__acrt_fenv_abstract_control@@W4__acrt_fenv_machine_sse_control@@@@YA?AW4__acrt_fenv_abstract_control@@W4__acrt_fenv_machine_sse_control@@0W40@1@Z 000000018006e524 f i libucrt:_fenvutils.obj
 0001:0006d530       ??$__acrt_fenv_translate_bit@W4__acrt_fenv_abstract_status@@W4__acrt_fenv_machine_sse_status@@@@YA?AW4__acrt_fenv_abstract_status@@W4__acrt_fenv_machine_sse_status@@0W40@1@Z 000000018006e530 f i libucrt:_fenvutils.obj
 0001:0006d53c       ??$__acrt_fenv_translate_bit@W4__acrt_fenv_machine_sse_control@@W4__acrt_fenv_abstract_control@@@@YA?AW4__acrt_fenv_machine_sse_control@@W4__acrt_fenv_abstract_control@@0W40@1@Z 000000018006e53c f i libucrt:_fenvutils.obj
 0001:0006d548       ??$__acrt_fenv_translate_bit@W4__acrt_fenv_machine_sse_status@@W4__acrt_fenv_abstract_status@@@@YA?AW4__acrt_fenv_machine_sse_status@@W4__acrt_fenv_abstract_status@@0W40@1@Z 000000018006e548 f i libucrt:_fenvutils.obj
 0001:0006d554       ??$__acrt_fenv_unshift_bits@W4__acrt_fenv_abstract_control@@@@YA?AW4__acrt_fenv_abstract_control@@W40@0I@Z 000000018006e554 f i libucrt:_fenvutils.obj
 0001:0006d560       ??$__acrt_fenv_unshift_bits@W4__acrt_fenv_abstract_status@@@@YA?AW4__acrt_fenv_abstract_status@@W40@0I@Z 000000018006e560 f i libucrt:_fenvutils.obj
 0001:0006d724       ??I@YA?AW4__acrt_fenv_abstract_control@@W40@0@Z 000000018006e724 f i libucrt:_fenvutils.obj
 0001:0006d72c       ??I@YA?AW4__acrt_fenv_abstract_status@@W40@0@Z 000000018006e72c f i libucrt:_fenvutils.obj
 0001:0006d734       ??I@YA?AW4__acrt_fenv_machine_sse_control@@W40@0@Z 000000018006e734 f i libucrt:_fenvutils.obj
 0001:0006d73c       ??I@YA?AW4__acrt_fenv_machine_sse_status@@W40@0@Z 000000018006e73c f i libucrt:_fenvutils.obj
 0001:0006d744       ??U@YA?AW4__acrt_fenv_abstract_control@@W40@0@Z 000000018006e744 f i libucrt:_fenvutils.obj
 0001:0006d74c       ??U@YA?AW4__acrt_fenv_abstract_status@@W40@0@Z 000000018006e74c f i libucrt:_fenvutils.obj
 0001:0006d754       ??U@YA?AW4__acrt_fenv_machine_sse_control@@W40@0@Z 000000018006e754 f i libucrt:_fenvutils.obj
 0001:0006d75c       ??_5@YAAEAW4__acrt_fenv_abstract_control@@AEAW40@W40@@Z 000000018006e75c f i libucrt:_fenvutils.obj
 0001:0006d764       ??_5@YAAEAW4__acrt_fenv_abstract_status@@AEAW40@W40@@Z 000000018006e764 f i libucrt:_fenvutils.obj
 0001:0006d76c       ??_5@YAAEAW4__acrt_fenv_machine_sse_control@@AEAW40@W40@@Z 000000018006e76c f i libucrt:_fenvutils.obj
 0001:0006d774       ??_5@YAAEAW4__acrt_fenv_machine_sse_status@@AEAW40@W40@@Z 000000018006e774 f i libucrt:_fenvutils.obj
 0001:0006d77c       ?__acrt_fenv_shift_abstract_sse_control@@YA?AW4__acrt_fenv_abstract_control@@W41@@Z 000000018006e77c f i libucrt:_fenvutils.obj
 0001:0006d790       ?__acrt_fenv_shift_abstract_sse_status@@YA?AW4__acrt_fenv_abstract_status@@W41@@Z 000000018006e790 f i libucrt:_fenvutils.obj
 0001:0006d79c       ?__acrt_fenv_unshift_abstract_sse_control@@YA?AW4__acrt_fenv_abstract_control@@W41@@Z 000000018006e79c f i libucrt:_fenvutils.obj
 0001:0006d7b4       ?__acrt_fenv_unshift_abstract_sse_status@@YA?AW4__acrt_fenv_abstract_status@@W41@@Z 000000018006e7b4 f i libucrt:_fenvutils.obj
 0001:0006da70       __acrt_fenv_expand_round_control 000000018006ea70 f   libucrt:_fenvutils.obj
 0001:0006da88       __acrt_fenv_get_common_round_control 000000018006ea88 f   libucrt:_fenvutils.obj
 0001:0006da94       __acrt_fenv_get_control    000000018006ea94 f   libucrt:_fenvutils.obj
 0001:0006db78       __acrt_fenv_get_fp_status_word_from_exception_mask 000000018006eb78 f   libucrt:_fenvutils.obj
 0001:0006db84       __acrt_fenv_get_status     000000018006eb84 f   libucrt:_fenvutils.obj
 0001:0006dbdc       __acrt_fenv_set_control    000000018006ebdc f   libucrt:_fenvutils.obj
 0001:0006dd18       __acrt_fenv_set_status     000000018006ed18 f   libucrt:_fenvutils.obj
 0001:0006dd8c       ?reset_and_return@__crt_mbstring@@YA_K_KPEAU_Mbstatet@@@Z 000000018006ed8c f   libucrt:common_utf8.obj
 0001:0006dd94       ?return_illegal_sequence@__crt_mbstring@@YA_KPEAU_Mbstatet@@AEAV__crt_cached_ptd_host@@@Z 000000018006ed94 f   libucrt:common_utf8.obj
 0001:0006dda8       ?__mbrtoc32_utf8@__crt_mbstring@@YA_KPEA_UPEBD_KPEAU_Mbstatet@@AEAV__crt_cached_ptd_host@@@Z 000000018006eda8 f   libucrt:mbrtoc32.obj
 0001:0006df84       mbrtoc32                   000000018006ef84 f   libucrt:mbrtoc32.obj
 0001:0006e50c       _lseek                     000000018006f50c f   libucrt:lseek.obj
 0001:0006e5a4       _lseek_internal            000000018006f5a4 f   libucrt:lseek.obj
 0001:0006e5ac       _lseek_nolock              000000018006f5ac f   libucrt:lseek.obj
 0001:0006e644       _lseek_nolock_internal     000000018006f644 f   libucrt:lseek.obj
 0001:0006e64c       _lseeki64                  000000018006f64c f   libucrt:lseek.obj
 0001:0006e6e8       _lseeki64_internal         000000018006f6e8 f   libucrt:lseek.obj
 0001:0006e6f0       _lseeki64_nolock           000000018006f6f0 f   libucrt:lseek.obj
 0001:0006e78c       _lseeki64_nolock_internal  000000018006f78c f   libucrt:lseek.obj
 0001:0006e794       __acrt_stdio_allocate_buffer_nolock 000000018006f794 f   libucrt:_getbuf.obj
 0001:0006e8d8       __acrt_report_runtime_error 000000018006f8d8 f   libucrt:report_runtime_error.obj
 0001:0006ea38       _query_app_type            000000018006fa38 f   libucrt:report_runtime_error.obj
 0001:0006ea40       _set_app_type              000000018006fa40 f   libucrt:report_runtime_error.obj
 0001:0006eae4       _putwch                    000000018006fae4 f   libucrt:putwch.obj
 0001:0006eb20       _putwch_nolock             000000018006fb20 f   libucrt:putwch.obj
 0001:0006eb5c       _putwch_nolock_internal    000000018006fb5c f   libucrt:putwch.obj
 0001:0006f27c       _read                      000000018007027c f   libucrt:read.obj
 0001:0006f398       _read_nolock               0000000180070398 f   libucrt:read.obj
 0001:0006f7e4       ??$__crt_interlocked_read@H@@YAHPEDH@Z 00000001800707e4 f i libucrt:setmode.obj
 0001:0006f7e8       _get_fmode                 00000001800707e8 f   libucrt:setmode.obj
 0001:0006f818       _set_fmode                 0000000180070818 f   libucrt:setmode.obj
 0001:0006f858       _setmode                   0000000180070858 f   libucrt:setmode.obj
 0001:0006f95c       _setmode_nolock            000000018007095c f   libucrt:setmode.obj
 0001:0006fb00       ??0__crt_seek_guard@@QEAA@H_J@Z 0000000180070b00 f i libucrt:chsize.obj
 0001:0006fb58       ??1__crt_seek_guard@@QEAA@XZ 0000000180070b58 f i libucrt:chsize.obj
 0001:0006fca4       ?check@?$cached@K@__crt_cached_ptd_host@@QEBA_NK@Z 0000000180070ca4 f i libucrt:chsize.obj
 0001:0006fcb4       _chsize                    0000000180070cb4 f   libucrt:chsize.obj
 0001:0006fccc       _chsize_nolock             0000000180070ccc f   libucrt:chsize.obj
 0001:0006fd64       _chsize_nolock_internal    0000000180070d64 f   libucrt:chsize.obj
 0001:0006fef8       _chsize_s                  0000000180070ef8 f   libucrt:chsize.obj
 0001:00070048       _umask                     0000000180071048 f   libucrt:umask.obj
 0001:0007005c       _umask_s                   000000018007105c f   libucrt:umask.obj
 0001:0007009c       __strncnt                  000000018007109c f   libucrt:strncnt.obj
 0001:000700b4       __acrt_CompareStringW      00000001800710b4 f   libucrt:comparestringw.obj
 0001:000704f4       __acrt_CompareStringA      00000001800714f4 f   libucrt:comparestringa.obj
 0001:000706a4       _clearfp                   00000001800716a4 f   libucrt:ieee.obj
 0001:00070714       _control87                 0000000180071714 f   libucrt:ieee.obj
 0001:0007071c       _controlfp                 000000018007171c f   libucrt:ieee.obj
 0001:00070728       _fpreset                   0000000180071728 f   libucrt:ieee.obj
 0001:000707f4       _set_controlfp             00000001800717f4 f   libucrt:ieee.obj
 0001:00070828       _statusfp                  0000000180071828 f   libucrt:ieee.obj
 0001:00070c70       _handle_error              0000000180071c70 f   libucrt:libm_error.obj
 0001:00070d98       _handle_errorf             0000000180071d98 f   libucrt:libm_error.obj
 0001:00070ecc       _handle_nan                0000000180071ecc f   libucrt:libm_error.obj
 0001:00070ee8       _handle_nanf               0000000180071ee8 f   libucrt:libm_error.obj
 0001:00070f00       __acrt_initialize_fma3     0000000180071f00 f   libucrt:fma3_available.obj
 0001:00070f70       _get_FMA3_enable           0000000180071f70 f   libucrt:fma3_available.obj
 0001:00070f78       _set_FMA3_enable           0000000180071f78 f   libucrt:fma3_available.obj
 0001:00070f90       _log10_special             0000000180071f90 f   libucrt:log_special.obj
 0001:00070fb0       _log10f_special            0000000180071fb0 f   libucrt:log_special.obj
 0001:00070fd0       _log_special               0000000180071fd0 f   libucrt:log_special.obj
 0001:00071088       _logf_special              0000000180072088 f   libucrt:log_special.obj
 0001:00071144       _set_error_mode            0000000180072144 f   libucrt:set_error_mode.obj
 0001:000712cc       ??$message_box@$$TAEBQEBDAEBQEBDK@?$__crt_char_traits@D@@SAH$$QEA$$TAEBQEBD1$$QEAK@Z 00000001800722cc f i libucrt:crtmbox.obj
 0001:000712e0       ??$message_box@$$TAEBQEB_WAEBQEB_WK@?$__crt_char_traits@_W@@SAH$$QEA$$TAEBQEB_W1$$QEAK@Z 00000001800722e0 f i libucrt:crtmbox.obj
 0001:000712f4       ??$message_box@PEAUHWND__@@AEBQEBDAEBQEBDAEBI@?$__crt_char_traits@D@@SAH$$QEAPEAUHWND__@@AEBQEBD1AEBI@Z 00000001800722f4 f i libucrt:crtmbox.obj
 0001:00071308       ??$message_box@PEAUHWND__@@AEBQEB_WAEBQEB_WAEBI@?$__crt_char_traits@_W@@SAH$$QEAPEAUHWND__@@AEBQEB_W1AEBI@Z 0000000180072308 f i libucrt:crtmbox.obj
 0001:0007131c       ??$output_debug_string@AEBQEBD@?$__crt_char_traits@D@@SAXAEBQEBD@Z 000000018007231c f i libucrt:crtmbox.obj
 0001:00071324       ??$output_debug_string@AEBQEB_W@?$__crt_char_traits@_W@@SAXAEBQEB_W@Z 0000000180072324 f i libucrt:crtmbox.obj
 0001:00071330       __acrt_show_narrow_message_box 0000000180072330 f   libucrt:crtmbox.obj
 0001:000713d4       __acrt_show_wide_message_box 00000001800723d4 f   libucrt:crtmbox.obj
 0001:000715a0       __dcrt_lowio_ensure_console_output_initialized 00000001800725a0 f   libucrt:initcon.obj
 0001:000715f4       __dcrt_terminate_console_output 00000001800725f4 f   libucrt:initcon.obj
 0001:00071610       __dcrt_write_console       0000000180072610 f   libucrt:initcon.obj
 0001:000716d0       ?dangerous_get_state_array@?$dual_state_global@H@__crt_state_management@@QEAAPEAHXZ 00000001800726d0 f i libucrt:txtmode.obj
 0001:000716d4       __acrt_initialize_fmode    00000001800726d4 f   libucrt:txtmode.obj
 0001:000716f0       __p__fmode                 00000001800726f0 f   libucrt:txtmode.obj
 0001:00071710       _get_fpsr                  0000000180072710 f   libucrt:fpsr.obj
 0001:00071720       _set_fpsr                  0000000180072720 f   libucrt:fpsr.obj
 0001:0007172a       _fclrf                     000000018007272a f   libucrt:fpsr.obj
 0001:0007173e       _frnd                      000000018007273e f   libucrt:fpsr.obj
 0001:00071760       ?should_round_up@__crt_strtox@@YA_N_N000@Z 0000000180072760 f i libucrt:fpexcept.obj
 0001:000717e8       _errcode                   00000001800727e8 f   libucrt:fpexcept.obj
 0001:0007182c       _except1                   000000018007282c f   libucrt:fpexcept.obj
 0001:00071920       _except2                   0000000180072920 f   libucrt:fpexcept.obj
 0001:00071a5c       _handle_exc                0000000180072a5c f   libucrt:fpexcept.obj
 0001:00071d54       _handle_qnan2              0000000180072d54 f   libucrt:fpexcept.obj
 0001:00071d5c       _raise_exc                 0000000180072d5c f   libucrt:fpexcept.obj
 0001:00071d84       _raise_exc_ex              0000000180072d84 f   libucrt:fpexcept.obj
 0001:00072094       _raise_excf                0000000180073094 f   libucrt:fpexcept.obj
 0001:000720c0       _set_errno_from_matherr    00000001800730c0 f   libucrt:fpexcept.obj
 0001:000720f0       _umatherr                  00000001800730f0 f   libucrt:fpexcept.obj
 0001:000721c0       _clrfp                     00000001800731c0 f   libucrt:fpctrl.obj
 0001:000721e0       _ctrlfp                    00000001800731e0 f   libucrt:fpctrl.obj
 0001:0007225c       _set_statfp                000000018007325c f   libucrt:fpctrl.obj
 0001:0007227c       _statfp                    000000018007327c f   libucrt:fpctrl.obj
 0001:00072290       __acrt_OutputDebugStringA  0000000180073290 f   libucrt:outputdebugstringa.obj
 0001:0007232c       _add_exp                   000000018007332c f   libucrt:util.obj
 0001:0007237c       _decomp                    000000018007337c f   libucrt:util.obj
 0001:000724ac       _get_exp                   00000001800734ac f   libucrt:util.obj
 0001:000724cc       _set_bexp                  00000001800734cc f   libucrt:util.obj
 0001:000724fc       _set_exp                   00000001800734fc f   libucrt:util.obj
