 BugSplat

 Timestamp is 63d2d24b (Thu Jan 26 19:19:39 2023)

 Preferred load address is 10000000

 Start         Length     Name                   Class
 0001:00000000 00000190H .text$di                CODE
 0001:00000190 0005b53aH .text$mn                CODE
 0001:0005b6ca 00000ec8H .text$x                 CODE
 0001:0005c592 00000123H .text$yd                CODE
 0002:00000000 000002b0H .idata$5                DATA
 0002:000002b0 00000008H .00cfg                  DATA
 0002:000002b8 00000004H .CRT$XCA                DATA
 0002:000002bc 00000004H .CRT$XCL                DATA
 0002:000002c0 00000028H .CRT$XCU                DATA
 0002:000002e8 00000004H .CRT$XCZ                DATA
 0002:000002ec 00000004H .CRT$XIA                DATA
 0002:000002f0 00000018H .CRT$XIC                DATA
 0002:00000308 00000004H .CRT$XIZ                DATA
 0002:0000030c 00000004H .CRT$XLA                DATA
 0002:00000310 00000004H .CRT$XLZ                DATA
 0002:00000314 00000004H .CRT$XPA                DATA
 0002:00000318 00000008H .CRT$XPX                DATA
 0002:00000320 00000004H .CRT$XPXA               DATA
 0002:00000324 00000004H .CRT$XPZ                DATA
 0002:00000328 00000004H .CRT$XTA                DATA
 0002:0000032c 00000004H .CRT$XTZ                DATA
 0002:00000330 00000000H .gfids$y                DATA
 0002:00000330 0000abd0H .rdata                  DATA
 0002:0000af00 00000004H .rdata$CastGuardVftablesA DATA
 0002:0000af04 00000004H .rdata$CastGuardVftablesC DATA
 0002:0000af08 00000018H .rdata$T                DATA
 0002:0000af20 000009b4H .rdata$r                DATA
 0002:0000b8d4 00000144H .rdata$sxdata           DATA
 0002:0000ba18 00000038H .rdata$voltmd           DATA
 0002:0000ba50 00000460H .rdata$zzzdbg           DATA
 0002:0000beb0 00000004H .rtc$IAA                DATA
 0002:0000beb4 00000004H .rtc$IZZ                DATA
 0002:0000beb8 00000004H .rtc$TAA                DATA
 0002:0000bebc 00000004H .rtc$TZZ                DATA
 0002:0000bec0 00000008H .tls                    DATA
 0002:0000bec8 00000014H .tls$                   DATA
 0002:0000bedc 00000004H .tls$ZZZ                DATA
 0002:0000bee0 00001e34H .xdata$x                DATA
 0002:0000dd14 00000004H ATL$__a                 DATA
 0002:0000dd18 00000008H ATL$__z                 DATA
 0002:0000dd20 0000097cH .edata                  DATA
 0002:0000e69c 000000a0H .idata$2                DATA
 0002:0000e73c 00000014H .idata$3                DATA
 0002:0000e750 000002b0H .idata$4                DATA
 0002:0000ea00 00000c02H .idata$6                DATA
 0003:00000000 00000a80H .data                   DATA
 0003:00000a80 000001b8H .data$r                 DATA
 0003:00000c38 00000298H .data$rs                DATA
 0003:00000ed0 000048ecH .bss                    DATA
 0004:00000000 00000120H .rsrc$01                DATA
 0004:00000120 00000b30H .rsrc$02                DATA

  Address         Publics by Value              Rva+Base       Lib:Object

 0000:00000000       ___x64_code_ranges_to_entry_points 00000000     <absolute>
 0000:00000000       ___arm64x_extra_rfe_table_size 00000000     <absolute>
 0000:00000000       ___guard_check_icall_a64n_fptr 00000000     <absolute>
 0000:00000000       ___hybrid_auxiliary_iat    00000000     <absolute>
 0000:00000000       ___dynamic_value_reloc_table 00000000     <absolute>
 0000:00000000       ___arm64x_redirection_metadata_count 00000000     <absolute>
 0000:00000000       ___guard_eh_cont_table     00000000     <absolute>
 0000:00000000       ___guard_fids_table        00000000     <absolute>
 0000:00000000       ___guard_fids_count        00000000     <absolute>
 0000:00000000       ___guard_eh_cont_count     00000000     <absolute>
 0000:00000000       ___enclave_config          00000000     <absolute>
 0000:00000000       ___guard_longjmp_table     00000000     <absolute>
 0000:00000000       ___x64_code_ranges_to_entry_points_count 00000000     <absolute>
 0000:00000000       __except_list              00000000     <absolute>
 0000:00000000       ___AbsoluteZero            00000000     <absolute>
 0000:00000000       ___arm64x_redirection_metadata 00000000     <absolute>
 0000:00000000       ___hybrid_code_map_count   00000000     <absolute>
 0000:00000000       ___guard_iat_table         00000000     <absolute>
 0000:00000000       ___guard_iat_count         00000000     <absolute>
 0000:00000000       ___hybrid_code_map         00000000     <absolute>
 0000:00000000       ___arm64x_extra_rfe_table  00000000     <absolute>
 0000:00000000       ___arm64x_native_entrypoint 00000000     <absolute>
 0000:00000000       ___hybrid_auxiliary_iat_copy 00000000     <absolute>
 0000:00000000       ___guard_longjmp_count     00000000     <absolute>
 0000:0000002c       __tls_array                0000002c     <absolute>
 0000:00000051       ___safe_se_handler_count   00000051     <absolute>
 0000:00000100       ___guard_flags             00000100     <absolute>
 0000:00000000       ___ImageBase               10000000     <linker-defined>
 0001:00000190       ??$AtlAdd@H@ATL@@YAJPAHHH@Z 10001190 f i GenericHTTPClient.obj
 0001:000001b6       ??$AtlAdd@I@ATL@@YAJPAIII@Z 100011b6 f i GenericHTTPClient.obj
 0001:000001d9       ??$AtlAdd@K@ATL@@YAJPAKKK@Z 100011d9 f i GenericHTTPClient.obj
 0001:000001fc       ??$AtlMultiply@I@ATL@@YAJPAIII@Z 100011fc f i GenericHTTPClient.obj
 0001:0000021e       ??$AtlMultiply@K@ATL@@YAJPAKKK@Z 1000121e f i GenericHTTPClient.obj
 0001:00000240       ??$_Allocate@$07U_Default_allocate_traits@std@@$0A@@std@@YAPAXI@Z 10001240 f i GenericHTTPClient.obj
 0001:00000266       ??$_Allocate_manually_vector_aligned@U_Default_allocate_traits@std@@@std@@YAPAXI@Z 10001266 f i GenericHTTPClient.obj
 0001:00000294       ??$_Copy_memmove@PAU__GENERIC_HTTP_ARGUMENT@GenericHTTPClient@@PAU12@@std@@YAPAU__GENERIC_HTTP_ARGUMENT@GenericHTTPClient@@PAU12@00@Z 10001294 f i GenericHTTPClient.obj
 0001:000002b6       ??$_Deallocate@$07$0A@@std@@YAXPAXI@Z 100012b6 f i GenericHTTPClient.obj
 0001:000002e2       ??$_Emplace_reallocate@ABU__GENERIC_HTTP_ARGUMENT@GenericHTTPClient@@@?$vector@U__GENERIC_HTTP_ARGUMENT@GenericHTTPClient@@V?$allocator@U__GENERIC_HTTP_ARGUMENT@GenericHTTPClient@@@std@@@std@@QAEPAU__GENERIC_HTTP_ARGUMENT@GenericHTTPClient@@QAU23@ABU23@@Z 100012e2 f i GenericHTTPClient.obj
 0001:0000039f       ??$_Get_size_of_n@$0KAE@@std@@YAII@Z 1000139f f i GenericHTTPClient.obj
 0001:000003b8       ??$_Uninitialized_move@PAU__GENERIC_HTTP_ARGUMENT@GenericHTTPClient@@V?$allocator@U__GENERIC_HTTP_ARGUMENT@GenericHTTPClient@@@std@@@std@@YAPAU__GENERIC_HTTP_ARGUMENT@GenericHTTPClient@@QAU12@0PAU12@AAV?$allocator@U__GENERIC_HTTP_ARGUMENT@GenericHTTPClient@@@0@@Z 100013b8 f i GenericHTTPClient.obj
 0001:000003e7       ??$emplace_back@ABU__GENERIC_HTTP_ARGUMENT@GenericHTTPClient@@@?$vector@U__GENERIC_HTTP_ARGUMENT@GenericHTTPClient@@V?$allocator@U__GENERIC_HTTP_ARGUMENT@GenericHTTPClient@@@std@@@std@@QAE?A_TABU__GENERIC_HTTP_ARGUMENT@GenericHTTPClient@@@Z 100013e7 f i GenericHTTPClient.obj
 0001:0000041a       ??0?$CStringT@_WV?$StrTraitATL@_WV?$ChTraitsCRT@_W@ATL@@@ATL@@@ATL@@QAE@PBD@Z 1000141a f i GenericHTTPClient.obj
 0001:00000471       ??0?$CStringT@_WV?$StrTraitATL@_WV?$ChTraitsCRT@_W@ATL@@@ATL@@@ATL@@QAE@PB_W@Z 10001471 f i GenericHTTPClient.obj
 0001:000004d6       ??0CAtlComModule@ATL@@QAE@XZ 100014d6 f i GenericHTTPClient.obj
 0001:00000515       ??0CAtlException@ATL@@QAE@J@Z 10001515 f i GenericHTTPClient.obj
 0001:00000523       ??0CAtlStringMgr@ATL@@QAE@PAUIAtlMemMgr@1@@Z 10001523 f i GenericHTTPClient.obj
 0001:0000054f       ??0CAtlWinModule@ATL@@QAE@XZ 1000154f f i GenericHTTPClient.obj
 0001:0000057d       ??0GenericHTTPClient@@QAE@XZ 1000157d f   GenericHTTPClient.obj
 0001:000005ab       ??0_ATL_COM_MODULE70@ATL@@QAE@XZ 100015ab f i GenericHTTPClient.obj
 0001:000005c2       ??0_ATL_WIN_MODULE70@ATL@@QAE@XZ 100015c2 f i GenericHTTPClient.obj
 0001:000005ed       ??0bad_alloc@std@@QAE@ABV01@@Z 100015ed f i GenericHTTPClient.obj
 0001:00000608       ??0bad_array_new_length@std@@QAE@ABV01@@Z 10001608 f i GenericHTTPClient.obj
 0001:00000623       ??0bad_array_new_length@std@@QAE@XZ 10001623 f i GenericHTTPClient.obj
 0001:0000063b       ??0exception@std@@QAE@ABV01@@Z 1000163b f i GenericHTTPClient.obj
 0001:00000667       ??1?$CSimpleStringT@_W$0A@@ATL@@QAE@XZ 10001667 f i GenericHTTPClient.obj
 0001:00000671       ??1?$CStringT@_WV?$StrTraitATL@_WV?$ChTraitsCRT@_W@ATL@@@ATL@@@ATL@@QAE@XZ 10001671 f i GenericHTTPClient.obj
 0001:0000067b       ??1CAtlStringMgr@ATL@@UAE@XZ 1000167b f i GenericHTTPClient.obj
 0001:00000689       ??1CWin32Heap@ATL@@UAE@XZ  10001689 f i GenericHTTPClient.obj
 0001:000006a5       ??1GenericHTTPClient@@UAE@XZ 100016a5 f   GenericHTTPClient.obj
 0001:000006c7       ??1bad_array_new_length@std@@UAE@XZ 100016c7 f i GenericHTTPClient.obj
 0001:000006d8       ??1exception@std@@UAE@XZ   100016d8 f i GenericHTTPClient.obj
 0001:000006e9       ??4?$CStringT@_WV?$StrTraitATL@_WV?$ChTraitsCRT@_W@ATL@@@ATL@@@ATL@@QAEAAV01@PBD@Z 100016e9 f i GenericHTTPClient.obj
 0001:00000737       ??A?$CSimpleArray@GV?$CSimpleArrayEqualHelper@G@ATL@@@ATL@@QAEAAGH@Z 10001737 f i GenericHTTPClient.obj
 0001:0000075c       ??_ECAtlStringMgr@ATL@@UAEPAXI@Z 1000175c f i GenericHTTPClient.obj
 0001:0000075c       ??_GCAtlStringMgr@ATL@@UAEPAXI@Z 1000175c f i GenericHTTPClient.obj
 0001:00000786       ??_ECWin32Heap@ATL@@UAEPAXI@Z 10001786 f i GenericHTTPClient.obj
 0001:00000786       ??_GCWin32Heap@ATL@@UAEPAXI@Z 10001786 f i GenericHTTPClient.obj
 0001:000007a8       ??_EGenericHTTPClient@@UAEPAXI@Z 100017a8 f i GenericHTTPClient.obj
 0001:000007a8       ??_GGenericHTTPClient@@UAEPAXI@Z 100017a8 f i GenericHTTPClient.obj
 0001:000007cd       ??_Ebad_alloc@std@@UAEPAXI@Z 100017cd f i GenericHTTPClient.obj
 0001:000007cd       ??_Gbad_alloc@std@@UAEPAXI@Z 100017cd f i GenericHTTPClient.obj
 0001:000007fa       ??_Gbad_array_new_length@std@@UAEPAXI@Z 100017fa f i GenericHTTPClient.obj
 0001:000007fa       ??_Ebad_array_new_length@std@@UAEPAXI@Z 100017fa f i GenericHTTPClient.obj
 0001:00000827       ??_Eexception@std@@UAEPAXI@Z 10001827 f i GenericHTTPClient.obj
 0001:00000827       ??_Gexception@std@@UAEPAXI@Z 10001827 f i GenericHTTPClient.obj
 0001:00000854       ?AddPutPostArguments@GenericHTTPClient@@QAEXPB_W0H@Z 10001854 f   GenericHTTPClient.obj
 0001:000008d8       ?AddPutPostArguments@GenericHTTPClient@@QAEXPB_WK@Z 100018d8 f   GenericHTTPClient.obj
 0001:00000959       ?Allocate@CAtlStringMgr@ATL@@UAEPAUCStringData@2@HH@Z 10001959 f i GenericHTTPClient.obj
 0001:000009dc       ?Allocate@CWin32Heap@ATL@@UAEPAXI@Z 100019dc f i GenericHTTPClient.obj
 0001:000009f1       ?AtlCrtErrorCheck@ATL@@YAHH@Z 100019f1 f i GenericHTTPClient.obj
 0001:00000a2c       ?AtlFindStringResourceInstance@ATL@@YAPAUHINSTANCE__@@IG@Z 10001a2c f i GenericHTTPClient.obj
 0001:00000a70       ?AtlGetStringResourceImage@ATL@@YAPBUATLSTRINGRESOURCEIMAGE@1@PAUHINSTANCE__@@I@Z 10001a70 f i GenericHTTPClient.obj
 0001:00000aa0       ?AtlGetStringResourceImage@ATL@@YAPBUATLSTRINGRESOURCEIMAGE@1@PAUHINSTANCE__@@IG@Z 10001aa0 f i GenericHTTPClient.obj
 0001:00000ad3       ?AtlThrowImpl@ATL@@YGXJ@Z  10001ad3 f i GenericHTTPClient.obj
 0001:00000af0       ?AtlWinModuleInit@ATL@@YGJPAU_ATL_WIN_MODULE70@1@@Z 10001af0 f i GenericHTTPClient.obj
 0001:00000b16       ?AtlWinModuleTerm@ATL@@YGJPAU_ATL_WIN_MODULE70@1@PAUHINSTANCE__@@@Z 10001b16 f i GenericHTTPClient.obj
 0001:00000b79       ?CheckImplicitLoad@?$CStringT@_WV?$StrTraitATL@_WV?$ChTraitsCRT@_W@ATL@@@ATL@@@ATL@@AAE_NPBX@Z 10001b79 f i GenericHTTPClient.obj
 0001:00000b9d       ?Clone@CAtlStringMgr@ATL@@UAEPAUIAtlStringMgr@2@XZ 10001b9d f i GenericHTTPClient.obj
 0001:00000ba0       ?CloneData@?$CSimpleStringT@_W$0A@@ATL@@CAPAUCStringData@2@PAU32@@Z 10001ba0 f i GenericHTTPClient.obj
 0001:00000bfb       ?Close@GenericHTTPClient@@QAEHXZ 10001bfb f   GenericHTTPClient.obj
 0001:00000c32       ?Connect@GenericHTTPClient@@QAEHV?$CStringT@_WV?$StrTraitATL@_WV?$ChTraitsCRT@_W@ATL@@@ATL@@@ATL@@0G00@Z 10001c32 f   GenericHTTPClient.obj
 0001:00000e2d       ?ConvertToBaseType@?$ChTraitsCRT@_W@ATL@@SAXPA_WHPB_WH@Z 10001e2d f i GenericHTTPClient.obj
 0001:00000e60       ?CopyChars@?$CSimpleStringT@_W$0A@@ATL@@SAXPA_WIPB_WH@Z 10001e60 f i GenericHTTPClient.obj
 0001:00000e7f       ?CopyCharsOverlapped@?$CSimpleStringT@_W$0A@@ATL@@SAXPA_WIPB_WH@Z 10001e7f f i GenericHTTPClient.obj
 0001:00000ed0       ?CopyWideToMultibyte@GenericHTTPClient@@QAEHV?$CStringT@_WV?$StrTraitATL@_WV?$ChTraitsCRT@_W@ATL@@@ATL@@@ATL@@PADKK@Z 10001ed0 f   GenericHTTPClient.obj
 0001:00000f3e       ?DebuggerConsoleMessage@GenericHTTPClient@@QAEXXZ 10001f3e f   GenericHTTPClient.obj
 0001:00000f4f       ?Empty@?$CSimpleStringT@_W$0A@@ATL@@QAEXXZ 10001f4f f i GenericHTTPClient.obj
 0001:00000f84       ?EncodeSpecialCharacters@GenericHTTPClient@@QAE?AV?$CStringT@_WV?$StrTraitATL@_WV?$ChTraitsCRT@_W@ATL@@@ATL@@@ATL@@V23@@Z 10001f84 f   GenericHTTPClient.obj
 0001:00000fe6       ?EnsureLinked@CAtlStringMgrStaticInitializer@ATLImplementationDetails@ATL@@QAEPAXXZ 10001fe6 f i GenericHTTPClient.obj
 0001:00000fe9       ?Fork@?$CSimpleStringT@_W$0A@@ATL@@AAEXH@Z 10001fe9 f i GenericHTTPClient.obj
 0001:00001053       ?Free@CAtlStringMgr@ATL@@UAEXPAUCStringData@2@@Z 10002053 f i GenericHTTPClient.obj
 0001:0000105f       ?Free@CWin32Heap@ATL@@UAEXPAX@Z 1000205f f i GenericHTTPClient.obj
 0001:0000107a       ?GetBaseTypeLength@?$ChTraitsCRT@_W@ATL@@SAHPBD@Z 1000207a f i GenericHTTPClient.obj
 0001:00001092       ?GetContentType@GenericHTTPClient@@QAEPB_WPB_W@Z 10002092 f   GenericHTTPClient.obj
 0001:00001159       ?GetInstance@CAtlStringMgr@ATL@@SAPAUIAtlStringMgr@2@XZ 10002159 f i GenericHTTPClient.obj
 0001:00001208       ?GetNilString@CAtlStringMgr@ATL@@UAEPAUCStringData@2@XZ 10002208 f i GenericHTTPClient.obj
 0001:00001210       ?GetPostArguments@GenericHTTPClient@@QAEKPADK@Z 10002210 f   GenericHTTPClient.obj
 0001:000012f7       ?GetSize@CWin32Heap@ATL@@UAEIPAX@Z 100022f7 f i GenericHTTPClient.obj
 0001:0000130c       ?Init@CComCriticalSection@ATL@@QAEJXZ 1000230c f i GenericHTTPClient.obj
 0001:00001334       ?InitilizePutPostArguments@GenericHTTPClient@@QAEXXZ 10002334 f   GenericHTTPClient.obj
 0001:0000133b       ?LoadStringW@?$CStringT@_WV?$StrTraitATL@_WV?$ChTraitsCRT@_W@ATL@@@ATL@@@ATL@@QAEHI@Z 1000233b f i GenericHTTPClient.obj
 0001:00001361       ?LoadStringW@?$CStringT@_WV?$StrTraitATL@_WV?$ChTraitsCRT@_W@ATL@@@ATL@@@ATL@@QAEHPAUHINSTANCE__@@I@Z 10002361 f i GenericHTTPClient.obj
 0001:000013ab       ?ParseURLW@GenericHTTPClient@@QAEXPB_WPA_WH1H@Z 100023ab f   GenericHTTPClient.obj
 0001:000014b6       ?PrepareWrite2@?$CSimpleStringT@_W$0A@@ATL@@AAEXH@Z 100024b6 f i GenericHTTPClient.obj
 0001:0000150b       ?PrepareWrite@?$CSimpleStringT@_W$0A@@ATL@@AAEPA_WH@Z 1000250b f i GenericHTTPClient.obj
 0001:00001547       ?QueryHTTPResponse@GenericHTTPClient@@QAEPB_WXZ 10002547 f   GenericHTTPClient.obj
 0001:0000154b       ?QueryHTTPResponseHeader@GenericHTTPClient@@QAEPB_WXZ 1000254b f   GenericHTTPClient.obj
 0001:00001552       ?Reallocate@?$CSimpleStringT@_W$0A@@ATL@@AAEXH@Z 10002552 f i GenericHTTPClient.obj
 0001:0000158a       ?Reallocate@CAtlStringMgr@ATL@@UAEPAUCStringData@2@PAU32@HH@Z 1000258a f i GenericHTTPClient.obj
 0001:00001604       ?Reallocate@CWin32Heap@ATL@@UAEPAXPAXI@Z 10002604 f i GenericHTTPClient.obj
 0001:0000163a       ?Reconnect@GenericHTTPClient@@QAEHXZ 1000263a f   GenericHTTPClient.obj
 0001:000016c8       ?Release@CStringData@ATL@@QAEXXZ 100026c8 f i GenericHTTPClient.obj
 0001:000016e0       ?RemoveAll@?$CSimpleArray@GV?$CSimpleArrayEqualHelper@G@ATL@@@ATL@@QAEXXZ 100026e0 f i GenericHTTPClient.obj
 0001:000016fd       ?Replace@?$CStringT@_WV?$StrTraitATL@_WV?$ChTraitsCRT@_W@ATL@@@ATL@@@ATL@@QAEHPB_W0@Z 100026fd f i GenericHTTPClient.obj
 0001:00001890       ?Request@GenericHTTPClient@@QAEHPB_WH0@Z 10002890 f   GenericHTTPClient.obj
 0001:000019e4       ?RequestGet@GenericHTTPClient@@QAEHPB_W@Z 100029e4 f   GenericHTTPClient.obj
 0001:00001a7f       ?RequestOfURI@GenericHTTPClient@@QAEHPB_WH@Z 10002a7f f   GenericHTTPClient.obj
 0001:00001adc       ?RequestPost@GenericHTTPClient@@QAEHPB_W@Z 10002adc f   GenericHTTPClient.obj
 0001:00001bce       ?RequestPut@GenericHTTPClient@@QAEHPB_W@Z 10002bce f   GenericHTTPClient.obj
 0001:00001c31       ?Response@GenericHTTPClient@@QAEHPA_WK0KAAK@Z 10002c31 f   GenericHTTPClient.obj
 0001:00001db0       ?ResponseOfBytes@GenericHTTPClient@@QAEKPAEK@Z 10002db0 f   GenericHTTPClient.obj
 0001:00001dff       ?SendPutFileData@GenericHTTPClient@@QAEKXZ 10002dff f   GenericHTTPClient.obj
 0001:00001eae       ?SetLength@?$CSimpleStringT@_W$0A@@ATL@@AAEXH@Z 10002eae f i GenericHTTPClient.obj
 0001:00001ed9       ?SetString@?$CSimpleStringT@_W$0A@@ATL@@QAEXPB_WH@Z 10002ed9 f i GenericHTTPClient.obj
 0001:00001f4e       ?Term@CAtlComModule@ATL@@QAEXXZ 10002f4e f i GenericHTTPClient.obj
 0001:00001f98       ?ThrowMemoryException@?$CSimpleStringT@_W$0A@@ATL@@KAXXZ 10002f98 f i GenericHTTPClient.obj
 0001:00001fa3       ?_Adjust_manually_vector_aligned@std@@YAXAAPAXAAI@Z 10002fa3 f i GenericHTTPClient.obj
 0001:00001fc7       ?_AtlGetStringResourceImage@ATL@@YAPBUATLSTRINGRESOURCEIMAGE@1@PAUHINSTANCE__@@PAUHRSRC__@@I@Z 10002fc7 f i GenericHTTPClient.obj
 0001:00002024       ?_AtlInitializeCriticalSectionEx@ATL@@YAHPAU_RTL_CRITICAL_SECTION@@KK@Z 10003024 f i GenericHTTPClient.obj
 0001:00002038       ?_AtlRaiseException@ATL@@YAXKK@Z 10003038 f i GenericHTTPClient.obj
 0001:0000204d       ?_Calculate_growth@?$vector@U__GENERIC_HTTP_ARGUMENT@GenericHTTPClient@@V?$allocator@U__GENERIC_HTTP_ARGUMENT@GenericHTTPClient@@@std@@@std@@ABEII@Z 1000304d f i GenericHTTPClient.obj
 0001:00002080       ?_Change_array@?$vector@U__GENERIC_HTTP_ARGUMENT@GenericHTTPClient@@V?$allocator@U__GENERIC_HTTP_ARGUMENT@GenericHTTPClient@@@std@@@std@@AAEXQAU__GENERIC_HTTP_ARGUMENT@GenericHTTPClient@@II@Z 10003080 f i GenericHTTPClient.obj
 0001:000020ca       ?_Throw_bad_array_new_length@std@@YAXXZ 100030ca f i GenericHTTPClient.obj
 0001:000020e7       ?_Tidy@?$vector@U__GENERIC_HTTP_ARGUMENT@GenericHTTPClient@@V?$allocator@U__GENERIC_HTTP_ARGUMENT@GenericHTTPClient@@@std@@@std@@AAEXXZ 100030e7 f i GenericHTTPClient.obj
 0001:00002118       ?_Xlength@?$vector@U__GENERIC_HTTP_ARGUMENT@GenericHTTPClient@@V?$allocator@U__GENERIC_HTTP_ARGUMENT@GenericHTTPClient@@@std@@@std@@CAXXZ 10003118 f i GenericHTTPClient.obj
 0001:00002123       ?memcpy_s@Checked@ATL@@YAXPAXIPBXI@Z 10003123 f i GenericHTTPClient.obj
 0001:00002142       ?memmove_s@Checked@ATL@@YAXPAXIPBXI@Z 10003142 f i GenericHTTPClient.obj
 0001:00002193       ?what@exception@std@@UBEPBDXZ 10003193 f i GenericHTTPClient.obj
 0001:000021a1       ?wmemcpy_s@Checked@ATL@@YAXPA_WIPB_WI@Z 100031a1 f i GenericHTTPClient.obj
 0001:000021c0       ___local_stdio_printf_options 100031c0 f i GenericHTTPClient.obj
 0001:000021c6       __vswprintf_s_l            100031c6 f i GenericHTTPClient.obj
 0001:00002273       _swprintf_s                10003273 f i GenericHTTPClient.obj
 0001:0000228f       ??$AtlAddThrow@H@ATL@@YAHHH@Z 1000328f f i BugSplatImp.obj
 0001:000022b5       ??0?$CSimpleStringT@_W$0A@@ATL@@QAE@PB_WHPAUIAtlStringMgr@1@@Z 100032b5 f i BugSplatImp.obj
 0001:00002316       ??0?$CStringT@_WV?$StrTraitATL@_WV?$ChTraitsCRT@_W@ATL@@@ATL@@@ATL@@QAE@XZ 10003316 f i BugSplatImp.obj
 0001:0000233d       ??0BugSplatImp@@QAE@XZ     1000333d f   BugSplatImp.obj
 0001:0000235b       ??0MiniDmpSender@@QAE@ABV0@@Z 1000335b f i BugSplatImp.obj
 0001:00002373       ??4?$CSimpleStringT@_W$0A@@ATL@@QAEAAV01@ABV01@@Z 10003373 f i BugSplatImp.obj
 0001:000023c3       ??4BugSplatImp@@QAEAAV0@$$QAV0@@Z 100033c3 f i BugSplatImp.obj
 0001:00002420       ??4BugSplatImp@@QAEAAV0@ABV0@@Z 10003420 f i BugSplatImp.obj
 0001:0000243e       ??4MiniDmpSender@@QAEAAV0@ABV0@@Z 1000343e f i BugSplatImp.obj
 0001:00002450       ??A?$CSimpleStringT@_W$0A@@ATL@@QBE_WH@Z 10003450 f i BugSplatImp.obj
 0001:00002474       ??HATL@@YA?AV?$CStringT@_WV?$StrTraitATL@_WV?$ChTraitsCRT@_W@ATL@@@ATL@@@0@ABV10@0@Z 10003474 f i BugSplatImp.obj
 0001:000024db       ??_EMiniDmpSender@@UAEPAXI@Z 100034db f i BugSplatImp.obj
 0001:00002566       ??_GMiniDmpSender@@UAEPAXI@Z 10003566 f i BugSplatImp.obj
 0001:00002588       ?Append@?$CSimpleStringT@_W$0A@@ATL@@QAEXPB_WH@Z 10003588 f i BugSplatImp.obj
 0001:00002614       ?AppendChar@?$CSimpleStringT@_W$0A@@ATL@@QAEX_W@Z 10003614 f i BugSplatImp.obj
 0001:00002641       ?CalculateBeginningOfCallInstruction@@YAHAAI@Z 10003641 f   BugSplatImp.obj
 0001:00002696       ?Concatenate@?$CSimpleStringT@_W$0A@@ATL@@KAXAAV12@PB_WH1H@Z 10003696 f i BugSplatImp.obj
 0001:000026dd       ?CreateMiniDump@BugSplatImp@@QAEHPAUHINSTANCE__@@KPAXKPAU_EXCEPTION_POINTERS@@W4_BS_MINIDUMP_TYPE@MiniDmpSender@@PB_WPA_WK@Z 100036dd f   BugSplatImp.obj
 0001:000028c7       ?CreateMiniDumpFromSnap@@YAHPAXKKW4_BS_MINIDUMP_TYPE@MiniDmpSender@@P6GH0K0W4_MINIDUMP_TYPE@@QAU_MINIDUMP_EXCEPTION_INFORMATION@@QAU_MINIDUMP_USER_STREAM_INFORMATION@@QAU_MINIDUMP_CALLBACK_INFORMATION@@@Z0PAU_CONTEXT@@@Z 100038c7 f   BugSplatImp.obj
 0001:00002a0d       ?Find@?$CStringT@_WV?$StrTraitATL@_WV?$ChTraitsCRT@_W@ATL@@@ATL@@@ATL@@QBEHPB_WH@Z 10003a0d f i BugSplatImp.obj
 0001:00002a47       ?GetManager@?$CStringT@_WV?$StrTraitATL@_WV?$ChTraitsCRT@_W@ATL@@@ATL@@@ATL@@QBEPAUIAtlStringMgr@2@XZ 10003a47 f i BugSplatImp.obj
 0001:00002a66       ?GetReducedGuid@BugSplatImp@@QAEXPA_WK@Z 10003a66 f   BugSplatImp.obj
 0001:00002af0       ?Left@?$CStringT@_WV?$StrTraitATL@_WV?$ChTraitsCRT@_W@ATL@@@ATL@@@ATL@@QBE?AV12@H@Z 10003af0 f i BugSplatImp.obj
 0001:00002b35       ?MakeUpper@?$CStringT@_WV?$StrTraitATL@_WV?$ChTraitsCRT@_W@ATL@@@ATL@@@ATL@@QAEAAV12@XZ 10003b35 f i BugSplatImp.obj
 0001:00002b5d       ?Mid@?$CStringT@_WV?$StrTraitATL@_WV?$ChTraitsCRT@_W@ATL@@@ATL@@@ATL@@QBE?AV12@HH@Z 10003b5d f i BugSplatImp.obj
 0001:00002be3       ?ReduceGuidString@BugSplatImp@@QAEXPA_WK@Z 10003be3 f   BugSplatImp.obj
 0001:00002e88       ?ResumeSuspendedThreads@BugSplatImp@@QAEXXZ 10003e88 f   BugSplatImp.obj
 0001:00002ec2       ?SnapCurrentProcessMinidump@@YAHPAXKKW4_BS_MINIDUMP_TYPE@MiniDmpSender@@P6GH0K0W4_MINIDUMP_TYPE@@QAU_MINIDUMP_EXCEPTION_INFORMATION@@QAU_MINIDUMP_USER_STREAM_INFORMATION@@QAU_MINIDUMP_CALLBACK_INFORMATION@@@Z0@Z 10003ec2 f   BugSplatImp.obj
 0001:00003088       ?StringUppercase@?$ChTraitsCRT@_W@ATL@@SAPA_WPA_WI@Z 10004088 f i BugSplatImp.obj
 0001:000030a4       ?SuspendAllThreadsInProcess@BugSplatImp@@QAEXPAX@Z 100040a4 f   BugSplatImp.obj
 0001:0000314e       ?SuspendThreadsInCurrentProcess@BugSplatImp@@QAEXXZ 1000414e f   BugSplatImp.obj
 0001:0000320c       ?UINTtoWchar_t@@YA_WI@Z    1000420c f   BugSplatImp.obj
 0001:0000322e       ?Wchar_tToUINT@@YAI_W@Z    1000422e f   BugSplatImp.obj
 0001:0000325a       ?combine1_4@@YAIII@Z       1000425a f   BugSplatImp.obj
 0001:0000326b       ?combine2_3@@YAIII@Z       1000426b f   BugSplatImp.obj
 0001:00003280       ?combine3_2@@YAIII@Z       10004280 f   BugSplatImp.obj
 0001:00003296       ?combine4_1@@YAIII@Z       10004296 f   BugSplatImp.obj
 0001:000032a8       ?combineLast3@@YAII@Z      100042a8 f   BugSplatImp.obj
 0001:000032b3       ?createReportAndExit@MiniDmpSender@@QAEXXZ 100042b3 f i BugSplatImp.obj
 0001:000032dd       ??$?8V?$MemoryPoolAllocator@VCrtAllocator@rapidjson@@@rapidjson@@@?$GenericValue@U?$UTF16@_W@rapidjson@@V?$MemoryPoolAllocator@VCrtAllocator@rapidjson@@@2@@rapidjson@@QBE_NABV01@@Z 100042dd f i mdump.obj
 0001:00003423       ??$?A$$CB_W@?$GenericValue@U?$UTF16@_W@rapidjson@@V?$MemoryPoolAllocator@VCrtAllocator@rapidjson@@@2@@rapidjson@@QAEAAV01@PB_W@Z 10004423 f i mdump.obj
 0001:00003478       ??$?AV?$MemoryPoolAllocator@VCrtAllocator@rapidjson@@@rapidjson@@@?$GenericValue@U?$UTF16@_W@rapidjson@@V?$MemoryPoolAllocator@VCrtAllocator@rapidjson@@@2@@rapidjson@@QAEAAV01@ABV01@@Z 10004478 f i mdump.obj
 0001:000034c4       ??$DoFindMember@V?$MemoryPoolAllocator@VCrtAllocator@rapidjson@@@rapidjson@@@?$GenericValue@U?$UTF16@_W@rapidjson@@V?$MemoryPoolAllocator@VCrtAllocator@rapidjson@@@2@@rapidjson@@AAE?AV?$GenericMemberIterator@$0A@U?$UTF16@_W@rapidjson@@V?$MemoryPoolAllocator@VCrtAllocator@rapidjson@@@2@@1@ABV01@@Z 100044c4 f i mdump.obj
 0001:00003504       ??$Encode@V?$StackStream@_W@?$GenericReader@U?$UTF16@_W@rapidjson@@U12@VCrtAllocator@2@@rapidjson@@@?$UTF16@_W@rapidjson@@SAXAAV?$StackStream@_W@?$GenericReader@U?$UTF16@_W@rapidjson@@U12@VCrtAllocator@2@@1@I@Z 10004504 f i mdump.obj
 0001:0000359a       ??$Expand@V?$GenericValue@U?$UTF16@_W@rapidjson@@V?$MemoryPoolAllocator@VCrtAllocator@rapidjson@@@2@@rapidjson@@@?$Stack@VCrtAllocator@rapidjson@@@internal@rapidjson@@AAEXI@Z 1000459a f i mdump.obj
 0001:000035e9       ??$Expand@_W@?$Stack@VCrtAllocator@rapidjson@@@internal@rapidjson@@AAEXI@Z 100045e9 f i mdump.obj
 0001:0000363a       ??$Parse@$0A@U?$GenericStringStream@U?$UTF16@_W@rapidjson@@@rapidjson@@V?$GenericDocument@U?$UTF16@_W@rapidjson@@V?$MemoryPoolAllocator@VCrtAllocator@rapidjson@@@2@VCrtAllocator@2@@2@@?$GenericReader@U?$UTF16@_W@rapidjson@@U12@VCrtAllocator@2@@rapidjson@@QAE?AUParseResult@1@AAU?$GenericStringStream@U?$UTF16@_W@rapidjson@@@1@AAV?$GenericDocument@U?$UTF16@_W@rapidjson@@V?$MemoryPoolAllocator@VCrtAllocator@rapidjson@@@2@VCrtAllocator@2@@1@@Z 1000463a f i mdump.obj
 0001:000036ca       ??$ParseArray@$0A@U?$GenericStringStream@U?$UTF16@_W@rapidjson@@@rapidjson@@V?$GenericDocument@U?$UTF16@_W@rapidjson@@V?$MemoryPoolAllocator@VCrtAllocator@rapidjson@@@2@VCrtAllocator@2@@2@@?$GenericReader@U?$UTF16@_W@rapidjson@@U12@VCrtAllocator@2@@rapidjson@@AAEXAAU?$GenericStringStream@U?$UTF16@_W@rapidjson@@@1@AAV?$GenericDocument@U?$UTF16@_W@rapidjson@@V?$MemoryPoolAllocator@VCrtAllocator@rapidjson@@@2@VCrtAllocator@2@@1@@Z 100046ca f i mdump.obj
 0001:0000379a       ??$ParseFalse@$0A@U?$GenericStringStream@U?$UTF16@_W@rapidjson@@@rapidjson@@V?$GenericDocument@U?$UTF16@_W@rapidjson@@V?$MemoryPoolAllocator@VCrtAllocator@rapidjson@@@2@VCrtAllocator@2@@2@@?$GenericReader@U?$UTF16@_W@rapidjson@@U12@VCrtAllocator@2@@rapidjson@@AAEXAAU?$GenericStringStream@U?$UTF16@_W@rapidjson@@@1@AAV?$GenericDocument@U?$UTF16@_W@rapidjson@@V?$MemoryPoolAllocator@VCrtAllocator@rapidjson@@@2@VCrtAllocator@2@@1@@Z 1000479a f i mdump.obj
 0001:00003808       ??$ParseHex4@U?$GenericStringStream@U?$UTF16@_W@rapidjson@@@rapidjson@@@?$GenericReader@U?$UTF16@_W@rapidjson@@U12@VCrtAllocator@2@@rapidjson@@AAEIAAU?$GenericStringStream@U?$UTF16@_W@rapidjson@@@1@I@Z 10004808 f i mdump.obj
 0001:00003877       ??$ParseNull@$0A@U?$GenericStringStream@U?$UTF16@_W@rapidjson@@@rapidjson@@V?$GenericDocument@U?$UTF16@_W@rapidjson@@V?$MemoryPoolAllocator@VCrtAllocator@rapidjson@@@2@VCrtAllocator@2@@2@@?$GenericReader@U?$UTF16@_W@rapidjson@@U12@VCrtAllocator@2@@rapidjson@@AAEXAAU?$GenericStringStream@U?$UTF16@_W@rapidjson@@@1@AAV?$GenericDocument@U?$UTF16@_W@rapidjson@@V?$MemoryPoolAllocator@VCrtAllocator@rapidjson@@@2@VCrtAllocator@2@@1@@Z 10004877 f i mdump.obj
 0001:000038d9       ??$ParseNumber@$0A@U?$GenericStringStream@U?$UTF16@_W@rapidjson@@@rapidjson@@V?$GenericDocument@U?$UTF16@_W@rapidjson@@V?$MemoryPoolAllocator@VCrtAllocator@rapidjson@@@2@VCrtAllocator@2@@2@@?$GenericReader@U?$UTF16@_W@rapidjson@@U12@VCrtAllocator@2@@rapidjson@@AAEXAAU?$GenericStringStream@U?$UTF16@_W@rapidjson@@@1@AAV?$GenericDocument@U?$UTF16@_W@rapidjson@@V?$MemoryPoolAllocator@VCrtAllocator@rapidjson@@@2@VCrtAllocator@2@@1@@Z 100048d9 f i mdump.obj
 0001:00003f2f       ??$ParseObject@$0A@U?$GenericStringStream@U?$UTF16@_W@rapidjson@@@rapidjson@@V?$GenericDocument@U?$UTF16@_W@rapidjson@@V?$MemoryPoolAllocator@VCrtAllocator@rapidjson@@@2@VCrtAllocator@2@@2@@?$GenericReader@U?$UTF16@_W@rapidjson@@U12@VCrtAllocator@2@@rapidjson@@AAEXAAU?$GenericStringStream@U?$UTF16@_W@rapidjson@@@1@AAV?$GenericDocument@U?$UTF16@_W@rapidjson@@V?$MemoryPoolAllocator@VCrtAllocator@rapidjson@@@2@VCrtAllocator@2@@1@@Z 10004f2f f i mdump.obj
 0001:00004060       ??$ParseStream@$0A@U?$UTF16@_W@rapidjson@@U?$GenericStringStream@U?$UTF16@_W@rapidjson@@@2@@?$GenericDocument@U?$UTF16@_W@rapidjson@@V?$MemoryPoolAllocator@VCrtAllocator@rapidjson@@@2@VCrtAllocator@2@@rapidjson@@QAEAAV01@AAU?$GenericStringStream@U?$UTF16@_W@rapidjson@@@1@@Z 10005060 f i mdump.obj
 0001:000040de       ??$ParseString@$0A@U?$GenericStringStream@U?$UTF16@_W@rapidjson@@@rapidjson@@V?$GenericDocument@U?$UTF16@_W@rapidjson@@V?$MemoryPoolAllocator@VCrtAllocator@rapidjson@@@2@VCrtAllocator@2@@2@@?$GenericReader@U?$UTF16@_W@rapidjson@@U12@VCrtAllocator@2@@rapidjson@@AAEXAAU?$GenericStringStream@U?$UTF16@_W@rapidjson@@@1@AAV?$GenericDocument@U?$UTF16@_W@rapidjson@@V?$MemoryPoolAllocator@VCrtAllocator@rapidjson@@@2@VCrtAllocator@2@@1@_N@Z 100050de f i mdump.obj
 0001:00004342       ??$ParseTrue@$0A@U?$GenericStringStream@U?$UTF16@_W@rapidjson@@@rapidjson@@V?$GenericDocument@U?$UTF16@_W@rapidjson@@V?$MemoryPoolAllocator@VCrtAllocator@rapidjson@@@2@VCrtAllocator@2@@2@@?$GenericReader@U?$UTF16@_W@rapidjson@@U12@VCrtAllocator@2@@rapidjson@@AAEXAAU?$GenericStringStream@U?$UTF16@_W@rapidjson@@@1@AAV?$GenericDocument@U?$UTF16@_W@rapidjson@@V?$MemoryPoolAllocator@VCrtAllocator@rapidjson@@@2@VCrtAllocator@2@@1@@Z 10005342 f i mdump.obj
 0001:000043a5       ??$ParseValue@$0A@U?$GenericStringStream@U?$UTF16@_W@rapidjson@@@rapidjson@@V?$GenericDocument@U?$UTF16@_W@rapidjson@@V?$MemoryPoolAllocator@VCrtAllocator@rapidjson@@@2@VCrtAllocator@2@@2@@?$GenericReader@U?$UTF16@_W@rapidjson@@U12@VCrtAllocator@2@@rapidjson@@AAEXAAU?$GenericStringStream@U?$UTF16@_W@rapidjson@@@1@AAV?$GenericDocument@U?$UTF16@_W@rapidjson@@V?$MemoryPoolAllocator@VCrtAllocator@rapidjson@@@2@VCrtAllocator@2@@1@@Z 100053a5 f i mdump.obj
 0001:0000440f       ??$SkipWhitespace@U?$GenericStringStream@U?$UTF16@_W@rapidjson@@@rapidjson@@@rapidjson@@YAXAAU?$GenericStringStream@U?$UTF16@_W@rapidjson@@@0@@Z 1000540f f i mdump.obj
 0001:0000443f       ??$StringEqual@V?$MemoryPoolAllocator@VCrtAllocator@rapidjson@@@rapidjson@@@?$GenericValue@U?$UTF16@_W@rapidjson@@V?$MemoryPoolAllocator@VCrtAllocator@rapidjson@@@2@@rapidjson@@ABE_NABV01@@Z 1000543f f i mdump.obj
 0001:0000449a       ??$_Destroy_range@V?$allocator@V?$CStringT@_WV?$StrTraitATL@_WV?$ChTraitsCRT@_W@ATL@@@ATL@@@ATL@@@std@@@std@@YAXPAV?$CStringT@_WV?$StrTraitATL@_WV?$ChTraitsCRT@_W@ATL@@@ATL@@@ATL@@QAV12@AAV?$allocator@V?$CStringT@_WV?$StrTraitATL@_WV?$ChTraitsCRT@_W@ATL@@@ATL@@@ATL@@@0@@Z 1000549a f i mdump.obj
 0001:000044b7       ??$_Emplace_reallocate@V?$CStringT@_WV?$StrTraitATL@_WV?$ChTraitsCRT@_W@ATL@@@ATL@@@ATL@@@?$vector@V?$CStringT@_WV?$StrTraitATL@_WV?$ChTraitsCRT@_W@ATL@@@ATL@@@ATL@@V?$allocator@V?$CStringT@_WV?$StrTraitATL@_WV?$ChTraitsCRT@_W@ATL@@@ATL@@@ATL@@@std@@@std@@QAEPAV?$CStringT@_WV?$StrTraitATL@_WV?$ChTraitsCRT@_W@ATL@@@ATL@@@ATL@@QAV23@$$QAV23@@Z 100054b7 f i mdump.obj
 0001:0000459c       ??$_Uninitialized_copy@PAV?$CStringT@_WV?$StrTraitATL@_WV?$ChTraitsCRT@_W@ATL@@@ATL@@@ATL@@V?$allocator@V?$CStringT@_WV?$StrTraitATL@_WV?$ChTraitsCRT@_W@ATL@@@ATL@@@ATL@@@std@@@std@@YAPAV?$CStringT@_WV?$StrTraitATL@_WV?$ChTraitsCRT@_W@ATL@@@ATL@@@ATL@@QAV12@0PAV12@AAV?$allocator@V?$CStringT@_WV?$StrTraitATL@_WV?$ChTraitsCRT@_W@ATL@@@ATL@@@ATL@@@0@@Z 1000559c f i mdump.obj
 0001:000045ec       ??$_Uninitialized_move@PAV?$CStringT@_WV?$StrTraitATL@_WV?$ChTraitsCRT@_W@ATL@@@ATL@@@ATL@@V?$allocator@V?$CStringT@_WV?$StrTraitATL@_WV?$ChTraitsCRT@_W@ATL@@@ATL@@@ATL@@@std@@@std@@YAPAV?$CStringT@_WV?$StrTraitATL@_WV?$ChTraitsCRT@_W@ATL@@@ATL@@@ATL@@QAV12@0PAV12@AAV?$allocator@V?$CStringT@_WV?$StrTraitATL@_WV?$ChTraitsCRT@_W@ATL@@@ATL@@@ATL@@@0@@Z 100055ec f i mdump.obj
 0001:0000463c       ??$construct@V?$CStringT@_WV?$StrTraitATL@_WV?$ChTraitsCRT@_W@ATL@@@ATL@@@ATL@@AAV12@@?$_Default_allocator_traits@V?$allocator@V?$CStringT@_WV?$StrTraitATL@_WV?$ChTraitsCRT@_W@ATL@@@ATL@@@ATL@@@std@@@std@@SAXAAV?$allocator@V?$CStringT@_WV?$StrTraitATL@_WV?$ChTraitsCRT@_W@ATL@@@ATL@@@ATL@@@1@QAV?$CStringT@_WV?$StrTraitATL@_WV?$ChTraitsCRT@_W@ATL@@@ATL@@@ATL@@AAV34@@Z 1000563c f i mdump.obj
 0001:00004658       ??$construct@V?$CStringT@_WV?$StrTraitATL@_WV?$ChTraitsCRT@_W@ATL@@@ATL@@@ATL@@V12@@?$_Default_allocator_traits@V?$allocator@V?$CStringT@_WV?$StrTraitATL@_WV?$ChTraitsCRT@_W@ATL@@@ATL@@@ATL@@@std@@@std@@SAXAAV?$allocator@V?$CStringT@_WV?$StrTraitATL@_WV?$ChTraitsCRT@_W@ATL@@@ATL@@@ATL@@@1@QAV?$CStringT@_WV?$StrTraitATL@_WV?$ChTraitsCRT@_W@ATL@@@ATL@@@ATL@@$$QAV34@@Z 10005658 f i mdump.obj
 0001:00004674       ??$emplace_back@V?$CStringT@_WV?$StrTraitATL@_WV?$ChTraitsCRT@_W@ATL@@@ATL@@@ATL@@@?$vector@V?$CStringT@_WV?$StrTraitATL@_WV?$ChTraitsCRT@_W@ATL@@@ATL@@@ATL@@V?$allocator@V?$CStringT@_WV?$StrTraitATL@_WV?$ChTraitsCRT@_W@ATL@@@ATL@@@ATL@@@std@@@std@@QAE?A_T$$QAV?$CStringT@_WV?$StrTraitATL@_WV?$ChTraitsCRT@_W@ATL@@@ATL@@@ATL@@@Z 10005674 f i mdump.obj
 0001:0000469f       ??0?$CStringT@_WV?$StrTraitATL@_WV?$ChTraitsCRT@_W@ATL@@@ATL@@@ATL@@QAE@PB_WPAUIAtlStringMgr@1@@Z 1000569f f i mdump.obj
 0001:00004700       ??0?$GenericDocument@U?$UTF16@_W@rapidjson@@V?$MemoryPoolAllocator@VCrtAllocator@rapidjson@@@2@VCrtAllocator@2@@rapidjson@@QAE@PAV?$MemoryPoolAllocator@VCrtAllocator@rapidjson@@@1@IPAVCrtAllocator@1@@Z 10005700 f i mdump.obj
 0001:00004786       ??0?$GenericValue@U?$UTF16@_W@rapidjson@@V?$MemoryPoolAllocator@VCrtAllocator@rapidjson@@@2@@rapidjson@@QAE@H@Z 10005786 f i mdump.obj
 0001:000047b7       ??0?$GenericValue@U?$UTF16@_W@rapidjson@@V?$MemoryPoolAllocator@VCrtAllocator@rapidjson@@@2@@rapidjson@@QAE@I@Z 100057b7 f i mdump.obj
 0001:000047e4       ??0?$GenericValue@U?$UTF16@_W@rapidjson@@V?$MemoryPoolAllocator@VCrtAllocator@rapidjson@@@2@@rapidjson@@QAE@PB_WIAAV?$MemoryPoolAllocator@VCrtAllocator@rapidjson@@@1@@Z 100057e4 f i mdump.obj
 0001:0000481e       ??0?$GenericValue@U?$UTF16@_W@rapidjson@@V?$MemoryPoolAllocator@VCrtAllocator@rapidjson@@@2@@rapidjson@@QAE@_J@Z 1000581e f i mdump.obj
 0001:0000488e       ??0?$GenericValue@U?$UTF16@_W@rapidjson@@V?$MemoryPoolAllocator@VCrtAllocator@rapidjson@@@2@@rapidjson@@QAE@_K@Z 1000588e f i mdump.obj
 0001:000048f0       ??0?$MemoryPoolAllocator@VCrtAllocator@rapidjson@@@rapidjson@@QAE@IPAVCrtAllocator@1@@Z 100058f0 f i mdump.obj
 0001:0000496e       ??0MiniDumper@@QAE@XZ      1000596e f   mdump.obj
 0001:00004b07       ??0TotalUptimeAndCrashCalculator@@QAE@PB_W00@Z 10005b07 f i mdump.obj
 0001:00004c14       ??1?$CHeapPtr@_WVCLocalAllocator@ATL@@@ATL@@QAE@XZ 10005c14 f i mdump.obj
 0001:00004c24       ??1?$GenericDocument@U?$UTF16@_W@rapidjson@@V?$MemoryPoolAllocator@VCrtAllocator@rapidjson@@@2@VCrtAllocator@2@@rapidjson@@QAE@XZ 10005c24 f i mdump.obj
 0001:00004c45       ??1?$GenericReader@U?$UTF16@_W@rapidjson@@U12@VCrtAllocator@2@@rapidjson@@QAE@XZ 10005c45 f i mdump.obj
 0001:00004c4a       ??1?$GenericValue@U?$UTF16@_W@rapidjson@@V?$MemoryPoolAllocator@VCrtAllocator@rapidjson@@@2@@rapidjson@@QAE@XZ 10005c4a f i mdump.obj
 0001:00004c4d       ??1?$MemoryPoolAllocator@VCrtAllocator@rapidjson@@@rapidjson@@QAE@XZ 10005c4d f i mdump.obj
 0001:00004c89       ??1?$Stack@VCrtAllocator@rapidjson@@@internal@rapidjson@@QAE@XZ 10005c89 f i mdump.obj
 0001:00004c8e       ??1?$StreamLocalCopy@U?$GenericStringStream@U?$UTF16@_W@rapidjson@@@rapidjson@@$00@internal@rapidjson@@QAE@XZ 10005c8e f i mdump.obj
 0001:00004c9e       ??1?$_Uninitialized_backout_al@V?$allocator@V?$CStringT@_WV?$StrTraitATL@_WV?$ChTraitsCRT@_W@ATL@@@ATL@@@ATL@@@std@@@std@@QAE@XZ 10005c9e f i mdump.obj
 0001:00004caf       ??1?$vector@V?$CStringT@_WV?$StrTraitATL@_WV?$ChTraitsCRT@_W@ATL@@@ATL@@@ATL@@V?$allocator@V?$CStringT@_WV?$StrTraitATL@_WV?$ChTraitsCRT@_W@ATL@@@ATL@@@ATL@@@std@@@std@@QAE@XZ 10005caf f i mdump.obj
 0001:00004cb4       ??1ClearStackOnExit@?$GenericDocument@U?$UTF16@_W@rapidjson@@V?$MemoryPoolAllocator@VCrtAllocator@rapidjson@@@2@VCrtAllocator@2@@rapidjson@@QAE@XZ 10005cb4 f i mdump.obj
 0001:00004cc4       ??1ClearStackOnExit@?$GenericReader@U?$UTF16@_W@rapidjson@@U12@VCrtAllocator@2@@rapidjson@@QAE@XZ 10005cc4 f i mdump.obj
 0001:00004ccd       ??1DumpData@@QAE@XZ        10005ccd f i mdump.obj
 0001:00004cd8       ??1MiniDumper@@UAE@XZ      10005cd8 f   mdump.obj
 0001:00004d7b       ??1ResourceSwitch@@QAE@XZ  10005d7b f i mdump.obj
 0001:00004d8e       ??1TotalUptimeAndCrashCalculator@@QAE@XZ 10005d8e f i mdump.obj
 0001:00004e17       ??4?$GenericValue@U?$UTF16@_W@rapidjson@@V?$MemoryPoolAllocator@VCrtAllocator@rapidjson@@@2@@rapidjson@@QAEAAV01@AAV01@@Z 10005e17 f i mdump.obj
 0001:00004e46       ??8?$GenericValue@U?$UTF16@_W@rapidjson@@V?$MemoryPoolAllocator@VCrtAllocator@rapidjson@@@2@@rapidjson@@QBE_NPB_W@Z 10005e46 f i mdump.obj
 0001:00004e8f       ??B?$CSimpleStringT@_W$0A@@ATL@@QBEPB_WXZ 10005e8f f i mdump.obj
 0001:00004e92       ??HATL@@YA?AV?$CStringT@_WV?$StrTraitATL@_WV?$ChTraitsCRT@_W@ATL@@@ATL@@@0@ABV10@PB_W@Z 10005e92 f i mdump.obj
 0001:00004f04       ??HATL@@YA?AV?$CStringT@_WV?$StrTraitATL@_WV?$ChTraitsCRT@_W@ATL@@@ATL@@@0@PB_WABV10@@Z 10005f04 f i mdump.obj
 0001:00004f7e       ??_G?$CStringT@_WV?$StrTraitATL@_WV?$ChTraitsCRT@_W@ATL@@@ATL@@@ATL@@QAEPAXI@Z 10005f7e f i mdump.obj
 0001:00004fa5       ??_GMiniDumper@@UAEPAXI@Z  10005fa5 f i mdump.obj
 0001:00004fa5       ??_EMiniDumper@@UAEPAXI@Z  10005fa5 f i mdump.obj
 0001:00004fc7       ?AddChunk@?$MemoryPoolAllocator@VCrtAllocator@rapidjson@@@rapidjson@@AAE_NI@Z 10005fc7 f i mdump.obj
 0001:00005018       ?AllocGuardMemory@MiniDumper@@QAE_NXZ 10006018 f   mdump.obj
 0001:0000503c       ?AtlMessageBox@WTL@@YAHPAUHWND__@@V_U_STRINGorID@ATL@@1I@Z 1000603c f i mdump.obj
 0001:00005165       ?Bool@?$GenericDocument@U?$UTF16@_W@rapidjson@@V?$MemoryPoolAllocator@VCrtAllocator@rapidjson@@@2@VCrtAllocator@2@@rapidjson@@QAE_N_N@Z 10006165 f i mdump.obj
 0001:000051a8       ?Clear@?$MemoryPoolAllocator@VCrtAllocator@rapidjson@@@rapidjson@@QAEXXZ 100061a8 f i mdump.obj
 0001:000051c9       ?CreateReportThreaded@MiniDumper@@SGIPAX@Z 100061c9 f   mdump.obj
 0001:00005546       ?Delete@?$CStringT@_WV?$StrTraitATL@_WV?$ChTraitsCRT@_W@ATL@@@ATL@@@ATL@@QAEHHH@Z 10006546 f i mdump.obj
 0001:000055c4       ?Delta@TotalUptimeAndCrashCalculator@@QAE_JU_SYSTEMTIME@@0@Z 100065c4 f i mdump.obj
 0001:00005620       ?Destroy@?$GenericDocument@U?$UTF16@_W@rapidjson@@V?$MemoryPoolAllocator@VCrtAllocator@rapidjson@@@2@VCrtAllocator@2@@rapidjson@@AAEXXZ 10006620 f i mdump.obj
 0001:0000563b       ?Destroy@?$Stack@VCrtAllocator@rapidjson@@@internal@rapidjson@@AAEXXZ 1000663b f i mdump.obj
 0001:00005655       ?Double@?$GenericDocument@U?$UTF16@_W@rapidjson@@V?$MemoryPoolAllocator@VCrtAllocator@rapidjson@@@2@VCrtAllocator@2@@rapidjson@@QAE_NN@Z 10006655 f i mdump.obj
 0001:0000569e       ?EndArray@?$GenericDocument@U?$UTF16@_W@rapidjson@@V?$MemoryPoolAllocator@VCrtAllocator@rapidjson@@@2@VCrtAllocator@2@@rapidjson@@QAE_NI@Z 1000669e f i mdump.obj
 0001:000056c4       ?EndObject@?$GenericDocument@U?$UTF16@_W@rapidjson@@V?$MemoryPoolAllocator@VCrtAllocator@rapidjson@@@2@VCrtAllocator@2@@rapidjson@@QAE_NI@Z 100066c4 f i mdump.obj
 0001:000056ea       ?ExceptionHandler@MiniDumper@@SGJPAU_EXCEPTION_POINTERS@@K@Z 100066ea f   mdump.obj
 0001:000059b8       ?FastPath@internal@rapidjson@@YANNH@Z 100069b8 f i mdump.obj
 0001:000059eb       ?FindMember@?$GenericValue@U?$UTF16@_W@rapidjson@@V?$MemoryPoolAllocator@VCrtAllocator@rapidjson@@@2@@rapidjson@@QAE?AV?$GenericMemberIterator@$0A@U?$UTF16@_W@rapidjson@@V?$MemoryPoolAllocator@VCrtAllocator@rapidjson@@@2@@2@PB_W@Z 100069eb f i mdump.obj
 0001:00005a48       ?Format@?$CStringT@_WV?$StrTraitATL@_WV?$ChTraitsCRT@_W@ATL@@@ATL@@@ATL@@QAAXPB_WZZ 10006a48 f i mdump.obj
 0001:00005a5c       ?Format@?$ChTraitsCRT@_W@ATL@@SAHPA_WIPB_WPAD@Z 10006a5c f i mdump.obj
 0001:00005a8d       ?FormatMessageV@?$CStringT@_WV?$StrTraitATL@_WV?$ChTraitsCRT@_W@ATL@@@ATL@@@ATL@@QAEXPB_WPAPAD@Z 10006a8d f i mdump.obj
 0001:00005bb3       ?FormatMessageW@?$CStringT@_WV?$StrTraitATL@_WV?$ChTraitsCRT@_W@ATL@@@ATL@@@ATL@@QAAXIZZ 10006bb3 f i mdump.obj
 0001:00005c39       ?FormatV@?$CStringT@_WV?$StrTraitATL@_WV?$ChTraitsCRT@_W@ATL@@@ATL@@@ATL@@QAEXPB_WPAD@Z 10006c39 f i mdump.obj
 0001:00005cbf       ?FreeGuardMemory@MiniDumper@@QAE_NXZ 10006cbf f   mdump.obj
 0001:00005cdd       ?GetBuffer@?$CSimpleStringT@_W$0A@@ATL@@QAEPA_WXZ 10006cdd f i mdump.obj
 0001:00005cf4       ?GetDouble@?$GenericValue@U?$UTF16@_W@rapidjson@@V?$MemoryPoolAllocator@VCrtAllocator@rapidjson@@@2@@rapidjson@@QBENXZ 10006cf4 f i mdump.obj
 0001:00005d61       ?GetFormattedLength@?$ChTraitsCRT@_W@ATL@@SAHPB_WPAD@Z 10006d61 f i mdump.obj
 0001:00005d8f       ?GetFullDumpEnabledStatus@MiniDumper@@SA_NXZ 10006d8f f   mdump.obj
 0001:00006084       ?GetMFA@MiniDumper@@SA_NPAXPA_WH@Z 10007084 f   mdump.obj
 0001:00006199       ?GetStringLength@?$GenericValue@U?$UTF16@_W@rapidjson@@V?$MemoryPoolAllocator@VCrtAllocator@rapidjson@@@2@@rapidjson@@QBEIXZ 10007199 f i mdump.obj
 0001:000061b4       ?Int64@?$GenericDocument@U?$UTF16@_W@rapidjson@@V?$MemoryPoolAllocator@VCrtAllocator@rapidjson@@@2@VCrtAllocator@2@@rapidjson@@QAE_N_J@Z 100071b4 f i mdump.obj
 0001:000061ec       ?Int@?$GenericDocument@U?$UTF16@_W@rapidjson@@V?$MemoryPoolAllocator@VCrtAllocator@rapidjson@@@2@VCrtAllocator@2@@rapidjson@@QAE_NH@Z 100071ec f i mdump.obj
 0001:00006221       ?IsError@ParseResult@rapidjson@@QBE_NXZ 10007221 f i mdump.obj
 0001:00006228       ?LaunchHangDetection@MiniDumper@@QAEX_N@Z 10007228 f   mdump.obj
 0001:00006393       ?MakeLower@?$CStringT@_WV?$StrTraitATL@_WV?$ChTraitsCRT@_W@ATL@@@ATL@@@ATL@@QAEAAV12@XZ 10007393 f i mdump.obj
 0001:000063bb       ?Malloc@?$MemoryPoolAllocator@VCrtAllocator@rapidjson@@@rapidjson@@QAEPAXI@Z 100073bb f i mdump.obj
 0001:0000640d       ?Null@?$GenericDocument@U?$UTF16@_W@rapidjson@@V?$MemoryPoolAllocator@VCrtAllocator@rapidjson@@@2@VCrtAllocator@2@@rapidjson@@QAE_NXZ 1000740d f i mdump.obj
 0001:0000643c       ?Realloc@CrtAllocator@rapidjson@@QAEPAXPAXII@Z 1000743c f i mdump.obj
 0001:00006462       ?ReleaseBuffer@?$CSimpleStringT@_W$0A@@ATL@@QAEXH@Z 10007462 f i mdump.obj
 0001:0000648e       ?Resize@?$Stack@VCrtAllocator@rapidjson@@@internal@rapidjson@@AAEXI@Z 1000748e f i mdump.obj
 0001:000064c6       ?ResolveMiniDumpType@MiniDumper@@SA?AW4_BS_MINIDUMP_TYPE@MiniDmpSender@@XZ 100074c6 f   mdump.obj
 0001:00006506       ?SendReportThreaded@MiniDumper@@SGIPAX@Z 10007506 f   mdump.obj
 0001:000069d9       ?SetArrayRaw@?$GenericValue@U?$UTF16@_W@rapidjson@@V?$MemoryPoolAllocator@VCrtAllocator@rapidjson@@@2@@rapidjson@@AAEXPAV12@IAAV?$MemoryPoolAllocator@VCrtAllocator@rapidjson@@@2@@Z 100079d9 f i mdump.obj
 0001:00006a1f       ?SetObjectRaw@?$GenericValue@U?$UTF16@_W@rapidjson@@V?$MemoryPoolAllocator@VCrtAllocator@rapidjson@@@2@@rapidjson@@AAEXPAV?$GenericMember@U?$UTF16@_W@rapidjson@@V?$MemoryPoolAllocator@VCrtAllocator@rapidjson@@@2@@2@IAAV?$MemoryPoolAllocator@VCrtAllocator@rapidjson@@@2@@Z 10007a1f f i mdump.obj
 0001:00006a65       ?SetStringRaw@?$GenericValue@U?$UTF16@_W@rapidjson@@V?$MemoryPoolAllocator@VCrtAllocator@rapidjson@@@2@@rapidjson@@AAEXU?$GenericStringRef@_W@2@AAV?$MemoryPoolAllocator@VCrtAllocator@rapidjson@@@2@@Z 10007a65 f i mdump.obj
 0001:00006aca       ?ShrinkToFit@?$Stack@VCrtAllocator@rapidjson@@@internal@rapidjson@@QAEXXZ 10007aca f i mdump.obj
 0001:00006af6       ?StartArray@?$GenericDocument@U?$UTF16@_W@rapidjson@@V?$MemoryPoolAllocator@VCrtAllocator@rapidjson@@@2@VCrtAllocator@2@@rapidjson@@QAE_NXZ 10007af6 f i mdump.obj
 0001:00006b2e       ?StartObject@?$GenericDocument@U?$UTF16@_W@rapidjson@@V?$MemoryPoolAllocator@VCrtAllocator@rapidjson@@@2@VCrtAllocator@2@@rapidjson@@QAE_NXZ 10007b2e f i mdump.obj
 0001:00006b66       ?String@?$GenericDocument@U?$UTF16@_W@rapidjson@@V?$MemoryPoolAllocator@VCrtAllocator@rapidjson@@@2@VCrtAllocator@2@@rapidjson@@QAE_NPB_WI_N@Z 10007b66 f i mdump.obj
 0001:00006bee       ?StringLowercase@?$ChTraitsCRT@_W@ATL@@SAPA_WPA_WI@Z 10007bee f i mdump.obj
 0001:00006c0a       ?StrtodNormalPrecision@internal@rapidjson@@YANNH@Z 10007c0a f i mdump.obj
 0001:00006c41       ?TerminateHangDetection@MiniDumper@@QAEXXZ 10007c41 f   mdump.obj
 0001:00006c75       ?TopLevelUnhandledExceptionFilter@MiniDumper@@SGJPAU_EXCEPTION_POINTERS@@@Z 10007c75 f   mdump.obj
 0001:00006cd9       ?TrimLeft@?$CStringT@_WV?$StrTraitATL@_WV?$ChTraitsCRT@_W@ATL@@@ATL@@@ATL@@QAEAAV12@XZ 10007cd9 f i mdump.obj
 0001:00006d3d       ?TrimRight@?$CStringT@_WV?$StrTraitATL@_WV?$ChTraitsCRT@_W@ATL@@@ATL@@@ATL@@QAEAAV12@XZ 10007d3d f i mdump.obj
 0001:00006d93       ?Uint64@?$GenericDocument@U?$UTF16@_W@rapidjson@@V?$MemoryPoolAllocator@VCrtAllocator@rapidjson@@@2@VCrtAllocator@2@@rapidjson@@QAE_N_K@Z 10007d93 f i mdump.obj
 0001:00006dcb       ?Uint@?$GenericDocument@U?$UTF16@_W@rapidjson@@V?$MemoryPoolAllocator@VCrtAllocator@rapidjson@@@2@VCrtAllocator@2@@rapidjson@@QAE_NI@Z 10007dcb f i mdump.obj
 0001:00006e00       ?_Calculate_growth@?$vector@V?$CStringT@_WV?$StrTraitATL@_WV?$ChTraitsCRT@_W@ATL@@@ATL@@@ATL@@V?$allocator@V?$CStringT@_WV?$StrTraitATL@_WV?$ChTraitsCRT@_W@ATL@@@ATL@@@ATL@@@std@@@std@@ABEII@Z 10007e00 f i mdump.obj
 0001:00006e2c       ?_Change_array@?$vector@V?$CStringT@_WV?$StrTraitATL@_WV?$ChTraitsCRT@_W@ATL@@@ATL@@@ATL@@V?$allocator@V?$CStringT@_WV?$StrTraitATL@_WV?$ChTraitsCRT@_W@ATL@@@ATL@@@ATL@@@std@@@std@@AAEXQAV?$CStringT@_WV?$StrTraitATL@_WV?$ChTraitsCRT@_W@ATL@@@ATL@@@ATL@@II@Z 10007e2c f i mdump.obj
 0001:00006e71       ?_Destroy@?$vector@V?$CStringT@_WV?$StrTraitATL@_WV?$ChTraitsCRT@_W@ATL@@@ATL@@@ATL@@V?$allocator@V?$CStringT@_WV?$StrTraitATL@_WV?$ChTraitsCRT@_W@ATL@@@ATL@@@ATL@@@std@@@std@@AAEXPAV?$CStringT@_WV?$StrTraitATL@_WV?$ChTraitsCRT@_W@ATL@@@ATL@@@ATL@@0@Z 10007e71 f i mdump.obj
 0001:00006e87       ?_Tidy@?$vector@V?$CStringT@_WV?$StrTraitATL@_WV?$ChTraitsCRT@_W@ATL@@@ATL@@@ATL@@V?$allocator@V?$CStringT@_WV?$StrTraitATL@_WV?$ChTraitsCRT@_W@ATL@@@ATL@@@ATL@@@std@@@std@@AAEXXZ 10007e87 f i mdump.obj
 0001:00006eb9       ?_Xlength@?$vector@V?$CStringT@_WV?$StrTraitATL@_WV?$ChTraitsCRT@_W@ATL@@@ATL@@@ATL@@V?$allocator@V?$CStringT@_WV?$StrTraitATL@_WV?$ChTraitsCRT@_W@ATL@@@ATL@@@ATL@@@std@@@std@@CAXXZ 10007eb9 f i mdump.obj
 0001:00006ec4       ?allocate@?$allocator@V?$CStringT@_WV?$StrTraitATL@_WV?$ChTraitsCRT@_W@ATL@@@ATL@@@ATL@@@std@@QAEPAV?$CStringT@_WV?$StrTraitATL@_WV?$ChTraitsCRT@_W@ATL@@@ATL@@@ATL@@I@Z 10007ec4 f i mdump.obj
 0001:00006ee5       ?bugsplatMessage@MiniDumper@@SAIPB_WII@Z 10007ee5 f   mdump.obj
 0001:00006f22       ?capture@TotalUptimeAndCrashCalculator@@QAEX_N@Z 10007f22 f i mdump.obj
 0001:00007078       ?createAsanReport@MiniDumper@@QAEXPBD@Z 10008078 f   mdump.obj
 0001:0000717b       ?createReport@MiniDumper@@QAEXK@Z 1000817b f   mdump.obj
 0001:0000719d       ?createReport@MiniDumper@@QAEXPAU_EXCEPTION_POINTERS@@@Z 1000819d f   mdump.obj
 0001:000071bf       ?createReport@MiniDumper@@QAEXPB_W@Z 100081bf f   mdump.obj
 0001:000072a8       ?deallocate@?$allocator@V?$CStringT@_WV?$StrTraitATL@_WV?$ChTraitsCRT@_W@ATL@@@ATL@@@ATL@@@std@@QAEXQAV?$CStringT@_WV?$StrTraitATL@_WV?$ChTraitsCRT@_W@ATL@@@ATL@@@ATL@@I@Z 100082a8 f i mdump.obj
 0001:000072c0       ?debugMode@@YA_NXZ         100082c0 f   mdump.obj
 0001:00007332       ?disableNetworkAccess@MiniDumper@@QAE_N_N@Z 10008332 f   mdump.obj
 0001:00007341       ?eatException@@YA_NK@Z     10008341 f i mdump.obj
 0001:000073b6       ?enableExceptionFilter@MiniDumper@@QAE_N_N@Z 100083b6 f   mdump.obj
 0001:000073d5       ?getLogFilePath@MiniDumper@@QAEPB_WXZ 100083d5 f   mdump.obj
 0001:000073d9       ?getMiniDumpType@MiniDumper@@QBE?AW4_BS_MINIDUMP_TYPE@MiniDmpSender@@XZ 100083d9 f   mdump.obj
 0001:000073df       ?getRegistryBase@@YAXAAV?$CStringT@_WV?$StrTraitATL@_WV?$ChTraitsCRT@_W@ATL@@@ATL@@@ATL@@@Z 100083df f   mdump.obj
 0001:000073fc       ?getRegistryRoot@@YAXAAV?$CStringT@_WV?$StrTraitATL@_WV?$ChTraitsCRT@_W@ATL@@@ATL@@@ATL@@PB_W11@Z 100083fc f   mdump.obj
 0001:0000746b       ?initExceptionHandler@MiniDumper@@QAEXPB_W000K@Z 1000846b f   mdump.obj
 0001:000076c3       ?invalid_parameter_handler@@YAXPB_W00II@Z 100086c3 f i mdump.obj
 0001:000076cc       ?isExceptionFilterEnabled@MiniDumper@@QBE_NXZ 100086cc f   mdump.obj
 0001:000076d2       ?isNetworkAccessDisabled@MiniDumper@@QBE_NXZ 100086d2 f   mdump.obj
 0001:000076d8       ?logOutput@@YAXIPB_W_N@Z   100086d8 f   mdump.obj
 0001:00007901       ?removeAdditionalFile@MiniDumper@@QAE_NPB_W@Z 10008901 f   mdump.obj
 0001:00007951       ?resetDescriptionString@MiniDumper@@QAEXPB_W@Z 10008951 f   mdump.obj
 0001:0000797b       ?resetVersionString@MiniDumper@@QAEXPB_W@Z 1000897b f   mdump.obj
 0001:000079a3       ?sendAdditionalFile@MiniDumper@@QAEXPB_W@Z 100089a3 f   mdump.obj
 0001:000079df       ?setCallback@MiniDumper@@QAEXP6A_NIPAX0@Z@Z 100089df f   mdump.obj
 0001:000079ec       ?setDefaultUserDescription@MiniDumper@@QAEXPB_W@Z 100089ec f   mdump.obj
 0001:00007a16       ?setDefaultUserEmail@MiniDumper@@QAEXPB_W@Z 10008a16 f   mdump.obj
 0001:00007a40       ?setDefaultUserName@MiniDumper@@QAEXPB_W@Z 10008a40 f   mdump.obj
 0001:00007a6a       ?setFlags@MiniDumper@@QAE_NK@Z 10008a6a f   mdump.obj
 0001:00007ab2       ?setGuardByteBufferSize@MiniDumper@@QAEHH@Z 10008ab2 f   mdump.obj
 0001:00007ade       ?setHangDetectionTimeout@MiniDumper@@QAEHH@Z 10008ade f   mdump.obj
 0001:00007af4       ?setLogFilePath@MiniDumper@@QAEXPB_W@Z 10008af4 f   mdump.obj
 0001:00007b1e       ?setMiniDumpType@MiniDumper@@QAEXW4_BS_MINIDUMP_TYPE@MiniDmpSender@@@Z 10008b1e f   mdump.obj
 0001:00007b2d       ?setNotes@MiniDumper@@QAEXPB_W@Z 10008b2d f   mdump.obj
 0001:00007b55       ?setResourceDllPath@MiniDumper@@QAEXPB_W@Z 10008b55 f   mdump.obj
 0001:00007b7f       ?setUserZipPath@MiniDumper@@QAEXPB_W@Z 10008b7f f   mdump.obj
 0001:00007ba9       ?signal_handler@@YAXH@Z    10008ba9 f i mdump.obj
 0001:00007bb2       ?terminator@@YAXXZ         10008bb2 f i mdump.obj
 0001:00007bbb       __fwprintf_p               10008bbb f i mdump.obj
 0001:00007bd4       __vfwprintf_l              10008bd4 f i mdump.obj
 0001:00007bf7       __vfwprintf_p_l            10008bf7 f i mdump.obj
 0001:00007c99       _wprintf                   10008c99 f i mdump.obj
 0001:00007cb8       ??0MiniDmpSender@@QAE@PB_W000K@Z 10008cb8 f   BugSplatNative.obj
 0001:00007d4e       ??1MiniDmpSender@@UAE@XZ   10008d4e f   BugSplatNative.obj
 0001:00007d6a       ?createAsanReport@MiniDmpSender@@QAEXPBD@Z 10008d6a f   BugSplatNative.obj
 0001:00007d76       ?createReport@MiniDmpSender@@QAEXPAU_EXCEPTION_POINTERS@@@Z 10008d76 f   BugSplatNative.obj
 0001:00007d82       ?createReport@MiniDmpSender@@QAEXPB_W@Z 10008d82 f   BugSplatNative.obj
 0001:00007d8e       ?disableNetworkAccess@MiniDmpSender@@QAE_N_N@Z 10008d8e f   BugSplatNative.obj
 0001:00007d9a       ?enableExceptionFilter@MiniDmpSender@@QAE_N_N@Z 10008d9a f   BugSplatNative.obj
 0001:00007da6       ?getFlags@MiniDmpSender@@QBEKXZ 10008da6 f   BugSplatNative.obj
 0001:00007dad       ?getMiniDumpType@MiniDmpSender@@QBE?AW4_BS_MINIDUMP_TYPE@1@XZ 10008dad f   BugSplatNative.obj
 0001:00007db5       ?getMinidumpPath@MiniDmpSender@@QAEXPA_WI@Z 10008db5 f   BugSplatNative.obj
 0001:00007dd2       ?imp@MiniDmpSender@@QAEPAXXZ 10008dd2 f   BugSplatNative.obj
 0001:00007dd8       ?isExceptionFilterEnabled@MiniDmpSender@@QBE_NXZ 10008dd8 f   BugSplatNative.obj
 0001:00007de0       ?isNetworkAccessDisabled@MiniDmpSender@@QBE_NXZ 10008de0 f   BugSplatNative.obj
 0001:00007de8       ?removeAdditionalFile@MiniDmpSender@@QAE_NPB_W@Z 10008de8 f   BugSplatNative.obj
 0001:00007df4       ?resetAppIdentifier@MiniDmpSender@@QAEXPB_W@Z 10008df4 f   BugSplatNative.obj
 0001:00007e00       ?resetVersionString@MiniDmpSender@@QAEXPB_W@Z 10008e00 f   BugSplatNative.obj
 0001:00007e0c       ?sendAdditionalFile@MiniDmpSender@@QAEXPB_W@Z 10008e0c f   BugSplatNative.obj
 0001:00007e18       ?setCallback@MiniDmpSender@@QAEXP6A_NIPAX0@Z@Z 10008e18 f   BugSplatNative.obj
 0001:00007e24       ?setDefaultUserDescription@MiniDmpSender@@QAEXPB_W@Z 10008e24 f   BugSplatNative.obj
 0001:00007e30       ?setDefaultUserEmail@MiniDmpSender@@QAEXPB_W@Z 10008e30 f   BugSplatNative.obj
 0001:00007e3c       ?setDefaultUserName@MiniDmpSender@@QAEXPB_W@Z 10008e3c f   BugSplatNative.obj
 0001:00007e48       ?setFlags@MiniDmpSender@@QAE_NK@Z 10008e48 f   BugSplatNative.obj
 0001:00007e54       ?setGuardByteBufferSize@MiniDmpSender@@QAEHH@Z 10008e54 f   BugSplatNative.obj
 0001:00007e60       ?setHangDetectionTimeout@MiniDmpSender@@QAEHH@Z 10008e60 f   BugSplatNative.obj
 0001:00007e6c       ?setLogFilePath@MiniDmpSender@@QAEXPB_W@Z 10008e6c f   BugSplatNative.obj
 0001:00007e78       ?setMiniDumpType@MiniDmpSender@@QAEXW4_BS_MINIDUMP_TYPE@1@@Z 10008e78 f   BugSplatNative.obj
 0001:00007e84       ?setNotes@MiniDmpSender@@QAEXPB_W@Z 10008e84 f   BugSplatNative.obj
 0001:00007e90       ?setResourceDllPath@MiniDmpSender@@QAEXPB_W@Z 10008e90 f   BugSplatNative.obj
 0001:00007e9c       ?setUserZipPath@MiniDmpSender@@QAEXPB_W@Z 10008e9c f   BugSplatNative.obj
 0001:00007ea8       ?unhandledExceptionHandler@MiniDmpSender@@QAEJPAU_EXCEPTION_POINTERS@@@Z 10008ea8 f   BugSplatNative.obj
 0001:00007eb1       ?Lock@CAtlModule@ATL@@UAEJXZ 10008eb1 f i BugSplatNativeApp.obj
 0001:00007ebb       ?Unlock@CAtlModule@ATL@@UAEJXZ 10008ebb f i BugSplatNativeApp.obj
 0001:00007ec5       ?GetLockCount@CAtlModule@ATL@@UAEJXZ 10008ec5 f i BugSplatNativeApp.obj
 0001:00007ec9       ?GetGITPtr@CAtlModule@ATL@@UAEJPAPAUIGlobalInterfaceTable@@@Z 10008ec9 f i BugSplatNativeApp.obj
 0001:00007f15       ?AddCommonRGSReplacements@?$CAtlModuleT@VCComModule@ATL@@@ATL@@UAEJPAUIRegistrarBase@@@Z 10008f15 f i BugSplatNativeApp.obj
 0001:00007f2f       ?UpdateRegistryFromResourceD@CComModule@ATL@@UAGJPB_WHPAU_ATL_REGMAP_ENTRY@2@@Z 10008f2f f i BugSplatNativeApp.obj
 0001:00007f37       ?UpdateRegistryFromResourceD@CComModule@ATL@@UAGJIHPAU_ATL_REGMAP_ENTRY@2@@Z 10008f37 f i BugSplatNativeApp.obj
 0001:00007f3f       ?UpdateRegistryFromResource@CComModule@ATL@@UAGJPB_WHPAU_ATL_REGMAP_ENTRY@2@@Z 10008f3f f i BugSplatNativeApp.obj
 0001:00007f48       ?UpdateRegistryFromResource@CComModule@ATL@@UAGJIHPAU_ATL_REGMAP_ENTRY@2@@Z 10008f48 f i BugSplatNativeApp.obj
 0001:00007f51       ??_GCComModule@ATL@@UAEPAXI@Z 10008f51 f i BugSplatNativeApp.obj
 0001:00007f51       ??_ECComModule@ATL@@UAEPAXI@Z 10008f51 f i BugSplatNativeApp.obj
 0001:00007f79       ??_GCAppModule@WTL@@UAEPAXI@Z 10008f79 f i BugSplatNativeApp.obj
 0001:00007f79       ??_ECAppModule@WTL@@UAEPAXI@Z 10008f79 f i BugSplatNativeApp.obj
 0001:00007fa1       ?QueryInterface@CRegObject@ATL@@UAGJABU_GUID@@PAPAX@Z 10008fa1 f i BugSplatNativeApp.obj
 0001:00007fa9       ?AddRef@CRegObject@ATL@@UAGKXZ 10008fa9 f i BugSplatNativeApp.obj
 0001:00007faf       ?Release@CRegObject@ATL@@UAGKXZ 10008faf f i BugSplatNativeApp.obj
 0001:00007fb4       ?AddReplacement@CRegObject@ATL@@UAGJPB_W0@Z 10008fb4 f i BugSplatNativeApp.obj
 0001:00008013       ?ClearReplacements@CRegObject@ATL@@UAGJXZ 10009013 f i BugSplatNativeApp.obj
 0001:0000803e       ??_GCRegObject@ATL@@UAEPAXI@Z 1000903e f i BugSplatNativeApp.obj
 0001:0000803e       ??_ECRegObject@ATL@@UAEPAXI@Z 1000903e f i BugSplatNativeApp.obj
 0001:00008060       ??$AtlMultiplyThrow@I@ATL@@YAIII@Z 10009060 f i BugSplatNativeApp.obj
 0001:00008086       ??0CAtlModule@ATL@@QAE@XZ  10009086 f i BugSplatNativeApp.obj
 0001:000080c7       ??0CParseBuffer@CRegParser@ATL@@QAE@H@Z 100090c7 f i BugSplatNativeApp.obj
 0001:000080fd       ??0CRegObject@ATL@@QAE@XZ  100090fd f i BugSplatNativeApp.obj
 0001:00008133       ??0_ATL_MODULE70@ATL@@QAE@XZ 10009133 f i BugSplatNativeApp.obj
 0001:0000814a       ??1?$CAtlSafeAllocBufferManager@VCCRTAllocator@ATL@@@_ATL_SAFE_ALLOCA_IMPL@ATL@@QAE@XZ 1000914a f i BugSplatNativeApp.obj
 0001:00008163       ??1?$CAutoVectorPtr@_W@ATL@@QAE@XZ 10009163 f i BugSplatNativeApp.obj
 0001:00008173       ??1?$CTempBuffer@E$0BAA@VCCRTAllocator@ATL@@@ATL@@QAE@XZ 10009173 f i BugSplatNativeApp.obj
 0001:0000817f       ??1?$CTempBuffer@_W$0BAA@VCCRTAllocator@ATL@@@ATL@@QAE@XZ 1000917f f i BugSplatNativeApp.obj
 0001:0000818b       ??1?$CTempBuffer@_W$0EAA@VCCRTAllocator@ATL@@@ATL@@QAE@XZ 1000918b f i BugSplatNativeApp.obj
 0001:00008197       ??1CAtlModule@ATL@@UAE@XZ  10009197 f i BugSplatNativeApp.obj
 0001:0000819c       ??1CParseBuffer@CRegParser@ATL@@QAE@XZ 1000919c f i BugSplatNativeApp.obj
 0001:000081a6       ??1CRegKey@ATL@@QAE@XZ     100091a6 f i BugSplatNativeApp.obj
 0001:000081ab       ??1CRegObject@ATL@@UAE@XZ  100091ab f i BugSplatNativeApp.obj
 0001:000081df       ??A?$CSimpleArray@PAUHWND__@@V?$CSimpleArrayEqualHelper@PAUHWND__@@@ATL@@@ATL@@QAEAAPAUHWND__@@H@Z 100091df f i BugSplatNativeApp.obj
 0001:00008204       ?Add@?$CSimpleMap@PA_WPA_WVCExpansionVectorEqualHelper@ATL@@@ATL@@QAEHABQA_W0@Z 10009204 f i BugSplatNativeApp.obj
 0001:00008259       ?Add@CExpansionVector@ATL@@QAEHPB_W0@Z 10009259 f i BugSplatNativeApp.obj
 0001:00008347       ?AddString@CParseBuffer@CRegParser@ATL@@QAEHPB_W@Z 10009347 f i BugSplatNativeApp.obj
 0001:00008383       ?AddValue@CRegParser@ATL@@IAEJAAVCRegKey@2@PB_WPA_W@Z 10009383 f i BugSplatNativeApp.obj
 0001:00008703       ?Allocate@?$CTempBuffer@E$0BAA@VCCRTAllocator@ATL@@@ATL@@QAEPAEI@Z 10009703 f i BugSplatNativeApp.obj
 0001:00008732       ?Allocate@?$CTempBuffer@_W$0BAA@VCCRTAllocator@ATL@@@ATL@@QAEPA_WI@Z 10009732 f i BugSplatNativeApp.obj
 0001:00008761       ?Allocate@?$CTempBuffer@_W$0EAA@VCCRTAllocator@ATL@@@ATL@@QAEPA_WI@Z 10009761 f i BugSplatNativeApp.obj
 0001:00008790       ?AllocateHeap@?$CTempBuffer@E$0BAA@VCCRTAllocator@ATL@@@ATL@@AAEXI@Z 10009790 f i BugSplatNativeApp.obj
 0001:000087b5       ?AllocateHeap@?$CTempBuffer@_W$0BAA@VCCRTAllocator@ATL@@@ATL@@AAEXI@Z 100097b5 f i BugSplatNativeApp.obj
 0001:000087da       ?AllocateHeap@?$CTempBuffer@_W$0EAA@VCCRTAllocator@ATL@@@ATL@@AAEXI@Z 100097da f i BugSplatNativeApp.obj
 0001:000087ff       ?Append@CParseBuffer@CRegParser@ATL@@QAEHPB_WH@Z 100097ff f i BugSplatNativeApp.obj
 0001:0000888d       ?AtlCoTaskMemCAlloc@ATL@@YAPAXKK@Z 1000988d f i BugSplatNativeApp.obj
 0001:000088ba       ?AtlCoTaskMemRecalloc@ATL@@YAPAXPAXKK@Z 100098ba f i BugSplatNativeApp.obj
 0001:000088ea       ?AtlHresultFromLastError@ATL@@YAJXZ 100098ea f i BugSplatNativeApp.obj
 0001:00008901       ?AtlHresultFromWin32@ATL@@YAJK@Z 10009901 f i BugSplatNativeApp.obj
 0001:00008916       ?CanForceRemoveKey@CRegParser@ATL@@IAEHPB_W@Z 10009916 f i BugSplatNativeApp.obj
 0001:00008945       ?ChToByte@CRegParser@ATL@@KAE_W@Z 10009945 f i BugSplatNativeApp.obj
 0001:000089cd       ?ClearReplacements@CExpansionVector@ATL@@QAEJXZ 100099cd f i BugSplatNativeApp.obj
 0001:00008a0a       ?Close@CRegKey@ATL@@QAEJXZ 10009a0a f i BugSplatNativeApp.obj
 0001:00008a24       ?DeleteSubKey@CRegKey@ATL@@QAEJPB_W@Z 10009a24 f i BugSplatNativeApp.obj
 0001:00008a9d       ?EndOfVar@CRegParser@ATL@@IAEHXZ 10009a9d f i BugSplatNativeApp.obj
 0001:00008abd       ?EscapeSingleQuote@CAtlModule@ATL@@SAXPA_WIPB_W@Z 10009abd f i BugSplatNativeApp.obj
 0001:00008b0c       ?FindKey@?$CSimpleMap@PA_WPA_WVCExpansionVectorEqualHelper@ATL@@@ATL@@QBEHABQA_W@Z 10009b0c f i BugSplatNativeApp.obj
 0001:00008b43       ?FreeHeap@?$CTempBuffer@E$0BAA@VCCRTAllocator@ATL@@@ATL@@AAEXXZ 10009b43 f i BugSplatNativeApp.obj
 0001:00008b4c       ?FreeHeap@?$CTempBuffer@_W$0BAA@VCCRTAllocator@ATL@@@ATL@@AAEXXZ 10009b4c f i BugSplatNativeApp.obj
 0001:00008b55       ?FreeHeap@?$CTempBuffer@_W$0EAA@VCCRTAllocator@ATL@@@ATL@@AAEXXZ 10009b55 f i BugSplatNativeApp.obj
 0001:00008b5e       ?GetKeyAt@?$CSimpleMap@PA_WPA_WVCExpansionVectorEqualHelper@ATL@@@ATL@@QBEAAPA_WH@Z 10009b5e f i BugSplatNativeApp.obj
 0001:00008b83       ?GetValueAt@?$CSimpleMap@PA_WPA_WVCExpansionVectorEqualHelper@ATL@@@ATL@@QBEAAPA_WH@Z 10009b83 f i BugSplatNativeApp.obj
 0001:00008ba9       ?HKeyFromString@CRegParser@ATL@@KAPAUHKEY__@@PA_W@Z 10009ba9 f i BugSplatNativeApp.obj
 0001:00008bd7       ?HasSubKeys@CRegParser@ATL@@IAEHPAUHKEY__@@@Z 10009bd7 f i BugSplatNativeApp.obj
 0001:00008c0c       ?Init@CAppModule@WTL@@QAEJPAU_ATL_OBJMAP_ENTRY30@ATL@@PAUHINSTANCE__@@PBU_GUID@@@Z 10009c0c f i BugSplatNativeApp.obj
 0001:00008c90       ?Init@CComModule@ATL@@QAEJPAU_ATL_OBJMAP_ENTRY30@2@PAUHINSTANCE__@@PBU_GUID@@@Z 10009c90 f i BugSplatNativeApp.obj
 0001:00008cef       ?InternalSetAtIndex@?$CSimpleMap@PA_WPA_WVCExpansionVectorEqualHelper@ATL@@@ATL@@QAEXHABQA_W0@Z 10009cef f i BugSplatNativeApp.obj
 0001:00008d23       ?IsSpace@CRegParser@ATL@@IAEH_W@Z 10009d23 f i BugSplatNativeApp.obj
 0001:00008d49       ?Lookup@?$CSimpleMap@PA_WPA_WVCExpansionVectorEqualHelper@ATL@@@ATL@@QBEPA_WABQA_W@Z 10009d49 f i BugSplatNativeApp.obj
 0001:00008d6f       ?NextToken@CRegParser@ATL@@IAEJPA_W@Z 10009d6f f i BugSplatNativeApp.obj
 0001:00008ea7       ?Open@CRegKey@ATL@@QAEJPAUHKEY__@@PB_WK@Z 10009ea7 f i BugSplatNativeApp.obj
 0001:00008efc       ?PreProcessBuffer@CRegParser@ATL@@QAEJPA_WPAPA_W@Z 10009efc f i BugSplatNativeApp.obj
 0001:00009149       ?RecurseDeleteKey@CRegKey@ATL@@QAEJPB_W@Z 1000a149 f i BugSplatNativeApp.obj
 0001:00009237       ?RegCreateKeyExW@CAtlTransactionManager@ATL@@QAEJPAUHKEY__@@PB_WKPA_WKKQAU_SECURITY_ATTRIBUTES@@PAPAU3@PAK@Z 1000a237 f i BugSplatNativeApp.obj
 0001:0000929a       ?RegDeleteKeyW@CAtlTransactionManager@ATL@@QAEJPAUHKEY__@@PB_W@Z 1000a29a f i BugSplatNativeApp.obj
 0001:000092ec       ?RegOpenKeyExW@CAtlTransactionManager@ATL@@QAEJPAUHKEY__@@PB_WKKPAPAU3@@Z 1000a2ec f i BugSplatNativeApp.obj
 0001:00009343       ?RegisterBuffer@CRegParser@ATL@@QAEJPA_WH@Z 1000a343 f i BugSplatNativeApp.obj
 0001:0000948a       ?RegisterFromResource@CRegObject@ATL@@IAEJPB_W00H@Z 1000a48a f i BugSplatNativeApp.obj
 0001:00009601       ?RegisterSubkeys@CRegParser@ATL@@IAEJPA_WPAUHKEY__@@HH@Z 1000a601 f i BugSplatNativeApp.obj
 0001:00009c80       ?RemoveAll@?$CSimpleArray@PAUHWND__@@V?$CSimpleArrayEqualHelper@PAUHWND__@@@ATL@@@ATL@@QAEXXZ 1000ac80 f i BugSplatNativeApp.obj
 0001:00009c9d       ?RemoveAll@?$CSimpleMap@KPAVCMessageLoop@WTL@@V?$CSimpleMapEqualHelper@KPAVCMessageLoop@WTL@@@ATL@@@ATL@@QAEXXZ 1000ac9d f i BugSplatNativeApp.obj
 0001:00009cc9       ?RemoveAll@?$CSimpleMap@PA_WPA_WVCExpansionVectorEqualHelper@ATL@@@ATL@@QAEXXZ 1000acc9 f i BugSplatNativeApp.obj
 0001:00009cf5       ?ResourceRegister@CRegObject@ATL@@QAGJPB_WI0@Z 1000acf5 f i BugSplatNativeApp.obj
 0001:00009d26       ?ResourceRegisterSz@CRegObject@ATL@@QAGJPB_W00@Z 1000ad26 f i BugSplatNativeApp.obj
 0001:00009d68       ?ResourceUnregister@CRegObject@ATL@@QAGJPB_WI0@Z 1000ad68 f i BugSplatNativeApp.obj
 0001:00009d98       ?ResourceUnregisterSz@CRegObject@ATL@@QAGJPB_W00@Z 1000ad98 f i BugSplatNativeApp.obj
 0001:00009dd7       ?SetMultiStringValue@CRegKey@ATL@@QAEJPB_W0@Z 1000add7 f i BugSplatNativeApp.obj
 0001:00009e1f       ?SetStringValue@CRegKey@ATL@@QAEJPB_W0K@Z 1000ae1f f i BugSplatNativeApp.obj
 0001:00009e59       ?SkipAssignment@CRegParser@ATL@@IAEJPA_W@Z 1000ae59 f i BugSplatNativeApp.obj
 0001:00009ebe       ?SkipWhiteSpace@CRegParser@ATL@@IAEXXZ 1000aebe f i BugSplatNativeApp.obj
 0001:00009ee0       ?StrChrW@CRegParser@ATL@@KAPA_WPA_W_W@Z 1000aee0 f i BugSplatNativeApp.obj
 0001:00009f1d       ?StrFromMap@CRegObject@ATL@@QAEPB_WPA_W@Z 1000af1d f i BugSplatNativeApp.obj
 0001:00009f4b       ?Term@CAppModule@WTL@@QAEXXZ 1000af4b f i BugSplatNativeApp.obj
 0001:00009f75       ?Term@CAtlModule@ATL@@QAEXXZ 1000af75 f i BugSplatNativeApp.obj
 0001:00009fc8       ?Term@CComModule@ATL@@QAEXXZ 1000afc8 f i BugSplatNativeApp.obj
 0001:0000a020       ?TermSettingChangeNotify@CAppModule@WTL@@QAEXXZ 1000b020 f i BugSplatNativeApp.obj
 0001:0000a07a       ?UpdateRegistryFromResource@CAtlModule@ATL@@QAGJIHPAU_ATL_REGMAP_ENTRY@2@@Z 1000b07a f i BugSplatNativeApp.obj
 0001:0000a23f       ?UpdateRegistryFromResource@CAtlModule@ATL@@QAGJPB_WHPAU_ATL_REGMAP_ENTRY@2@@Z 1000b23f f i BugSplatNativeApp.obj
 0001:0000a407       ?VTFromRegType@CRegParser@ATL@@KAHPB_WAAG@Z 1000b407 f i BugSplatNativeApp.obj
 0001:0000a474       ?ocscpy_s@@YA_NPA_WIPB_W@Z 1000b474 f i BugSplatNativeApp.obj
 0001:0000a4ae       _DllMain@12                1000b4ae f   BugSplatNativeApp.obj
 0001:0000a560       ??1stringdispid@CComTypeInfoHolder@ATL@@QAE@XZ 1000b560 f i StdAfx.obj
 0001:0000a569       ??_Estringdispid@CComTypeInfoHolder@ATL@@QAEPAXI@Z 1000b569 f i StdAfx.obj
 0001:0000a5f4       _InternetOpenW@20          1000b5f4 f   wininet:WININET.dll
 0001:0000a5fa       _InternetCloseHandle@4     1000b5fa f   wininet:WININET.dll
 0001:0000a600       _InternetConnectW@32       1000b600 f   wininet:WININET.dll
 0001:0000a606       _InternetReadFile@16       1000b606 f   wininet:WININET.dll
 0001:0000a60c       _InternetQueryOptionW@16   1000b60c f   wininet:WININET.dll
 0001:0000a612       _InternetSetOptionW@16     1000b612 f   wininet:WININET.dll
 0001:0000a618       _HttpOpenRequestW@32       1000b618 f   wininet:WININET.dll
 0001:0000a61e       _HttpSendRequestW@20       1000b61e f   wininet:WININET.dll
 0001:0000a624       _HttpQueryInfoW@20         1000b624 f   wininet:WININET.dll
 0001:0000a62a       _InternetAttemptConnect@4  1000b62a f   wininet:WININET.dll
 0001:0000a630       _PathFileExistsW@4         1000b630 f   shlwapi:SHLWAPI.dll
 0001:0000a636       _PathAppendW@8             1000b636 f   shlwapi:SHLWAPI.dll
 0001:0000a63c       _PathRemoveExtensionW@4    1000b63c f   shlwapi:SHLWAPI.dll
 0001:0000a642       _PathStripPathW@4          1000b642 f   shlwapi:SHLWAPI.dll
 0001:0000a648       _UrlEscapeW@16             1000b648 f   shlwapi:SHLWAPI.dll
 0001:0000a64e       _CreateFileW@28            1000b64e f   kernel32:KERNEL32.dll
 0001:0000a654       _GetFileSize@8             1000b654 f   kernel32:KERNEL32.dll
 0001:0000a65a       _DecodePointer@4           1000b65a f   kernel32:KERNEL32.dll
 0001:0000a660       _CloseHandle@4             1000b660 f   kernel32:KERNEL32.dll
 0001:0000a666       _RaiseException@16         1000b666 f   kernel32:KERNEL32.dll
 0001:0000a66c       _GetLastError@0            1000b66c f   kernel32:KERNEL32.dll
 0001:0000a672       _HeapDestroy@4             1000b672 f   kernel32:KERNEL32.dll
 0001:0000a678       _HeapAlloc@12              1000b678 f   kernel32:KERNEL32.dll
 0001:0000a67e       _HeapReAlloc@16            1000b67e f   kernel32:KERNEL32.dll
 0001:0000a684       _HeapFree@12               1000b684 f   kernel32:KERNEL32.dll
 0001:0000a68a       _HeapSize@12               1000b68a f   kernel32:KERNEL32.dll
 0001:0000a690       _GetProcessHeap@0          1000b690 f   kernel32:KERNEL32.dll
 0001:0000a696       _InitializeCriticalSectionEx@12 1000b696 f   kernel32:KERNEL32.dll
 0001:0000a69c       _DeleteCriticalSection@4   1000b69c f   kernel32:KERNEL32.dll
 0001:0000a6a2       _CreateFileMappingW@24     1000b6a2 f   kernel32:KERNEL32.dll
 0001:0000a6a8       _MapViewOfFile@20          1000b6a8 f   kernel32:KERNEL32.dll
 0001:0000a6ae       _UnmapViewOfFile@4         1000b6ae f   kernel32:KERNEL32.dll
 0001:0000a6b4       _FindResourceExW@16        1000b6b4 f   kernel32:KERNEL32.dll
 0001:0000a6ba       _LoadResource@8            1000b6ba f   kernel32:KERNEL32.dll
 0001:0000a6c0       _LockResource@4            1000b6c0 f   kernel32:KERNEL32.dll
 0001:0000a6c6       _SizeofResource@8          1000b6c6 f   kernel32:KERNEL32.dll
 0001:0000a6cc       _FindResourceW@12          1000b6cc f   kernel32:KERNEL32.dll
 0001:0000a6d2       _MultiByteToWideChar@24    1000b6d2 f   kernel32:KERNEL32.dll
 0001:0000a6d8       _WideCharToMultiByte@32    1000b6d8 f   kernel32:KERNEL32.dll
 0001:0000a6de       _DeleteFileW@4             1000b6de f   kernel32:KERNEL32.dll
 0001:0000a6e4       _GetTempPathW@8            1000b6e4 f   kernel32:KERNEL32.dll
 0001:0000a6ea       _GetCurrentProcess@0       1000b6ea f   kernel32:KERNEL32.dll
 0001:0000a6f0       _GetCurrentProcessId@0     1000b6f0 f   kernel32:KERNEL32.dll
 0001:0000a6f6       _GetCurrentThreadId@0      1000b6f6 f   kernel32:KERNEL32.dll
 0001:0000a6fc       _OpenThread@12             1000b6fc f   kernel32:KERNEL32.dll
 0001:0000a702       _SuspendThread@4           1000b702 f   kernel32:KERNEL32.dll
 0001:0000a708       _ResumeThread@4            1000b708 f   kernel32:KERNEL32.dll
 0001:0000a70e       _GetProcessId@4            1000b70e f   kernel32:KERNEL32.dll
 0001:0000a714       _GetThreadContext@8        1000b714 f   kernel32:KERNEL32.dll
 0001:0000a71a       _GetProcAddress@8          1000b71a f   kernel32:KERNEL32.dll
 0001:0000a720       _LoadLibraryW@4            1000b720 f   kernel32:KERNEL32.dll
 0001:0000a726       _LocalFree@4               1000b726 f   kernel32:KERNEL32.dll
 0001:0000a72c       _FormatMessageW@28         1000b72c f   kernel32:KERNEL32.dll
 0001:0000a732       _CreateToolhelp32Snapshot@8 1000b732 f   kernel32:KERNEL32.dll
 0001:0000a738       _Thread32First@8           1000b738 f   kernel32:KERNEL32.dll
 0001:0000a73e       _Thread32Next@8            1000b73e f   kernel32:KERNEL32.dll
 0001:0000a744       _OutputDebugStringW@4      1000b744 f   kernel32:KERNEL32.dll
 0001:0000a74a       _SetUnhandledExceptionFilter@4 1000b74a f   kernel32:KERNEL32.dll
 0001:0000a750       _SetLastError@4            1000b750 f   kernel32:KERNEL32.dll
 0001:0000a756       _SetErrorMode@4            1000b756 f   kernel32:KERNEL32.dll
 0001:0000a75c       _EnterCriticalSection@4    1000b75c f   kernel32:KERNEL32.dll
 0001:0000a762       _LeaveCriticalSection@4    1000b762 f   kernel32:KERNEL32.dll
 0001:0000a768       _InitializeCriticalSectionAndSpinCount@8 1000b768 f   kernel32:KERNEL32.dll
 0001:0000a76e       _WaitForSingleObject@8     1000b76e f   kernel32:KERNEL32.dll
 0001:0000a774       _TerminateProcess@8        1000b774 f   kernel32:KERNEL32.dll
 0001:0000a77a       _CreateProcessW@40         1000b77a f   kernel32:KERNEL32.dll
 0001:0000a780       _FlushInstructionCache@12  1000b780 f   kernel32:KERNEL32.dll
 0001:0000a786       _OpenProcess@12            1000b786 f   kernel32:KERNEL32.dll
 0001:0000a78c       _GetSystemTime@4           1000b78c f   kernel32:KERNEL32.dll
 0001:0000a792       _VirtualProtect@16         1000b792 f   kernel32:KERNEL32.dll
 0001:0000a798       _VirtualQuery@12           1000b798 f   kernel32:KERNEL32.dll
 0001:0000a79e       _FreeLibrary@4             1000b79e f   kernel32:KERNEL32.dll
 0001:0000a7a4       _GetModuleFileNameW@12     1000b7a4 f   kernel32:KERNEL32.dll
 0001:0000a7aa       _GetModuleHandleW@4        1000b7aa f   kernel32:KERNEL32.dll
 0001:0000a7b0       _WritePrivateProfileStringW@16 1000b7b0 f   kernel32:KERNEL32.dll
 0001:0000a7b6       _SystemTimeToFileTime@8    1000b7b6 f   kernel32:KERNEL32.dll
 0001:0000a7bc       _LoadLibraryExW@12         1000b7bc f   kernel32:KERNEL32.dll
 0001:0000a7c2       _lstrcmpiW@8               1000b7c2 f   kernel32:KERNEL32.dll
 0001:0000a7c8       _UnregisterClassW@8        1000b7c8 f   user32:USER32.dll
 0001:0000a7ce       _MessageBoxW@16            1000b7ce f   user32:USER32.dll
 0001:0000a7d4       _LoadStringW@16            1000b7d4 f   user32:USER32.dll
 0001:0000a7da       _DestroyWindow@4           1000b7da f   user32:USER32.dll
 0001:0000a7e0       _CharNextW@4               1000b7e0 f   user32:USER32.dll
 0001:0000a7e6       _RegCloseKey@4             1000b7e6 f   advapi32:ADVAPI32.dll
 0001:0000a7ec       _RegOpenKeyExW@20          1000b7ec f   advapi32:ADVAPI32.dll
 0001:0000a7f2       _RegQueryValueExW@24       1000b7f2 f   advapi32:ADVAPI32.dll
 0001:0000a7f8       _RegCreateKeyW@12          1000b7f8 f   advapi32:ADVAPI32.dll
 0001:0000a7fe       _RegOpenKeyW@12            1000b7fe f   advapi32:ADVAPI32.dll
 0001:0000a804       _RegSetValueExW@24         1000b804 f   advapi32:ADVAPI32.dll
 0001:0000a80a       _RegCreateKeyExW@36        1000b80a f   advapi32:ADVAPI32.dll
 0001:0000a810       _RegDeleteKeyW@8           1000b810 f   advapi32:ADVAPI32.dll
 0001:0000a816       _RegDeleteValueW@8         1000b816 f   advapi32:ADVAPI32.dll
 0001:0000a81c       _RegEnumKeyExW@32          1000b81c f   advapi32:ADVAPI32.dll
 0001:0000a822       _RegQueryInfoKeyW@48       1000b822 f   advapi32:ADVAPI32.dll
 0001:0000a828       _CoCreateInstance@20       1000b828 f   ole32:ole32.dll
 0001:0000a82e       _CoTaskMemAlloc@4          1000b82e f   ole32:ole32.dll
 0001:0000a834       _CoTaskMemRealloc@8        1000b834 f   ole32:ole32.dll
 0001:0000a83a       _CoTaskMemFree@4           1000b83a f   ole32:ole32.dll
 0001:0000a840       _VarUI4FromStr@16          1000b840 f   oleaut32:OLEAUT32.dll
 0001:0000a846       _SysFreeString@4           1000b846 f   oleaut32:OLEAUT32.dll
 0001:0000a84c       ??$?2PAUHINSTANCE__@@@Wrapper@?$CSimpleArray@PAUHINSTANCE__@@V?$CSimpleArrayEqualHelper@PAUHINSTANCE__@@@ATL@@@ATL@@SAPAXIPAPAUHINSTANCE__@@@Z 1000b84c f i atls:atlbase.obj
 0001:0000a854       ??0?$CComCritSecLock@VCComCriticalSection@ATL@@@ATL@@QAE@AAVCComCriticalSection@1@_N@Z 1000b854 f i atls:atlbase.obj
 0001:0000a87b       ??0?$CSimpleArray@PAUHINSTANCE__@@V?$CSimpleArrayEqualHelper@PAUHINSTANCE__@@@ATL@@@ATL@@QAE@XZ 1000b87b f i atls:atlbase.obj
 0001:0000a888       ??0CAtlBaseModule@ATL@@QAE@XZ 1000b888 f   atls:atlbase.obj
 0001:0000a8db       ??0CComCriticalSection@ATL@@QAE@XZ 1000b8db f i atls:atlbase.obj
 0001:0000a8ef       ??0Wrapper@?$CSimpleArray@PAUHINSTANCE__@@V?$CSimpleArrayEqualHelper@PAUHINSTANCE__@@@ATL@@@ATL@@QAE@ABQAUHINSTANCE__@@@Z 1000b8ef f i atls:atlbase.obj
 0001:0000a8ff       ??0_ATL_BASE_MODULE70@ATL@@QAE@XZ 1000b8ff f i atls:atlbase.obj
 0001:0000a922       ??1?$CComCritSecLock@VCComCriticalSection@ATL@@@ATL@@QAE@XZ 1000b922 f i atls:atlbase.obj
 0001:0000a939       ??1?$CSimpleArray@PAUHINSTANCE__@@V?$CSimpleArrayEqualHelper@PAUHINSTANCE__@@@ATL@@@ATL@@QAE@XZ 1000b939 f i atls:atlbase.obj
 0001:0000a93e       ??1CAtlBaseModule@ATL@@QAE@XZ 1000b93e f   atls:atlbase.obj
 0001:0000a954       ??1CComCriticalSection@ATL@@QAE@XZ 1000b954 f i atls:atlbase.obj
 0001:0000a957       ??1_ATL_BASE_MODULE70@ATL@@QAE@XZ 1000b957 f i atls:atlbase.obj
 0001:0000a95f       ??A?$CSimpleArray@PAUHINSTANCE__@@V?$CSimpleArrayEqualHelper@PAUHINSTANCE__@@@ATL@@@ATL@@QAEAAPAUHINSTANCE__@@H@Z 1000b95f f i atls:atlbase.obj
 0001:0000a984       ?Add@?$CSimpleArray@PAUHINSTANCE__@@V?$CSimpleArrayEqualHelper@PAUHINSTANCE__@@@ATL@@@ATL@@QAEHABQAUHINSTANCE__@@@Z 1000b984 f i atls:atlbase.obj
 0001:0000aa06       ?AddResourceInstance@CAtlBaseModule@ATL@@QAE_NPAUHINSTANCE__@@@Z 1000ba06 f   atls:atlbase.obj
 0001:0000aa39       ?GetHInstanceAt@CAtlBaseModule@ATL@@QAEPAUHINSTANCE__@@H@Z 1000ba39 f   atls:atlbase.obj
 0001:0000aa7e       ?GetSize@?$CSimpleArray@PAUHINSTANCE__@@V?$CSimpleArrayEqualHelper@PAUHINSTANCE__@@@ATL@@@ATL@@QBEHXZ 1000ba7e f i atls:atlbase.obj
 0001:0000aa82       ?InternalSetAtIndex@?$CSimpleArray@PAUHINSTANCE__@@V?$CSimpleArrayEqualHelper@PAUHINSTANCE__@@@ATL@@@ATL@@QAEXHABQAUHINSTANCE__@@@Z 1000ba82 f i atls:atlbase.obj
 0001:0000aa9c       ?Lock@?$CComCritSecLock@VCComCriticalSection@ATL@@@ATL@@QAEJXZ 1000ba9c f i atls:atlbase.obj
 0001:0000aaaf       ?Lock@CComCriticalSection@ATL@@QAEJXZ 1000baaf f i atls:atlbase.obj
 0001:0000aab9       ?RemoveAll@?$CSimpleArray@PAUHINSTANCE__@@V?$CSimpleArrayEqualHelper@PAUHINSTANCE__@@@ATL@@@ATL@@QAEXXZ 1000bab9 f i atls:atlbase.obj
 0001:0000aad6       ?RemoveAt@?$CSimpleArray@PAUHINSTANCE__@@V?$CSimpleArrayEqualHelper@PAUHINSTANCE__@@@ATL@@@ATL@@QAEHH@Z 1000bad6 f i atls:atlbase.obj
 0001:0000ab24       ?RemoveResourceInstance@CAtlBaseModule@ATL@@QAE_NPAUHINSTANCE__@@@Z 1000bb24 f   atls:atlbase.obj
 0001:0000ab81       ?Term@CComCriticalSection@ATL@@QAEJXZ 1000bb81 f i atls:atlbase.obj
 0001:0000ab8b       ?Unlock@?$CComCritSecLock@VCComCriticalSection@ATL@@@ATL@@QAEXXZ 1000bb8b f i atls:atlbase.obj
 0001:0000ab9c       ?Unlock@CComCriticalSection@ATL@@QAEJXZ 1000bb9c f i atls:atlbase.obj
 0001:0000aba6       _HRESULT_FROM_WIN32        1000bba6 f i atls:atlbase.obj
 0001:0000ac06       ??0?$CTraceCategoryEx@$00$0A@@ATL@@QAE@PB_W@Z 1000bc06 f i atls:stdafx.obj
 0001:0000ac0b       ??0?$CTraceCategoryEx@$01$0A@@ATL@@QAE@PB_W@Z 1000bc0b f i atls:stdafx.obj
 0001:0000ac10       ??0?$CTraceCategoryEx@$03$0A@@ATL@@QAE@PB_W@Z 1000bc10 f i atls:stdafx.obj
 0001:0000ac15       ??0?$CTraceCategoryEx@$07$0A@@ATL@@QAE@PB_W@Z 1000bc15 f i atls:stdafx.obj
 0001:0000ac1a       ??0?$CTraceCategoryEx@$0BA@$0A@@ATL@@QAE@PB_W@Z 1000bc1a f i atls:stdafx.obj
 0001:0000ac1f       ??0?$CTraceCategoryEx@$0BAA@$0A@@ATL@@QAE@PB_W@Z 1000bc1f f i atls:stdafx.obj
 0001:0000ac24       ??0?$CTraceCategoryEx@$0BAAA@$0A@@ATL@@QAE@PB_W@Z 1000bc24 f i atls:stdafx.obj
 0001:0000ac29       ??0?$CTraceCategoryEx@$0BAAAA@$0A@@ATL@@QAE@PB_W@Z 1000bc29 f i atls:stdafx.obj
 0001:0000ac2e       ??0?$CTraceCategoryEx@$0BAAAAA@$0A@@ATL@@QAE@PB_W@Z 1000bc2e f i atls:stdafx.obj
 0001:0000ac33       ??0?$CTraceCategoryEx@$0CA@$0A@@ATL@@QAE@PB_W@Z 1000bc33 f i atls:stdafx.obj
 0001:0000ac38       ??0?$CTraceCategoryEx@$0CAA@$0A@@ATL@@QAE@PB_W@Z 1000bc38 f i atls:stdafx.obj
 0001:0000ac3d       ??0?$CTraceCategoryEx@$0CAAA@$0A@@ATL@@QAE@PB_W@Z 1000bc3d f i atls:stdafx.obj
 0001:0000ac42       ??0?$CTraceCategoryEx@$0CAAAA@$0A@@ATL@@QAE@PB_W@Z 1000bc42 f i atls:stdafx.obj
 0001:0000ac47       ??0?$CTraceCategoryEx@$0CAAAAA@$0A@@ATL@@QAE@PB_W@Z 1000bc47 f i atls:stdafx.obj
 0001:0000ac4c       ??0?$CTraceCategoryEx@$0EA@$0A@@ATL@@QAE@PB_W@Z 1000bc4c f i atls:stdafx.obj
 0001:0000ac51       ??0?$CTraceCategoryEx@$0EAA@$0A@@ATL@@QAE@PB_W@Z 1000bc51 f i atls:stdafx.obj
 0001:0000ac56       ??0?$CTraceCategoryEx@$0EAAA@$0A@@ATL@@QAE@PB_W@Z 1000bc56 f i atls:stdafx.obj
 0001:0000ac5b       ??0?$CTraceCategoryEx@$0EAAAA@$0A@@ATL@@QAE@PB_W@Z 1000bc5b f i atls:stdafx.obj
 0001:0000ac60       ??0?$CTraceCategoryEx@$0EAAAAA@$0A@@ATL@@QAE@PB_W@Z 1000bc60 f i atls:stdafx.obj
 0001:0000ac65       ??0?$CTraceCategoryEx@$0IA@$0A@@ATL@@QAE@PB_W@Z 1000bc65 f i atls:stdafx.obj
 0001:0000ac6a       ??0?$CTraceCategoryEx@$0IAA@$0A@@ATL@@QAE@PB_W@Z 1000bc6a f i atls:stdafx.obj
 0001:0000ac6f       ??0?$CTraceCategoryEx@$0IAAA@$0A@@ATL@@QAE@PB_W@Z 1000bc6f f i atls:stdafx.obj
 0001:0000ac74       ??0?$CTraceCategoryEx@$0IAAAA@$0A@@ATL@@QAE@PB_W@Z 1000bc74 f i atls:stdafx.obj
 0001:0000ac79       ??_I@YGXPAXIIP6EX0@Z@Z     1000bc79 f i atls:stdafx.obj
 0001:0000acac       ??0bad_alloc@std@@QAE@XZ   1000bcac f i libcpmt:xthrow.obj
 0001:0000acc4       ??0bad_function_call@std@@QAE@ABV01@@Z 1000bcc4 f i libcpmt:xthrow.obj
 0001:0000acdf       ??0bad_function_call@std@@QAE@XZ 1000bcdf f i libcpmt:xthrow.obj
 0001:0000acf0       ??0exception@std@@QAE@QBD@Z 1000bcf0 f i libcpmt:xthrow.obj
 0001:0000ad25       ??0exception@std@@QAE@QBDH@Z 1000bd25 f i libcpmt:xthrow.obj
 0001:0000ad42       ??0exception@std@@QAE@XZ   1000bd42 f i libcpmt:xthrow.obj
 0001:0000ad53       ??0invalid_argument@std@@QAE@ABV01@@Z 1000bd53 f i libcpmt:xthrow.obj
 0001:0000ad6e       ??0invalid_argument@std@@QAE@PBD@Z 1000bd6e f i libcpmt:xthrow.obj
 0001:0000ad8d       ??0length_error@std@@QAE@ABV01@@Z 1000bd8d f i libcpmt:xthrow.obj
 0001:0000ada8       ??0length_error@std@@QAE@PBD@Z 1000bda8 f i libcpmt:xthrow.obj
 0001:0000adc7       ??0logic_error@std@@QAE@ABV01@@Z 1000bdc7 f i libcpmt:xthrow.obj
 0001:0000ade2       ??0logic_error@std@@QAE@PBD@Z 1000bde2 f i libcpmt:xthrow.obj
 0001:0000ae01       ??0out_of_range@std@@QAE@ABV01@@Z 1000be01 f i libcpmt:xthrow.obj
 0001:0000ae1c       ??0out_of_range@std@@QAE@PBD@Z 1000be1c f i libcpmt:xthrow.obj
 0001:0000ae3b       ??0overflow_error@std@@QAE@ABV01@@Z 1000be3b f i libcpmt:xthrow.obj
 0001:0000ae56       ??0overflow_error@std@@QAE@PBD@Z 1000be56 f i libcpmt:xthrow.obj
 0001:0000ae75       ??0regex_error@std@@QAE@ABV01@@Z 1000be75 f i libcpmt:xthrow.obj
 0001:0000ae99       ??0regex_error@std@@QAE@W4error_type@regex_constants@1@@Z 1000be99 f i libcpmt:xthrow.obj
 0001:0000aec7       ??0runtime_error@std@@QAE@ABV01@@Z 1000bec7 f i libcpmt:xthrow.obj
 0001:0000aee2       ??0runtime_error@std@@QAE@PBD@Z 1000bee2 f i libcpmt:xthrow.obj
 0001:0000af01       ??1bad_alloc@std@@UAE@XZ   1000bf01 f i libcpmt:xthrow.obj
 0001:0000af12       ??1bad_function_call@std@@UAE@XZ 1000bf12 f i libcpmt:xthrow.obj
 0001:0000af23       ??1invalid_argument@std@@UAE@XZ 1000bf23 f i libcpmt:xthrow.obj
 0001:0000af34       ??1length_error@std@@UAE@XZ 1000bf34 f i libcpmt:xthrow.obj
 0001:0000af45       ??1logic_error@std@@UAE@XZ 1000bf45 f i libcpmt:xthrow.obj
 0001:0000af56       ??1out_of_range@std@@UAE@XZ 1000bf56 f i libcpmt:xthrow.obj
 0001:0000af67       ??1overflow_error@std@@UAE@XZ 1000bf67 f i libcpmt:xthrow.obj
 0001:0000af78       ??1regex_error@std@@UAE@XZ 1000bf78 f i libcpmt:xthrow.obj
 0001:0000af89       ??1runtime_error@std@@UAE@XZ 1000bf89 f i libcpmt:xthrow.obj
 0001:0000af9a       ??_Gbad_function_call@std@@UAEPAXI@Z 1000bf9a f i libcpmt:xthrow.obj
 0001:0000af9a       ??_Ebad_function_call@std@@UAEPAXI@Z 1000bf9a f i libcpmt:xthrow.obj
 0001:0000afc7       ??_Einvalid_argument@std@@UAEPAXI@Z 1000bfc7 f i libcpmt:xthrow.obj
 0001:0000afc7       ??_Ginvalid_argument@std@@UAEPAXI@Z 1000bfc7 f i libcpmt:xthrow.obj
 0001:0000aff5       ??_Elength_error@std@@UAEPAXI@Z 1000bff5 f i libcpmt:xthrow.obj
 0001:0000aff5       ??_Glength_error@std@@UAEPAXI@Z 1000bff5 f i libcpmt:xthrow.obj
 0001:0000b022       ??_Glogic_error@std@@UAEPAXI@Z 1000c022 f i libcpmt:xthrow.obj
 0001:0000b022       ??_Elogic_error@std@@UAEPAXI@Z 1000c022 f i libcpmt:xthrow.obj
 0001:0000b04f       ??_Gout_of_range@std@@UAEPAXI@Z 1000c04f f i libcpmt:xthrow.obj
 0001:0000b04f       ??_Eout_of_range@std@@UAEPAXI@Z 1000c04f f i libcpmt:xthrow.obj
 0001:0000b07c       ??_Eoverflow_error@std@@UAEPAXI@Z 1000c07c f i libcpmt:xthrow.obj
 0001:0000b07c       ??_Goverflow_error@std@@UAEPAXI@Z 1000c07c f i libcpmt:xthrow.obj
 0001:0000b0a9       ??_Eregex_error@std@@UAEPAXI@Z 1000c0a9 f i libcpmt:xthrow.obj
 0001:0000b0a9       ??_Gregex_error@std@@UAEPAXI@Z 1000c0a9 f i libcpmt:xthrow.obj
 0001:0000b0d6       ??_Eruntime_error@std@@UAEPAXI@Z 1000c0d6 f i libcpmt:xthrow.obj
 0001:0000b0d6       ??_Gruntime_error@std@@UAEPAXI@Z 1000c0d6 f i libcpmt:xthrow.obj
 0001:0000b103       ?_Stringify@regex_error@std@@CAPBDW4error_type@regex_constants@2@@Z 1000c103 f i libcpmt:xthrow.obj
 0001:0000b1c3       ?_Xbad_alloc@std@@YAXXZ    1000c1c3 f   libcpmt:xthrow.obj
 0001:0000b1e0       ?_Xbad_function_call@std@@YAXXZ 1000c1e0 f   libcpmt:xthrow.obj
 0001:0000b1fd       ?_Xinvalid_argument@std@@YAXPBD@Z 1000c1fd f   libcpmt:xthrow.obj
 0001:0000b21d       ?_Xlength_error@std@@YAXPBD@Z 1000c21d f   libcpmt:xthrow.obj
 0001:0000b23d       ?_Xout_of_range@std@@YAXPBD@Z 1000c23d f   libcpmt:xthrow.obj
 0001:0000b25d       ?_Xoverflow_error@std@@YAXPBD@Z 1000c25d f   libcpmt:xthrow.obj
 0001:0000b27d       ?_Xregex_error@std@@YAXW4error_type@regex_constants@1@@Z 1000c27d f   libcpmt:xthrow.obj
 0001:0000b29d       ?_Xruntime_error@std@@YAXPBD@Z 1000c29d f   libcpmt:xthrow.obj
 0001:0000b2bd       ?what@bad_function_call@std@@UBEPBDXZ 1000c2bd f i libcpmt:xthrow.obj
 0001:0000b2c3       ??2@YAPAXI@Z               1000c2c3 f   LIBCMT:new_scalar.obj
 0001:0000b2f3       ??3@YAXPAXI@Z              1000c2f3 f   LIBCMT:delete_scalar_size.obj
 0001:0000b301       ?configure_argv@__scrt_narrow_argv_policy@@SAHXZ 1000c301 f i LIBCMT:utility.obj
 0001:0000b352       ?initialize_environment@__scrt_narrow_environment_policy@@SAHXZ 1000c352 f i LIBCMT:utility.obj
 0001:0000b38b       _NtCurrentTeb              1000c38b f i LIBCMT:utility.obj
 0001:0000b392       ___scrt_acquire_startup_lock 1000c392 f   LIBCMT:utility.obj
 0001:0000b3c4       ___scrt_dllmain_after_initialize_c 1000c3c4 f   LIBCMT:utility.obj
 0001:0000b3ef       ___scrt_dllmain_before_initialize_c 1000c3ef f   LIBCMT:utility.obj
 0001:0000b3fd       ___scrt_dllmain_crt_thread_attach 1000c3fd f   LIBCMT:utility.obj
 0001:0000b41c       ___scrt_dllmain_crt_thread_detach 1000c41c f   LIBCMT:utility.obj
 0001:0000b429       ___scrt_dllmain_exception_filter 1000c429 f   LIBCMT:utility.obj
 0001:0000b45d       ___scrt_dllmain_uninitialize_c 1000c45d f   LIBCMT:utility.obj
 0001:0000b480       ___scrt_dllmain_uninitialize_critical 1000c480 f   LIBCMT:utility.obj
 0001:0000b48d       ___scrt_initialize_crt     1000c48d f   LIBCMT:utility.obj
 0001:0000b4c6       ___scrt_initialize_onexit_tables 1000c4c6 f   LIBCMT:utility.obj
 0001:0000b54d       ___scrt_is_nonwritable_in_current_image 1000c54d f   LIBCMT:utility.obj
 0001:0000b5e1       ___scrt_release_startup_lock 1000c5e1 f   LIBCMT:utility.obj
 0001:0000b5fe       ___scrt_uninitialize_crt   1000c5fe f   LIBCMT:utility.obj
 0001:0000b626       __onexit                   1000c626 f   LIBCMT:utility.obj
 0001:0000b653       _at_quick_exit             1000c653 f   LIBCMT:utility.obj
 0001:0000b676       _atexit                    1000c676 f   LIBCMT:utility.obj
 0001:0000b750       __Init_thread_abort        1000c750 f   LIBCMT:thread_safe_statics.obj
 0001:0000b774       __Init_thread_footer       1000c774 f   LIBCMT:thread_safe_statics.obj
 0001:0000b7be       __Init_thread_header       1000c7be f   LIBCMT:thread_safe_statics.obj
 0001:0000b810       __Init_thread_lock         1000c810 f   LIBCMT:thread_safe_statics.obj
 0001:0000b81c       __Init_thread_notify       1000c81c f   LIBCMT:thread_safe_statics.obj
 0001:0000b852       __Init_thread_unlock       1000c852 f   LIBCMT:thread_safe_statics.obj
 0001:0000b85e       __Init_thread_wait         1000c85e f   LIBCMT:thread_safe_statics.obj
 0001:0000b8ac       @__security_check_cookie@4 1000c8ac f   LIBCMT:secchk.obj
 0001:0000b8ba       __EH_epilog3               1000c8ba f   LIBCMT:ehprolg3.obj
 0001:0000b8ce       __EH_epilog3_GS            1000c8ce f   LIBCMT:ehprolg3.obj
 0001:0000b8dd       __EH_epilog3_catch_GS      1000c8dd f   LIBCMT:ehprolg3.obj
 0001:0000b8ec       __EH_prolog3               1000c8ec f   LIBCMT:ehprolg3.obj
 0001:0000b91f       __EH_prolog3_GS            1000c91f f   LIBCMT:ehprolg3.obj
 0001:0000b955       __EH_prolog3_catch         1000c955 f   LIBCMT:ehprolg3.obj
 0001:0000b98b       __EH_prolog3_catch_GS      1000c98b f   LIBCMT:ehprolg3.obj
 0001:0000b9d0       __alloca_probe             1000c9d0 f   LIBCMT:chkstk.obj
 0001:0000b9d0       __chkstk                   1000c9d0 f   LIBCMT:chkstk.obj
 0001:0000b9fb       ??1type_info@@UAE@XZ       1000c9fb f   LIBCMT:std_type_info_static.obj
 0001:0000ba02       ??_Gtype_info@@UAEPAXI@Z   1000ca02 f i LIBCMT:std_type_info_static.obj
 0001:0000ba02       ??_Etype_info@@UAEPAXI@Z   1000ca02 f i LIBCMT:std_type_info_static.obj
 0001:0000ba25       ??3@YAXPAX@Z               1000ca25 f   LIBCMT:delete_scalar.obj
 0001:0000ba2a       ??_M@YGXPAXIHP6EX0@Z@Z     1000ca2a f   LIBCMT:ehvecdtr.obj
 0001:0000ba2f       ??_M@YGXPAXIIP6EX0@Z@Z     1000ca2f f   LIBCMT:ehvecdtr.obj
 0001:0000bae3       ?__ArrayUnwind@@YGXPAXIIP6EX0@Z@Z 1000cae3 f   LIBCMT:ehvecdtr.obj
 0001:0000bb73       ??_V@YAXPAXI@Z             1000cb73 f   LIBCMT:delete_array_size.obj
 0001:0000bb90       __SEH_prolog4              1000cb90 f   LIBCMT:sehprolg4.obj
 0001:0000bbe0       __SEH_epilog4              1000cbe0 f   LIBCMT:sehprolg4.obj
 0001:0000bbf4       ??_U@YAPAXI@Z              1000cbf4 f   LIBCMT:new_array.obj
 0001:0000bbfd       ??_V@YAXPAX@Z              1000cbfd f   LIBCMT:delete_array.obj
 0001:0000bc10       __alldiv                   1000cc10 f   LIBCMT:lldiv.obj
 0001:0000bcc0       __allmul                   1000ccc0 f   LIBCMT:llmul.obj
 0001:0000bd00       __allshl                   1000cd00 f   LIBCMT:llshl.obj
 0001:0000bd20       __allshr                   1000cd20 f   LIBCMT:llshr.obj
 0001:0000bd50       __aullshr                  1000cd50 f   LIBCMT:ullshr.obj
 0001:0000bd70       __ftoui3                   1000cd70 f   LIBCMT:ftol3.obj
 0001:0000bdc0       __ftoul3                   1000cdc0 f   LIBCMT:ftol3.obj
 0001:0000be40       __ftol3                    1000ce40 f   LIBCMT:ftol3.obj
 0001:0000beb0       __dtoui3                   1000ceb0 f   LIBCMT:ftol3.obj
 0001:0000bf30       __dtoul3                   1000cf30 f   LIBCMT:ftol3.obj
 0001:0000bfe0       __dtol3                    1000cfe0 f   LIBCMT:ftol3.obj
 0001:0000c090       __ultod3                   1000d090 f   LIBCMT:ftol3.obj
 0001:0000c0f0       __ltod3                    1000d0f0 f   LIBCMT:ftol3.obj
 0001:0000c131       ___raise_securityfailure   1000d131 f   LIBCMT:gs_report.obj
 0001:0000c159       ___report_gsfailure        1000d159 f   LIBCMT:gs_report.obj
 0001:0000c253       ___report_rangecheckfailure 1000d253 f   LIBCMT:gs_report.obj
 0001:0000c25f       ___report_securityfailure  1000d25f f   LIBCMT:gs_report.obj
 0001:0000c32e       ___report_securityfailureEx 1000d32e f   LIBCMT:gs_report.obj
 0001:0000c443       ??_U@YAPAXIABUnothrow_t@std@@@Z 1000d443 f   LIBCMT:new_array_nothrow.obj
 0001:0000c78c       __CRT_INIT@12              1000d78c f   LIBCMT:dll_dllmain.obj
 0001:0000c795       __DllMainCRTStartup@12     1000d795 f   LIBCMT:dll_dllmain.obj
 0001:0000c7b8       @_guard_check_icall_nop@4  1000d7b8 f i LIBCMT:guard_support.obj
 0001:0000c7bb       _ReadNoFence               1000d7bb f i LIBCMT:guard_support.obj
 0001:0000c7c5       _ReadPointerNoFence        1000d7c5 f i LIBCMT:guard_support.obj
 0001:0000c7cf       ___castguard_check_failure_debugbreak 1000d7cf f i LIBCMT:guard_support.obj
 0001:0000c7ea       ___castguard_check_failure_fastfail 1000d7ea f i LIBCMT:guard_support.obj
 0001:0000c809       ___castguard_check_failure_nop 1000d809 f i LIBCMT:guard_support.obj
 0001:0000c80c       ___castguard_check_failure_os_handled 1000d80c f i LIBCMT:guard_support.obj
 0001:0000c860       ___castguard_slow_path_check_debugbreak 1000d860 f i LIBCMT:guard_support.obj
 0001:0000c88d       ___castguard_slow_path_check_fastfail 1000d88d f i LIBCMT:guard_support.obj
 0001:0000c8be       ___castguard_slow_path_check_nop 1000d8be f i LIBCMT:guard_support.obj
 0001:0000c8c1       ___castguard_slow_path_check_os_handled 1000d8c1 f i LIBCMT:guard_support.obj
 0001:0000c927       __guard_icall_checks_enforced 1000d927 f i LIBCMT:guard_support.obj
 0001:0000c939       ??0bad_alloc@std@@AAE@QBD@Z 1000d939 f i LIBCMT:throw_bad_alloc.obj
 0001:0000c956       ?__scrt_throw_std_bad_alloc@@YAXXZ 1000d956 f   LIBCMT:throw_bad_alloc.obj
 0001:0000c973       ?__scrt_throw_std_bad_array_new_length@@YAXXZ 1000d973 f   LIBCMT:throw_bad_alloc.obj
 0001:0000c990       ___isa_available_init      1000d990 f   LIBCMT:cpu_disp.obj
 0001:0000cb61       __get_startup_argv_mode    1000db61 f   LIBCMT:argv_mode.obj
 0001:0000cb65       ___scrt_is_ucrt_dll_in_use 1000db65 f   LIBCMT:ucrt_detection.obj
 0001:0000cb71       ___scrt_fastfail           1000db71 f   LIBCMT:utility_desktop.obj
 0001:0000cc8c       ___scrt_get_show_window_mode 1000dc8c f   LIBCMT:utility_desktop.obj
 0001:0000ccbd       ___scrt_initialize_mta     1000dcbd f   LIBCMT:utility_desktop.obj
 0001:0000ccc2       ___scrt_initialize_winrt   1000dcc2 f   LIBCMT:utility_desktop.obj
 0001:0000ccc5       ___scrt_is_managed_app     1000dcc5 f   LIBCMT:utility_desktop.obj
 0001:0000cd08       ___scrt_set_unhandled_exception_filter 1000dd08 f   LIBCMT:utility_desktop.obj
 0001:0000cd14       ___scrt_exe_initialize_mta 1000dd14 f   LIBCMT:utility_desktop.obj
 0001:0000cd14       ___scrt_stub_for_initialize_mta 1000dd14 f   LIBCMT:utility_desktop.obj
 0001:0000cd17       ___scrt_unhandled_exception_filter@4 1000dd17 f   LIBCMT:utility_desktop.obj
 0001:0000cd6d       __crt_debugger_hook        1000dd6d f   LIBCMT:utility_desktop.obj
 0001:0000cd75       ??2@YAPAXIABUnothrow_t@std@@@Z 1000dd75 f   LIBCMT:new_scalar_nothrow.obj
 0001:0000ce17       ___security_init_cookie    1000de17 f   LIBCMT:gs_support.obj
 0001:0000ce62       ?__scrt_initialize_type_info@@YAXXZ 1000de62 f   LIBCMT:tncleanup.obj
 0001:0000ce6e       ?__scrt_uninitialize_type_info@@YAXXZ 1000de6e f   LIBCMT:tncleanup.obj
 0001:0000ce7a       ___local_stdio_scanf_options 1000de7a f i LIBCMT:default_local_stdio_options.obj
 0001:0000ce80       ___scrt_initialize_default_local_stdio_options 1000de80 f   LIBCMT:default_local_stdio_options.obj
 0001:0000ce9d       ___scrt_get_dyn_tls_init_callback 1000de9d f   LIBCMT:dyn_tls_init.obj
 0001:0000cea3       __RTC_Initialize           1000dea3 f   LIBCMT:initsect.obj
 0001:0000cecf       __RTC_Terminate            1000decf f   LIBCMT:initsect.obj
 0001:0000cefb       _RpcStringFreeW@4          1000defb f   Rpcrt4:RPCRT4.dll
 0001:0000cf01       _UuidCreate@4              1000df01 f   Rpcrt4:RPCRT4.dll
 0001:0000cf07       _UuidToStringW@8           1000df07 f   Rpcrt4:RPCRT4.dll
 0001:0000cf0d       ___DestructExceptionObject 1000df0d f   libvcruntime:ehhelpers.obj
 0001:0000cfae       ?_CallMemberFunction0@@YGXQAX0@Z 1000dfae f i libvcruntime:ehhelpers.obj
 0001:0000d013       ?raw_name@type_info@@QBEPBDXZ 1000e013 f i libvcruntime:ehhelpers.obj
 0001:0000d017       __IsExceptionObjectToBeDestroyed 1000e017 f   libvcruntime:ehhelpers.obj
 0001:0000d03d       __SetWinRTOutOfMemoryExceptionCallback 1000e03d f   libvcruntime:ehhelpers.obj
 0001:0000d04a       ___AdjustPointer           1000e04a f   libvcruntime:ehhelpers.obj
 0001:0000d06f       ___FrameUnwindFilter       1000e06f f   libvcruntime:ehhelpers.obj
 0001:0000d0c5       ___GetPlatformExceptionInfo 1000e0c5 f   libvcruntime:ehhelpers.obj
 0001:0000d111       ___current_exception       1000e111 f   libvcruntime:ehhelpers.obj
 0001:0000d11a       ___current_exception_context 1000e11a f   libvcruntime:ehhelpers.obj
 0001:0000d123       ___processing_throw        1000e123 f   libvcruntime:ehhelpers.obj
 0001:0000d12c       ___std_terminate           1000e12c f   libvcruntime:ehhelpers.obj
 0001:0000d131       __is_exception_typeof      1000e131 f   libvcruntime:ehhelpers.obj
 0001:0000d1e0       _memcpy                    1000e1e0 f   libvcruntime:memcpy.obj
 0001:0000d760       _memmove                   1000e760 f   libvcruntime:memmove.obj
 0001:0000dce0       _memset                    1000ece0 f   libvcruntime:memset.obj
 0001:0000de3a       _wcsstr                    1000ee3a f   libvcruntime:wcsstr.obj
 0001:0000e0a5       ??$?RD@__crt_public_free_policy@@QBEXQBD@Z 1000f0a5 f i libvcruntime:std_exception.obj
 0001:0000e0b5       ??0?$__crt_unique_heap_ptr@DU__crt_public_free_policy@@@@QAE@QAD@Z 1000f0b5 f i libvcruntime:std_exception.obj
 0001:0000e0c3       ??1?$__crt_unique_heap_ptr@DU__crt_public_free_policy@@@@QAE@XZ 1000f0c3 f i libvcruntime:std_exception.obj
 0001:0000e0d3       ??B?$__crt_unique_heap_ptr@DU__crt_public_free_policy@@@@QBE_NXZ 1000f0d3 f i libvcruntime:std_exception.obj
 0001:0000e0da       ?detach@?$__crt_unique_heap_ptr@DU__crt_public_free_policy@@@@QAEPADXZ 1000f0da f i libvcruntime:std_exception.obj
 0001:0000e0e0       ?get@?$__crt_unique_heap_ptr@DU__crt_public_free_policy@@@@QBEPADXZ 1000f0e0 f i libvcruntime:std_exception.obj
 0001:0000e0e3       ?is_valid@?$__crt_unique_heap_ptr@DU__crt_public_free_policy@@@@QBE_NXZ 1000f0e3 f i libvcruntime:std_exception.obj
 0001:0000e0ea       ?release@?$__crt_unique_heap_ptr@DU__crt_public_free_policy@@@@QAEXXZ 1000f0ea f i libvcruntime:std_exception.obj
 0001:0000e0fa       ___std_exception_copy      1000f0fa f   libvcruntime:std_exception.obj
 0001:0000e15d       ___std_exception_destroy   1000f15d f   libvcruntime:std_exception.obj
 0001:0000e17c       __CxxThrowException@8      1000f17c f   libvcruntime:throw.obj
 0001:0000e1e8       ??$?0AAViterator@TryBlockMap@__FrameHandler3@@AAV012@$0A@@?$pair@Viterator@TryBlockMap@__FrameHandler3@@V123@@std@@QAE@AAViterator@TryBlockMap@__FrameHandler3@@0@Z 1000f1e8 f i libvcruntime:trnsctrl.obj
 0001:0000e20c       ??$forward@AAViterator@TryBlockMap@__FrameHandler3@@@std@@YAAAViterator@TryBlockMap@__FrameHandler3@@AAV123@@Z 1000f20c f i libvcruntime:trnsctrl.obj
 0001:0000e214       ??0iterator@TryBlockMap@__FrameHandler3@@QAE@AAV12@I@Z 1000f214 f i libvcruntime:trnsctrl.obj
 0001:0000e228       ?GetRangeOfTrysToCheck@__FrameHandler3@@SA?AU?$pair@Viterator@TryBlockMap@__FrameHandler3@@V123@@std@@AAVTryBlockMap@1@HPAXPBU_s_FuncInfo@@H@Z 1000f228 f   libvcruntime:trnsctrl.obj
 0001:0000e298       ?_CallCatchBlock2@@YAPAXPAUEHRegistrationNode@@PBU_s_FuncInfo@@PAXHK@Z 1000f298 f   libvcruntime:trnsctrl.obj
 0001:0000e2f5       ?_CallSETranslator@@YAHPAUEHExceptionRecord@@PAUEHRegistrationNode@@PAX2PBU_s_FuncInfo@@H1@Z 1000f2f5 f   libvcruntime:trnsctrl.obj
 0001:0000e3eb       ?_JumpToContinuation@@YGXPAXPAUEHRegistrationNode@@@Z 1000f3eb f   libvcruntime:trnsctrl.obj
 0001:0000e41b       ?_UnwindNestedFrames@@YGXPAUEHRegistrationNode@@PAUEHExceptionRecord@@@Z 1000f41b f   libvcruntime:trnsctrl.obj
 0001:0000e46e       __CatchGuardHandler        1000f46e f   libvcruntime:trnsctrl.obj
 0001:0000e49f       __CreateFrameInfo          1000f49f f   libvcruntime:trnsctrl.obj
 0001:0000e4c3       __FindAndUnlinkFrame       1000f4c3 f   libvcruntime:trnsctrl.obj
 0001:0000e50b       __TranslatorGuardHandler   1000f50b f   libvcruntime:trnsctrl.obj
 0001:0000e5a8       ___CxxFrameHandler         1000f5a8 f   libvcruntime:trnsctrl.obj
 0001:0000e5de       ___CxxFrameHandler2        1000f5de f   libvcruntime:trnsctrl.obj
 0001:0000e614       ___CxxFrameHandler3        1000f614 f   libvcruntime:trnsctrl.obj
 0001:0000e64a       ___CxxLongjmpUnwind@4      1000f64a f   libvcruntime:trnsctrl.obj
 0001:0000e6b0       __except_handler4          1000f6b0 f   libvcruntime:chandler4.obj
 0001:0000e80e       ??$__crt_interlocked_exchange_pointer@$$A6AXXZP6AXXZ@@YAP6AXXZPDS6AXXZQ6AXXZ@Z 1000f80e f i libvcruntime:purevirt.obj
 0001:0000e81b       ??$__crt_interlocked_read_pointer@$$A6AXXZ@@YAP6AXXZPDS6AXXZ@Z 1000f81b f i libvcruntime:purevirt.obj
 0001:0000e825       ?__crt_interlocked_read_32@@YAHPDH@Z 1000f825 f i libvcruntime:purevirt.obj
 0001:0000e82f       __get_purecall_handler     1000f82f f   libvcruntime:purevirt.obj
 0001:0000e835       __purecall                 1000f835 f   libvcruntime:purevirt.obj
 0001:0000e851       __set_purecall_handler     1000f851 f   libvcruntime:purevirt.obj
 0001:0000e955       _memcmp                    1000f955 f   libvcruntime:memcmp.obj
 0001:000106a5       _wcsrchr                   100116a5 f   libvcruntime:wcsrchr.obj
 0001:0001075d       __get_unexpected           1001175d f   libvcruntime:unexpected.obj
 0001:0001076f       _set_unexpected            1001176f f   libvcruntime:unexpected.obj
 0001:0001078d       _unexpected                1001178d f   libvcruntime:unexpected.obj
 0001:000107aa       ___vcrt_initialize         100117aa f   libvcruntime:initialization.obj
 0001:000107c9       ___vcrt_thread_attach      100117c9 f   libvcruntime:initialization.obj
 0001:000107d4       ___vcrt_thread_detach      100117d4 f   libvcruntime:initialization.obj
 0001:000107df       ___vcrt_uninitialize       100117df f   libvcruntime:initialization.obj
 0001:000107f6       ___vcrt_uninitialize_critical 100117f6 f   libvcruntime:initialization.obj
 0001:0001080f       ??$?RD@__crt_internal_free_policy@@QBEXQBD@Z 1001180f f i libvcruntime:std_type_info.obj
 0001:0001081f       ??$?RX@__crt_internal_free_policy@@QBEXQBX@Z 1001181f f i libvcruntime:std_type_info.obj
 0001:0001082f       ??$__crt_interlocked_compare_exchange_pointer@$$CBDPAD$$T@@YAPBDPDSBDQAD$$T@Z 1001182f f i libvcruntime:std_type_info.obj
 0001:00010841       ??$__crt_interlocked_read_pointer@$$CBD@@YAPBDPDSBD@Z 10011841 f i libvcruntime:std_type_info.obj
 0001:0001084b       ??0?$__crt_unique_heap_ptr@DU__crt_internal_free_policy@@@@QAE@QAD@Z 1001184b f i libvcruntime:std_type_info.obj
 0001:00010859       ??0?$__crt_unique_heap_ptr@XU__crt_internal_free_policy@@@@QAE@QAX@Z 10011859 f i libvcruntime:std_type_info.obj
 0001:00010867       ??1?$__crt_unique_heap_ptr@DU__crt_internal_free_policy@@@@QAE@XZ 10011867 f i libvcruntime:std_type_info.obj
 0001:00010877       ??1?$__crt_unique_heap_ptr@XU__crt_internal_free_policy@@@@QAE@XZ 10011877 f i libvcruntime:std_type_info.obj
 0001:00010887       ??B?$__crt_unique_heap_ptr@DU__crt_internal_free_policy@@@@QBE_NXZ 10011887 f i libvcruntime:std_type_info.obj
 0001:0001088e       ??B?$__crt_unique_heap_ptr@XU__crt_internal_free_policy@@@@QBE_NXZ 1001188e f i libvcruntime:std_type_info.obj
 0001:000108c1       ?detach@?$__crt_unique_heap_ptr@XU__crt_internal_free_policy@@@@QAEPAXXZ 100118c1 f i libvcruntime:std_type_info.obj
 0001:000108c7       ?get@?$__crt_unique_heap_ptr@DU__crt_internal_free_policy@@@@QBEPADXZ 100118c7 f i libvcruntime:std_type_info.obj
 0001:000108ca       ?get@?$__crt_unique_heap_ptr@XU__crt_internal_free_policy@@@@QBEPAXXZ 100118ca f i libvcruntime:std_type_info.obj
 0001:000108cd       ?is_valid@?$__crt_unique_heap_ptr@DU__crt_internal_free_policy@@@@QBE_NXZ 100118cd f i libvcruntime:std_type_info.obj
 0001:000108d4       ?is_valid@?$__crt_unique_heap_ptr@XU__crt_internal_free_policy@@@@QBE_NXZ 100118d4 f i libvcruntime:std_type_info.obj
 0001:000108db       ?release@?$__crt_unique_heap_ptr@DU__crt_internal_free_policy@@@@QAEXXZ 100118db f i libvcruntime:std_type_info.obj
 0001:000108eb       ?release@?$__crt_unique_heap_ptr@XU__crt_internal_free_policy@@@@QAEXXZ 100118eb f i libvcruntime:std_type_info.obj
 0001:000108fb       ___std_type_info_compare   100118fb f   libvcruntime:std_type_info.obj
 0001:00010937       ___std_type_info_destroy_list 10011937 f   libvcruntime:std_type_info.obj
 0001:0001095a       ___std_type_info_hash      1001195a f   libvcruntime:std_type_info.obj
 0001:00010980       ___std_type_info_name      10011980 f   libvcruntime:std_type_info.obj
 0001:00010a45       ??$?RU__vcrt_ptd@@@__crt_internal_free_policy@@QBEXQBU__vcrt_ptd@@@Z 10011a45 f i libvcruntime:per_thread_data.obj
 0001:00010a55       ??0?$__crt_unique_heap_ptr@U__vcrt_ptd@@U__crt_internal_free_policy@@@@QAE@QAU__vcrt_ptd@@@Z 10011a55 f i libvcruntime:per_thread_data.obj
 0001:00010a72       ??1?$__crt_unique_heap_ptr@U__vcrt_ptd@@U__crt_internal_free_policy@@@@QAE@XZ 10011a72 f i libvcruntime:per_thread_data.obj
 0001:00010a8b       ??B?$__crt_unique_heap_ptr@U__vcrt_ptd@@U__crt_internal_free_policy@@@@QBE_NXZ 10011a8b f i libvcruntime:per_thread_data.obj
 0001:00010a92       ?detach@?$__crt_unique_heap_ptr@U__vcrt_ptd@@U__crt_internal_free_policy@@@@QAEPAU__vcrt_ptd@@XZ 10011a92 f i libvcruntime:per_thread_data.obj
 0001:00010a98       ?get@?$__crt_unique_heap_ptr@U__vcrt_ptd@@U__crt_internal_free_policy@@@@QBEPAU__vcrt_ptd@@XZ 10011a98 f i libvcruntime:per_thread_data.obj
 0001:00010a9b       ?is_valid@?$__crt_unique_heap_ptr@U__vcrt_ptd@@U__crt_internal_free_policy@@@@QBE_NXZ 10011a9b f i libvcruntime:per_thread_data.obj
 0001:00010aa2       ?release@?$__crt_unique_heap_ptr@U__vcrt_ptd@@U__crt_internal_free_policy@@@@QAEXXZ 10011aa2 f i libvcruntime:per_thread_data.obj
 0001:00010acc       ___vcrt_freefls@4          10011acc f   libvcruntime:per_thread_data.obj
 0001:00010ae8       ___vcrt_freeptd            10011ae8 f   libvcruntime:per_thread_data.obj
 0001:00010b1e       ___vcrt_getptd             10011b1e f   libvcruntime:per_thread_data.obj
 0001:00010b2c       ___vcrt_getptd_noexit      10011b2c f   libvcruntime:per_thread_data.obj
 0001:00010bbe       ___vcrt_getptd_noinit      10011bbe f   libvcruntime:per_thread_data.obj
 0001:00010bf5       ___vcrt_initialize_ptd     10011bf5 f   libvcruntime:per_thread_data.obj
 0001:00010c28       ___vcrt_uninitialize_ptd   10011c28 f   libvcruntime:per_thread_data.obj
 0001:0001137a       ??$TypeMatchHelper@V__FrameHandler3@@@@YAHPBU_s_HandlerType@@PBU_s_CatchableType@@PBU_s_ThrowInfo@@@Z 1001237a f i libvcruntime:frame.obj
 0001:00011408       ??$__InternalCxxFrameHandler@V__FrameHandler3@@@@YA?AW4_EXCEPTION_DISPOSITION@@PAUEHExceptionRecord@@PAUEHRegistrationNode@@PAU_CONTEXT@@PAXPBU_s_FuncInfo@@H1E@Z 10012408 f i libvcruntime:frame.obj
 0001:0001150a       ??0HandlerMap@__FrameHandler3@@QAE@PBU_s_TryBlockMapEntry@@II@Z 1001250a f i libvcruntime:frame.obj
 0001:00011521       ??0TryBlockMap@__FrameHandler3@@QAE@PBU_s_FuncInfo@@I@Z 10012521 f i libvcruntime:frame.obj
 0001:00011535       ??0bad_exception@std@@QAE@ABV01@@Z 10012535 f i libvcruntime:frame.obj
 0001:00011550       ??0bad_exception@std@@QAE@XZ 10012550 f i libvcruntime:frame.obj
 0001:00011568       ??0iterator@HandlerMap@__FrameHandler3@@QAE@AAV12@I@Z 10012568 f i libvcruntime:frame.obj
 0001:0001157c       ??1bad_exception@std@@UAE@XZ 1001257c f i libvcruntime:frame.obj
 0001:0001158d       ??8iterator@HandlerMap@__FrameHandler3@@QBE_NABV012@@Z 1001258d f i libvcruntime:frame.obj
 0001:000115a0       ??8type_info@@QBE_NABV0@@Z 100125a0 f i libvcruntime:frame.obj
 0001:000115bf       ??9iterator@HandlerMap@__FrameHandler3@@QBE_NABV012@@Z 100125bf f i libvcruntime:frame.obj
 0001:000115d2       ??Diterator@HandlerMap@__FrameHandler3@@QAE?BU_s_HandlerType@@XZ 100125d2 f i libvcruntime:frame.obj
 0001:000115f1       ??Diterator@TryBlockMap@__FrameHandler3@@QAE?BU_s_TryBlockMapEntry@@XZ 100125f1 f i libvcruntime:frame.obj
 0001:00011613       ??Eiterator@HandlerMap@__FrameHandler3@@QAEAAV012@XZ 10012613 f i libvcruntime:frame.obj
 0001:00011619       ??Eiterator@TryBlockMap@__FrameHandler3@@QAEAAV012@XZ 10012619 f i libvcruntime:frame.obj
 0001:0001161f       ??Miterator@TryBlockMap@__FrameHandler3@@QBE_NABV012@@Z 1001261f f i libvcruntime:frame.obj
 0001:00011632       ??_Ebad_exception@std@@UAEPAXI@Z 10012632 f i libvcruntime:frame.obj
 0001:00011632       ??_Gbad_exception@std@@UAEPAXI@Z 10012632 f i libvcruntime:frame.obj
 0001:0001165f       ?BuildCatchObject@__FrameHandler3@@SAXPAUEHExceptionRecord@@PAXPBU_s_HandlerType@@PBU_s_CatchableType@@@Z 1001265f f   libvcruntime:frame.obj
 0001:00011664       ?BuildCatchObjectHelper@__FrameHandler3@@SAHPAUEHExceptionRecord@@PAXPBU_s_HandlerType@@PBU_s_CatchableType@@@Z 10012664 f   libvcruntime:frame.obj
 0001:000118ba       ?FrameUnwindToEmptyState@__FrameHandler3@@SAXPAUEHRegistrationNode@@PAXPBU_s_FuncInfo@@@Z 100128ba f   libvcruntime:frame.obj
 0001:000118d2       ?FrameUnwindToState@__FrameHandler3@@SAXPAUEHRegistrationNode@@PAXPBU_s_FuncInfo@@H@Z 100128d2 f   libvcruntime:frame.obj
 0001:000119ba       ?GetMaxState@__FrameHandler3@@SAHPAXPBU_s_FuncInfo@@@Z 100129ba f i libvcruntime:frame.obj
 0001:00011a98       ?TypeMatch@__FrameHandler3@@SAHPBU_s_HandlerType@@PBU_s_CatchableType@@PBU_s_ThrowInfo@@@Z 10012a98 f   libvcruntime:frame.obj
 0001:00011aa1       ?_CallMemberFunction1@@YGXQAX00@Z 10012aa1 f i libvcruntime:frame.obj
 0001:00011ab1       ?_CallMemberFunction2@@YGXQAX00H@Z 10012ab1 f i libvcruntime:frame.obj
 0001:00011ac4       ?begin@HandlerMap@__FrameHandler3@@QAE?AViterator@12@XZ 10012ac4 f i libvcruntime:frame.obj
 0001:00011ad4       ?end@HandlerMap@__FrameHandler3@@QAE?AViterator@12@XZ 10012ad4 f i libvcruntime:frame.obj
 0001:00011ae5       ?getESTypes@__FrameHandler3@@SAPBU_s_ESTypeList@@PBU_s_FuncInfo@@@Z 10012ae5 f i libvcruntime:frame.obj
 0001:00011af0       ?getLastEntry@HandlerMap@__FrameHandler3@@QAEPBU_s_HandlerType@@XZ 10012af0 f i libvcruntime:frame.obj
 0001:00011afe       ?getMagicNum@__FrameHandler3@@SAIPBU_s_FuncInfo@@@Z 10012afe f i libvcruntime:frame.obj
 0001:00011b0d       ?getNumTryBlocks@TryBlockMap@__FrameHandler3@@QAEIXZ 10012b0d f i libvcruntime:frame.obj
 0001:00011b13       ?isEHs@__FrameHandler3@@SA_NPBU_s_FuncInfo@@@Z 10012b13 f i libvcruntime:frame.obj
 0001:00011b20       ?isNoExcept@__FrameHandler3@@SA_NPBU_s_FuncInfo@@@Z 10012b20 f i libvcruntime:frame.obj
 0001:00011b30       ___BuildCatchObject        10012b30 f   libvcruntime:frame.obj
 0001:00011b35       ___BuildCatchObjectHelper  10012b35 f   libvcruntime:frame.obj
 0001:00011b3e       ___TypeMatch               10012b3e f   libvcruntime:frame.obj
 0001:00011b47       ___vcrt_EncodePointer      10012b47 f i libvcruntime:frame.obj
 0001:00011b60       __CallSettingFrame@12      10012b60 f   libvcruntime:lowhelpr.obj
 0001:00011b87       __NLG_Return               10012b87     libvcruntime:lowhelpr.obj
 0001:00011bb7       ___except_validate_context_record 10012bb7 f   libvcruntime:jbcxrval.obj
 0001:00011be7       ___except_validate_jump_buffer 10012be7 f   libvcruntime:jbcxrval.obj
 0001:00011c14       ___except_validate_jump_buffer_common 10012c14 f i libvcruntime:jbcxrval.obj
 0001:00011c50       __local_unwind4            10012c50 f   libvcruntime:exsup4.obj
 0001:00011d40       __seh_longjmp_unwind4@4    10012d40 f   libvcruntime:exsup4.obj
 0001:00011d70       @_EH4_CallFilterFunc@8     10012d70 f   libvcruntime:exsup4.obj
 0001:00011d90       @_EH4_TransferToHandler@8  10012d90 f   libvcruntime:exsup4.obj
 0001:00011db0       @_EH4_GlobalUnwind2@8      10012db0 f   libvcruntime:exsup4.obj
 0001:00011dd0       @_EH4_LocalUnwind@16       10012dd0 f   libvcruntime:exsup4.obj
 0001:00011de7       ___vcrt_initialize_locks   10012de7 f   libvcruntime:locks.obj
 0001:00011e23       ___vcrt_lock               10012e23 f   libvcruntime:locks.obj
 0001:00011e38       ___vcrt_uninitialize_locks 10012e38 f   libvcruntime:locks.obj
 0001:00011e67       ___vcrt_unlock             10012e67 f   libvcruntime:locks.obj
 0001:00011e7c       ??$?0$00@DName@@QAE@PBDU?$StringLifeSelector@$00@@@Z 10012e7c f i libvcruntime:undname.obj
 0001:00011eaf       ??$?0$00@pcharNode@@QAE@PBDHU?$StringLifeSelector@$00@@@Z 10012eaf f i libvcruntime:undname.obj
 0001:00011eca       ??$?0$01@DName@@QAE@PBDU?$StringLifeSelector@$01@@@Z 10012eca f i libvcruntime:undname.obj
 0001:00011efd       ??$?0$01@pcharNode@@QAE@PBDHU?$StringLifeSelector@$01@@@Z 10012efd f i libvcruntime:undname.obj
 0001:00011f3d       ??$?0$0A@@DName@@QAE@PBDU?$StringLifeSelector@$0A@@@@Z 10012f3d f i libvcruntime:undname.obj
 0001:00011f70       ??$?0$0A@@pcharNode@@QAE@PBDHU?$StringLifeSelector@$0A@@@@Z 10012f70 f i libvcruntime:undname.obj
 0001:00011fb0       ??$?0_K$0A@@?$optional@_K@std@@QAE@$$QA_K@Z 10012fb0 f i libvcruntime:undname.obj
 0001:00011fca       ??$?0_K@?$_Optional_construct_base@_K@std@@QAE@Uin_place_t@1@$$QA_K@Z 10012fca f i libvcruntime:undname.obj
 0001:00011fe4       ??$?0_K@?$_Optional_destruct_base@_K$00@std@@QAE@Uin_place_t@1@$$QA_K@Z 10012fe4 f i libvcruntime:undname.obj
 0001:00011ffe       ??$append@VDNameNode@@@DName@@AAEXPBVDNameNode@@@Z 10012ffe f i libvcruntime:undname.obj
 0001:0001203f       ??$append@VDNameStatusNode@@@DName@@AAEXPBVDNameStatusNode@@@Z 1001303f f i libvcruntime:undname.obj
 0001:00012080       ??$append@VcharNode@@@DName@@AAEXPBVcharNode@@@Z 10013080 f i libvcruntime:undname.obj
 0001:000120c1       ??$append@VpDNameNode@@@DName@@AAEXPBVpDNameNode@@@Z 100130c1 f i libvcruntime:undname.obj
 0001:00012102       ??$append@VpcharNode@@@DName@@AAEXPBVpcharNode@@@Z 10013102 f i libvcruntime:undname.obj
 0001:00012143       ??$doPchar@$00@DName@@AAEXPBDH@Z 10013143 f i libvcruntime:undname.obj
 0001:000121ae       ??$doPchar@$01@DName@@AAEXPBDH@Z 100131ae f i libvcruntime:undname.obj
 0001:0001221f       ??$doPchar@$0A@@DName@@AAEXPBDH@Z 1001321f f i libvcruntime:undname.obj
 0001:00012290       ??$forward@_K@std@@YA$$QA_KAA_K@Z 10013290 f i libvcruntime:undname.obj
 0001:00012298       ??$size@D$04@std@@YAIAAY04$$CBD@Z 10013298 f i libvcruntime:undname.obj
 0001:0001229c       ??$size@D$0EB@@std@@YAIAAY0EB@$$CBD@Z 1001329c f i libvcruntime:undname.obj
 0001:000122a0       ??0?$_Optional_construct_base@_K@std@@QAE@XZ 100132a0 f i libvcruntime:undname.obj
 0001:000122a7       ??0?$_Optional_destruct_base@_K$00@std@@QAE@XZ 100132a7 f i libvcruntime:undname.obj
 0001:000122ae       ??0?$optional@_K@std@@QAE@XZ 100132ae f i libvcruntime:undname.obj
 0001:000122b5       ??0Block@_HeapManager@@QAE@XZ 100132b5 f i libvcruntime:undname.obj
 0001:000122bb       ??0DName@@QAE@AAPBDD@Z     100132bb f   libvcruntime:undname.obj
 0001:0001233b       ??0DName@@QAE@ABUStringLiteral@@@Z 1001333b f   libvcruntime:undname.obj
 0001:00012362       ??0DName@@QAE@ABV0@@Z      10013362 f i libvcruntime:undname.obj
 0001:00012378       ??0DName@@QAE@D@Z          10013378 f   libvcruntime:undname.obj
 0001:00012394       ??0DName@@QAE@PAV0@@Z      10013394 f   libvcruntime:undname.obj
 0001:000123db       ??0DName@@QAE@W4DNameStatus@@@Z 100133db f   libvcruntime:undname.obj
 0001:0001241b       ??0DName@@QAE@XZ           1001341b f i libvcruntime:undname.obj
 0001:00012425       ??0DName@@QAE@_J@Z         10013425 f   libvcruntime:undname.obj
 0001:000124b1       ??0DName@@QAE@_K@Z         100134b1 f   libvcruntime:undname.obj
 0001:00012517       ??0DNameNode@@IAE@XZ       10013517 f i libvcruntime:undname.obj
 0001:00012520       ??0Replicator@@QAE@XZ      10013520 f i libvcruntime:undname.obj
 0001:0001252f       ??0UnDecorator@@QAE@PBDP6APADJ@ZK@Z 1001352f f i libvcruntime:undname.obj
 0001:0001257b       ??0_Nontrivial_dummy_type@std@@QAE@XZ 1001357b f i libvcruntime:undname.obj
 0001:0001257e       ??0charNode@@QAE@D@Z       1001357e f i libvcruntime:undname.obj
 0001:00012593       ??0pDNameNode@@QAE@PAVDName@@@Z 10013593 f   libvcruntime:undname.obj
 0001:000125bb       ??0pairNode@@QAE@PBVDNameNode@@0@Z 100135bb f i libvcruntime:undname.obj
 0001:000125e1       ??2@YAPAXIAAV_HeapManager@@H@Z 100135e1 f   libvcruntime:undname.obj
 0001:00012600       ??4DName@@QAEAAV0@ABUStringLiteral@@@Z 10013600 f   libvcruntime:undname.obj
 0001:00012621       ??4DName@@QAEAAV0@ABV0@@Z  10013621 f   libvcruntime:undname.obj
 0001:00012637       ??4DName@@QAEAAV0@D@Z      10013637 f i libvcruntime:undname.obj
 0001:00012653       ??4DName@@QAEAAV0@PAV0@@Z  10013653 f   libvcruntime:undname.obj
 0001:00012696       ??4DName@@QAEAAV0@W4DNameStatus@@@Z 10013696 f   libvcruntime:undname.obj
 0001:000126c8       ??AReplicator@@QBE?AVDName@@H@Z 100136c8 f   libvcruntime:undname.obj
 0001:0001270e       ??B?$optional@_K@std@@QBE_NXZ 1001370e f i libvcruntime:undname.obj
 0001:00012712       ??D?$optional@_K@std@@QGAEAA_KXZ 10013712 f i libvcruntime:undname.obj
 0001:00012715       ??H@YA?AVDName@@ABUStringLiteral@@ABV0@@Z 10013715 f i libvcruntime:undname.obj
 0001:00012737       ??H@YA?AVDName@@DABV0@@Z   10013737 f i libvcruntime:undname.obj
 0001:00012762       ??H@YA?AVDName@@W4DNameStatus@@ABV0@@Z 10013762 f i libvcruntime:undname.obj
 0001:00012784       ??HDName@@QBE?AV0@ABUStringLiteral@@@Z 10013784 f   libvcruntime:undname.obj
 0001:000127a6       ??HDName@@QBE?AV0@ABV0@@Z  100137a6 f   libvcruntime:undname.obj
 0001:000127c8       ??HDName@@QBE?AV0@D@Z      100137c8 f   libvcruntime:undname.obj
 0001:000127ea       ??HDName@@QBE?AV0@PAV0@@Z  100137ea f   libvcruntime:undname.obj
 0001:0001280c       ??HDName@@QBE?AV0@W4DNameStatus@@@Z 1001380c f   libvcruntime:undname.obj
 0001:0001282e       ??HStringLiteral@@QBE?AU0@H@Z 1001382e f i libvcruntime:undname.obj
 0001:00012848       ??YDName@@QAEAAV0@ABUStringLiteral@@@Z 10013848 f   libvcruntime:undname.obj
 0001:000128a0       ??YDName@@QAEAAV0@ABV0@@Z  100138a0 f   libvcruntime:undname.obj
 0001:000128f7       ??YDName@@QAEAAV0@D@Z      100138f7 f   libvcruntime:undname.obj
 0001:0001294c       ??YDName@@QAEAAV0@PAV0@@Z  1001394c f   libvcruntime:undname.obj
 0001:000129b0       ??YDName@@QAEAAV0@W4DNameStatus@@@Z 100139b0 f   libvcruntime:undname.obj
 0001:000129f0       ??YReplicator@@QAEAAV0@ABVDName@@@Z 100139f0 f   libvcruntime:undname.obj
 0001:00012a2e       ??_5DName@@QAEAAV0@ABV0@@Z 10013a2e f   libvcruntime:undname.obj
 0001:00012a4a       ??__K_l@@YA?AUStringLiteral@@PBDI@Z 10013a4a f i libvcruntime:undname.obj
 0001:00012a55       ?Constructor@_HeapManager@@QAEXP6APAXI@ZP6AXPAX@Z@Z 10013a55 f i libvcruntime:undname.obj
 0001:00012a72       ?Destructor@_HeapManager@@QAEXXZ 10013a72 f i libvcruntime:undname.obj
 0001:00012ab9       ?UScore@UnDecorator@@SA?AUStringLiteral@@W4Tokens@@@Z 10013ab9 f   libvcruntime:undname.obj
 0001:00012ae0       ?composeDeclaration@UnDecorator@@CA?AVDName@@ABV2@@Z 10013ae0 f i libvcruntime:undname.obj
 0001:00013813       ?doAccessSpecifiers@UnDecorator@@SAHXZ 10014813 f i libvcruntime:undname.obj
 0001:00013821       ?doAllocationLanguage@UnDecorator@@SAHXZ 10014821 f i libvcruntime:undname.obj
 0001:0001382f       ?doAllocationModel@UnDecorator@@SAHXZ 1001482f f i libvcruntime:undname.obj
 0001:0001383d       ?doEcsu@UnDecorator@@SAHXZ 1001483d f i libvcruntime:undname.obj
 0001:0001384b       ?doEllipsis@UnDecorator@@SAHXZ 1001484b f i libvcruntime:undname.obj
 0001:00013859       ?doFunctionReturns@UnDecorator@@SAHXZ 10014859 f i libvcruntime:undname.obj
 0001:00013867       ?doMSKeywords@UnDecorator@@SAHXZ 10014867 f i libvcruntime:undname.obj
 0001:00013874       ?doMemberTypes@UnDecorator@@SAHXZ 10014874 f i libvcruntime:undname.obj
 0001:00013882       ?doNameOnly@UnDecorator@@SAHXZ 10014882 f i libvcruntime:undname.obj
 0001:0001388d       ?doNoIdentCharCheck@UnDecorator@@SAHXZ 1001488d f i libvcruntime:undname.obj
 0001:00013898       ?doPchar@DName@@AAEXD@Z    10014898 f   libvcruntime:undname.obj
 0001:000138d0       ?doPtr64@UnDecorator@@SAHXZ 100148d0 f i libvcruntime:undname.obj
 0001:000138de       ?doRestrictionSpec@UnDecorator@@SAHXZ 100148de f i libvcruntime:undname.obj
 0001:000138ec       ?doThisTypes@UnDecorator@@SAHXZ 100148ec f i libvcruntime:undname.obj
 0001:000138fe       ?doThrowTypes@UnDecorator@@SAHXZ 100148fe f i libvcruntime:undname.obj
 0001:0001390c       ?doTypeOnly@UnDecorator@@SAHXZ 1001490c f i libvcruntime:undname.obj
 0001:00013917       ?doUnderScore@UnDecorator@@SAHXZ 10014917 f i libvcruntime:undname.obj
 0001:00013922       ?getAddressOf@UnDecorator@@CA?AVDName@@XZ 10014922 f   libvcruntime:undname.obj
 0001:00013995       ?getArgumentList@UnDecorator@@CA?AVDName@@XZ 10014995 f   libvcruntime:undname.obj
 0001:00013aa2       ?getArgumentTypes@UnDecorator@@CA?AVDName@@XZ 10014aa2 f   libvcruntime:undname.obj
 0001:00013bbb       ?getArrayAccess@UnDecorator@@CA?AVDName@@XZ 10014bbb f   libvcruntime:undname.obj
 0001:00013c3a       ?getArrayObject@UnDecorator@@CA?AVDName@@XZ 10014c3a f   libvcruntime:undname.obj
 0001:00013cdc       ?getArrayType@UnDecorator@@CA?AVDName@@ABV2@@Z 10014cdc f i libvcruntime:undname.obj
 0001:00013e79       ?getBasedType@UnDecorator@@CA?AVDName@@XZ 10014e79 f   libvcruntime:undname.obj
 0001:00013f34       ?getBasicDataType@UnDecorator@@CA?AVDName@@ABV2@@Z 10014f34 f   libvcruntime:undname.obj
 0001:00014468       ?getCHPEName@UnDecorator@@QAEPADPADH@Z 10015468 f i libvcruntime:undname.obj
 0001:00014545       ?getCallIndex@UnDecorator@@CA?AVDName@@XZ 10015545 f i libvcruntime:undname.obj
 0001:00014559       ?getCallingConvention@UnDecorator@@CA?AVDName@@XZ 10015559 f   libvcruntime:undname.obj
 0001:00014636       ?getDataIndirectType@UnDecorator@@CA?AVDName@@ABV2@W4IndirectionKind@@0H@Z 10015636 f   libvcruntime:undname.obj
 0001:00014ccc       ?getDataIndirectType@UnDecorator@@CA?AVDName@@XZ 10015ccc f i libvcruntime:undname.obj
 0001:00014cfa       ?getDataType@UnDecorator@@CA?AVDName@@PAV2@@Z 10015cfa f   libvcruntime:undname.obj
 0001:00014dd1       ?getDecoratedName@UnDecorator@@CA?AVDName@@XZ 10015dd1 f   libvcruntime:undname.obj
 0001:0001503b       ?getDimension@UnDecorator@@CA?AVDName@@_N@Z 1001603b f   libvcruntime:undname.obj
 0001:00015152       ?getDispatchTarget@UnDecorator@@CA?AVDName@@XZ 10016152 f   libvcruntime:undname.obj
 0001:000151a6       ?getDisplacement@UnDecorator@@CA?AVDName@@XZ 100161a6 f i libvcruntime:undname.obj
 0001:000151ba       ?getECSUDataType@UnDecorator@@CA?AVDName@@XZ 100161ba f   libvcruntime:undname.obj
 0001:0001534a       ?getECSUName@UnDecorator@@CA?AVDName@@XZ 1001634a f i libvcruntime:undname.obj
 0001:0001535b       ?getEnumType@UnDecorator@@CA?AVDName@@XZ 1001635b f i libvcruntime:undname.obj
 0001:0001547b       ?getExtendedDataIndirectType@UnDecorator@@CA?AVDName@@AAW4IndirectionKind@@AA_NH@Z 1001647b f   libvcruntime:undname.obj
 0001:0001562e       ?getExternalDataType@UnDecorator@@CA?AVDName@@ABV2@@Z 1001662e f i libvcruntime:undname.obj
 0001:00015693       ?getFloatingPoint@UnDecorator@@CA?AVDName@@H@Z 10016693 f   libvcruntime:undname.obj
 0001:00015787       ?getFunctionIndirectType@UnDecorator@@CA?AVDName@@ABV2@@Z 10016787 f   libvcruntime:undname.obj
 0001:00015b40       ?getGuardNumber@UnDecorator@@CA?AVDName@@XZ 10016b40 f i libvcruntime:undname.obj
 0001:00015b54       ?getLastChar@DName@@QBEDXZ 10016b54 f i libvcruntime:undname.obj
 0001:00015b74       ?getLastChar@DNameStatusNode@@UBEDXZ 10016b74 f i libvcruntime:undname.obj
 0001:00015b80       ?getLastChar@charNode@@UBEDXZ 10016b80 f i libvcruntime:undname.obj
 0001:00015b84       ?getLastChar@pDNameNode@@UBEDXZ 10016b84 f i libvcruntime:undname.obj
 0001:00015b92       ?getLastChar@pairNode@@UBEDXZ 10016b92 f i libvcruntime:undname.obj
 0001:00015bc7       ?getLastChar@pcharNode@@UBEDXZ 10016bc7 f i libvcruntime:undname.obj
 0001:00015bd9       ?getLexicalFrame@UnDecorator@@CA?AVDName@@XZ 10016bd9 f i libvcruntime:undname.obj
 0001:00015c0a       ?getMemberAccess@UnDecorator@@CA?AVDName@@XZ 10016c0a f   libvcruntime:undname.obj
 0001:00015c85       ?getMemoryWithBuffer@_HeapManager@@QAEPAXI@Z 10016c85 f   libvcruntime:undname.obj
 0001:00015cef       ?getMemoryWithoutBuffer@_HeapManager@@QAEPAXI@Z 10016cef f   libvcruntime:undname.obj
 0001:00015d0f       ?getNoexcept@UnDecorator@@CA?AVDName@@XZ 10016d0f f   libvcruntime:undname.obj
 0001:00015d63       ?getNumberOfDimensions@UnDecorator@@CAHXZ 10016d63 f   libvcruntime:undname.obj
 0001:00015dc4       ?getOperatorName@UnDecorator@@CA?AVDName@@_NPA_N@Z 10016dc4 f i libvcruntime:undname.obj
 0001:0001652a       ?getPointerToMember@UnDecorator@@CA?AVDName@@XZ 1001752a f   libvcruntime:undname.obj
 0001:000165e5       ?getPointerType@UnDecorator@@CA?AVDName@@ABV2@0@Z 100175e5 f i libvcruntime:undname.obj
 0001:00016600       ?getPointerTypeArray@UnDecorator@@CA?AVDName@@ABV2@0@Z 10017600 f i libvcruntime:undname.obj
 0001:0001661b       ?getPrimaryDataType@UnDecorator@@CA?AVDName@@ABV2@@Z 1001761b f   libvcruntime:undname.obj
 0001:0001686a       ?getPtrRefDataType@UnDecorator@@CA?AVDName@@ABV2@H@Z 1001786a f   libvcruntime:undname.obj
 0001:000169d7       ?getPtrRefType@UnDecorator@@CA?AVDName@@ABV2@0W4IndirectionKind@@@Z 100179d7 f   libvcruntime:undname.obj
 0001:00016ae8       ?getReferenceType@UnDecorator@@CA?AVDName@@ABV2@0W4IndirectionKind@@@Z 10017ae8 f i libvcruntime:undname.obj
 0001:00016b04       ?getRestrictionSpec@UnDecorator@@CA?AVDName@@XZ 10017b04 f   libvcruntime:undname.obj
 0001:00016c2c       ?getReturnType@UnDecorator@@CA?AVDName@@PAV2@@Z 10017c2c f   libvcruntime:undname.obj
 0001:00016c5b       ?getScope@UnDecorator@@CA?AVDName@@XZ 10017c5b f   libvcruntime:undname.obj
 0001:0001700d       ?getScopedName@UnDecorator@@CA?AVDName@@XZ 1001800d f   libvcruntime:undname.obj
 0001:000170f8       ?getSignedDimension@UnDecorator@@CA?AVDName@@XZ 100180f8 f   libvcruntime:undname.obj
 0001:00017149       ?getStorageConvention@UnDecorator@@CA?AVDName@@XZ 10018149 f i libvcruntime:undname.obj
 0001:0001715a       ?getString@DName@@QBEPADPAD0@Z 1001815a f i libvcruntime:undname.obj
 0001:00017187       ?getString@DName@@QBEPADPADH@Z 10018187 f i libvcruntime:undname.obj
 0001:000171dc       ?getString@DNameStatusNode@@UBEPADPAD0@Z 100181dc f i libvcruntime:undname.obj
 0001:00017222       ?getString@charNode@@UBEPADPAD0@Z 10018222 f i libvcruntime:undname.obj
 0001:00017237       ?getString@pDNameNode@@UBEPADPAD0@Z 10018237 f i libvcruntime:undname.obj
 0001:0001724e       ?getString@pairNode@@UBEPADPAD0@Z 1001824e f i libvcruntime:undname.obj
 0001:00017294       ?getString@pcharNode@@UBEPADPAD0@Z 10018294 f i libvcruntime:undname.obj
 0001:000172af       ?getStringEncoding@UnDecorator@@CA?AVDName@@W4PrefixKind@@H@Z 100182af f   libvcruntime:undname.obj
 0001:00017367       ?getStringHelper@@YAPADPADPBD1H@Z 10018367 f i libvcruntime:undname.obj
 0001:00017391       ?getStringObject@UnDecorator@@CA?AVDName@@XZ 10018391 f   libvcruntime:undname.obj
 0001:000173e8       ?getSymbolName@UnDecorator@@CA?AVDName@@XZ 100183e8 f i libvcruntime:undname.obj
 0001:00017430       ?getTemplateArgumentList@UnDecorator@@CA?AVDName@@XZ 10018430 f   libvcruntime:undname.obj
 0001:000175ec       ?getTemplateName@UnDecorator@@CA?AVDName@@_N@Z 100185ec f   libvcruntime:undname.obj
 0001:0001774d       ?getTemplateNonTypeArgument@UnDecorator@@CA?AVDName@@XZ 1001874d f   libvcruntime:undname.obj
 0001:00017b01       ?getTemplateTypeArgument@UnDecorator@@CA?AVDName@@XZ 10018b01 f   libvcruntime:undname.obj
 0001:00017c07       ?getThisType@UnDecorator@@CA?AVDName@@XZ 10018c07 f i libvcruntime:undname.obj
 0001:00017c36       ?getThrowTypes@UnDecorator@@CA?AVDName@@XZ 10018c36 f   libvcruntime:undname.obj
 0001:00017c59       ?getTypeEncoding@UnDecorator@@CAHXZ 10018c59 f i libvcruntime:undname.obj
 0001:00017fb9       ?getUndecoratedName@UnDecorator@@QAEPADPADH@Z 10018fb9 f i libvcruntime:undname.obj
 0001:000180d8       ?getUnionObject@UnDecorator@@CA?AVDName@@XZ 100190d8 f   libvcruntime:undname.obj
 0001:00018187       ?getVCallThunkType@UnDecorator@@CA?AVDName@@XZ 10019187 f i libvcruntime:undname.obj
 0001:000181dd       ?getValue@UnDecorator@@CA?AV?$optional@_K@std@@XZ 100191dd f   libvcruntime:undname.obj
 0001:0001824b       ?getValueObject@UnDecorator@@CA?AVDName@@XZ 1001924b f   libvcruntime:undname.obj
 0001:00018363       ?getVbTableType@UnDecorator@@CA?AVDName@@ABV2@@Z 10019363 f i libvcruntime:undname.obj
 0001:00018378       ?getVdispMapType@UnDecorator@@CA?AVDName@@ABV2@@Z 10019378 f i libvcruntime:undname.obj
 0001:000183d9       ?getVfTableType@UnDecorator@@CA?AVDName@@ABV2@@Z 100193d9 f i libvcruntime:undname.obj
 0001:0001852f       ?getZName@UnDecorator@@CA?AVDName@@_N0@Z 1001952f f   libvcruntime:undname.obj
 0001:00018744       ?haveTemplateParameters@UnDecorator@@SAHXZ 10019744 f i libvcruntime:undname.obj
 0001:0001874f       ?isArray@DName@@QBEHXZ     1001974f f i libvcruntime:undname.obj
 0001:00018759       ?isComArray@DName@@QBEHXZ  10019759 f i libvcruntime:undname.obj
 0001:00018763       ?isEmpty@DName@@QBEHXZ     10019763 f i libvcruntime:undname.obj
 0001:0001876b       ?isFull@Replicator@@QBEHXZ 1001976b f i libvcruntime:undname.obj
 0001:00018774       ?isNoTE@DName@@QBEHXZ      10019774 f i libvcruntime:undname.obj
 0001:0001877e       ?isPinPtr@DName@@QBEHXZ    1001977e f i libvcruntime:undname.obj
 0001:00018788       ?isPtrRef@DName@@QBEHXZ    10019788 f i libvcruntime:undname.obj
 0001:00018792       ?isUDC@DName@@QBEHXZ       10019792 f i libvcruntime:undname.obj
 0001:000187a3       ?isUDTThunk@DName@@QBEHXZ  100197a3 f i libvcruntime:undname.obj
 0001:000187b4       ?isVCallThunk@DName@@QBEHXZ 100197b4 f i libvcruntime:undname.obj
 0001:000187be       ?isValid@DName@@QBEHXZ     100197be f i libvcruntime:undname.obj
 0001:000187c8       ?length@DName@@QBEHXZ      100197c8 f i libvcruntime:undname.obj
 0001:000187e7       ?length@DNameStatusNode@@UBEHXZ 100197e7 f i libvcruntime:undname.obj
 0001:000187eb       ?length@charNode@@UBEHXZ   100197eb f i libvcruntime:undname.obj
 0001:000187ef       ?length@pDNameNode@@UBEHXZ 100197ef f i libvcruntime:undname.obj
 0001:000187fd       ?length@pairNode@@UBEHXZ   100197fd f i libvcruntime:undname.obj
 0001:00018846       ?length@pcharNode@@UBEHXZ  10019846 f i libvcruntime:undname.obj
 0001:0001884a       ?make@DNameStatusNode@@SAPBV1@W4DNameStatus@@@Z 1001984a f i libvcruntime:undname.obj
 0001:00018866       ?parseDecoratedName@UnDecorator@@CA?AVDName@@XZ 10019866 f   libvcruntime:undname.obj
 0001:00018960       ?raw_length@DNameStatusNode@@UBEHXZ 10019960 f i libvcruntime:undname.obj
 0001:00018964       ?raw_length@charNode@@UBEHXZ 10019964 f i libvcruntime:undname.obj
 0001:00018968       ?raw_length@pDNameNode@@UBEHXZ 10019968 f i libvcruntime:undname.obj
 0001:0001896c       ?raw_length@pairNode@@UBEHXZ 1001996c f i libvcruntime:undname.obj
 0001:00018970       ?raw_length@pcharNode@@UBEHXZ 10019970 f i libvcruntime:undname.obj
 0001:00018974       ?setIsArray@DName@@QAEXXZ  10019974 f i libvcruntime:undname.obj
 0001:0001897c       ?setIsComArray@DName@@QAEXXZ 1001997c f i libvcruntime:undname.obj
 0001:00018984       ?setIsNoTE@DName@@QAEXXZ   10019984 f i libvcruntime:undname.obj
 0001:0001898c       ?setIsPinPtr@DName@@QAEXXZ 1001998c f i libvcruntime:undname.obj
 0001:00018994       ?setIsUDC@DName@@QAEXXZ    10019994 f i libvcruntime:undname.obj
 0001:000189a1       ?setIsVCallThunk@DName@@QAEXXZ 100199a1 f i libvcruntime:undname.obj
 0001:000189a9       ?setPtrRef@DName@@QAEAAV1@XZ 100199a9 f i libvcruntime:undname.obj
 0001:000189b3       ?status@DName@@QBE?AW4DNameStatus@@XZ 100199b3 f i libvcruntime:undname.obj
 0001:00018a1f       ___unDName                 10019a1f f   libvcruntime:undname.obj
 0001:00018a42       ___unDNameEx               10019a42 f   libvcruntime:undname.obj
 0001:00018ae1       __vsprintf_s_l             10019ae1 f i libvcruntime:undname.obj
 0001:00018b0e       _sprintf_s                 10019b0e f i libvcruntime:undname.obj
 0001:00018b2a       _unDNameGenerateCHPE       10019b2a f   libvcruntime:undname.obj
 0001:00018bc7       ??$__crt_interlocked_exchange_pointer@UHINSTANCE__@@PAU1@@@YAPAUHINSTANCE__@@PDSAU0@QAU0@@Z 10019bc7 f i libvcruntime:winapi_downlevel.obj
 0001:00018bd4       ??$__crt_interlocked_exchange_pointer@UHINSTANCE__@@PAX@@YAPAUHINSTANCE__@@PDSAU0@QAX@Z 10019bd4 f i libvcruntime:winapi_downlevel.obj
 0001:00018be1       ??$__crt_interlocked_exchange_pointer@XPAX@@YAPAXPDSAXQAX@Z 10019be1 f i libvcruntime:winapi_downlevel.obj
 0001:00018bee       ??$__crt_interlocked_read_pointer@UHINSTANCE__@@@@YAPAUHINSTANCE__@@PDSAU0@@Z 10019bee f i libvcruntime:winapi_downlevel.obj
 0001:00018bf8       ??$__crt_interlocked_read_pointer@X@@YAPAXPDSAX@Z 10019bf8 f i libvcruntime:winapi_downlevel.obj
 0001:00018e27       ___vcrt_FlsAlloc           10019e27 f   libvcruntime:winapi_downlevel.obj
 0001:00018e62       ___vcrt_FlsFree            10019e62 f   libvcruntime:winapi_downlevel.obj
 0001:00018e9d       ___vcrt_FlsGetValue        10019e9d f   libvcruntime:winapi_downlevel.obj
 0001:00018ed8       ___vcrt_FlsSetValue        10019ed8 f   libvcruntime:winapi_downlevel.obj
 0001:00018f16       ___vcrt_InitializeCriticalSectionEx 10019f16 f   libvcruntime:winapi_downlevel.obj
 0001:00018f5d       ?GetCurrentState@__FrameHandler3@@SAHPAUEHRegistrationNode@@PAXPBU_s_FuncInfo@@@Z 10019f5d f   libvcruntime:ehstate.obj
 0001:00018f7a       ?SetState@__FrameHandler3@@SAXPAUEHRegistrationNode@@PBU_s_FuncInfo@@H@Z 10019f7a f   libvcruntime:ehstate.obj
 0001:00018f90       __global_unwind2           10019f90 f   libvcruntime:exsup.obj
 0001:00019010       __local_unwind2            1001a010 f   libvcruntime:exsup.obj
 0001:000190b0       __abnormal_termination     1001a0b0 f   libvcruntime:exsup.obj
 0001:000190e0       __NLG_Notify1              1001a0e0 f   libvcruntime:exsup.obj
 0001:000190f0       __NLG_Notify               1001a0f0 f   libvcruntime:exsup.obj
 0001:00019107       __NLG_Dispatch             1001a107     libvcruntime:exsup.obj
 0001:00019107       __NLG_Dispatch2            1001a107     libvcruntime:exsup.obj
 0001:00019110       __NLG_Call                 1001a110 f   libvcruntime:exsup.obj
 0001:00019112       __NLG_Return2              1001a112     libvcruntime:exsup.obj
 0001:00019113       ??$__crt_fast_decode_pointer@P6AXPB_W00II@Z@@YAP6AXPB_W00II@ZQ6AX000II@Z@Z 1001a113 f i libucrt:invalid_parameter.obj
 0001:00019129       ??$__crt_fast_encode_pointer@P6AXPB_W00II@Z@@YAP6AXPB_W00II@ZQ6AX000II@Z@Z 1001a129 f i libucrt:invalid_parameter.obj
 0001:00019148       ??$initialize_from_array@$$BY00Q6AXPB_W00II@Z@?$dual_state_global@P6AXPB_W00II@Z@__crt_state_management@@QAAXAAY00Q6AXPB_W00II@Z@Z 1001a148 f i libucrt:invalid_parameter.obj
 0001:00019159       ??0?$cached@H@__crt_cached_ptd_host@@QAE@XZ 1001a159 f i libucrt:invalid_parameter.obj
 0001:00019160       ??0?$cached@K@__crt_cached_ptd_host@@QAE@XZ 1001a160 f i libucrt:invalid_parameter.obj
 0001:00019167       ??0__crt_cached_ptd_host@@QAE@QAU__crt_locale_pointers@@@Z 1001a167 f i libucrt:invalid_parameter.obj
 0001:000191af       ??0__crt_scoped_get_last_error_reset@@QAE@XZ 1001a1af f i libucrt:invalid_parameter.obj
 0001:000191c0       ??1__crt_cached_ptd_host@@QAE@XZ 1001a1c0 f i libucrt:invalid_parameter.obj
 0001:000191fc       ??1__crt_scoped_get_last_error_reset@@QAE@XZ 1001a1fc f i libucrt:invalid_parameter.obj
 0001:00019205       ?__crt_rotate_pointer_value@@YAIIH@Z 1001a205 f i libucrt:invalid_parameter.obj
 0001:00019214       ?check_synchronize_global_state_index@__crt_cached_ptd_host@@AAEIABV__crt_scoped_get_last_error_reset@@@Z 1001a214 f i libucrt:invalid_parameter.obj
 0001:0001922c       ?check_synchronize_global_state_index@__crt_cached_ptd_host@@AAEIXZ 1001a22c f i libucrt:invalid_parameter.obj
 0001:00019255       ?check_synchronize_per_thread_data@__crt_cached_ptd_host@@AAEPAU__acrt_ptd@@XZ 1001a255 f i libucrt:invalid_parameter.obj
 0001:00019272       ?dangerous_get_state_array@?$dual_state_global@P6AXPB_W00II@Z@__crt_state_management@@QAEPAP6AXPB_W00II@ZXZ 1001a272 f i libucrt:invalid_parameter.obj
 0001:00019275       ?force_synchronize_global_state_index@__crt_cached_ptd_host@@AAEIABV__crt_scoped_get_last_error_reset@@@Z 1001a275 f i libucrt:invalid_parameter.obj
 0001:00019282       ?force_synchronize_per_thread_data@__crt_cached_ptd_host@@AAEPAU__acrt_ptd@@XZ 1001a282 f i libucrt:invalid_parameter.obj
 0001:000192c8       ?get_current_global_state_index@__crt_cached_ptd_host@@QAEIXZ 1001a2c8 f i libucrt:invalid_parameter.obj
 0001:000192cd       ?get_current_state_index@__crt_state_management@@YAIABV__crt_scoped_get_last_error_reset@@@Z 1001a2cd f i libucrt:invalid_parameter.obj
 0001:000192d0       ?get_current_state_index@__crt_state_management@@YAIXZ 1001a2d0 f i libucrt:invalid_parameter.obj
 0001:000192d3       ?get_raw_ptd@__crt_cached_ptd_host@@QAEPAU__acrt_ptd@@XZ 1001a2d3 f i libucrt:invalid_parameter.obj
 0001:000192f0       ?get_raw_ptd_noexit@__crt_cached_ptd_host@@QAEPAU__acrt_ptd@@XZ 1001a2f0 f i libucrt:invalid_parameter.obj
 0001:000192fb       ?try_synchronize_per_thread_data@__crt_cached_ptd_host@@AAEPAU__acrt_ptd@@XZ 1001a2fb f i libucrt:invalid_parameter.obj
 0001:00019306       ?unsafe_value@?$cached@H@__crt_cached_ptd_host@@QAEHXZ 1001a306 f i libucrt:invalid_parameter.obj
 0001:00019309       ?unsafe_value@?$cached@K@__crt_cached_ptd_host@@QAEKXZ 1001a309 f i libucrt:invalid_parameter.obj
 0001:0001930c       ?valid@?$cached@H@__crt_cached_ptd_host@@QBE_NXZ 1001a30c f i libucrt:invalid_parameter.obj
 0001:00019310       ?valid@?$cached@K@__crt_cached_ptd_host@@QBE_NXZ 1001a310 f i libucrt:invalid_parameter.obj
 0001:00019314       ?value@?$dual_state_global@P6AXPB_W00II@Z@__crt_state_management@@QAEAAP6AXPB_W00II@ZAAV__crt_cached_ptd_host@@@Z 1001a314 f i libucrt:invalid_parameter.obj
 0001:0001932c       ?value@?$dual_state_global@P6AXPB_W00II@Z@__crt_state_management@@QAEAAP6AXPB_W00II@ZXZ 1001a32c f i libucrt:invalid_parameter.obj
 0001:0001932f       ___acrt_call_reportfault   1001a32f f   libucrt:invalid_parameter.obj
 0001:00019468       ___acrt_enable_global_locale_sync 1001a468 f i libucrt:invalid_parameter.obj
 0001:0001947d       ___acrt_initialize_invalid_parameter_handler 1001a47d f   libucrt:invalid_parameter.obj
 0001:0001948c       ___acrt_locale_changed     1001a48c f i libucrt:invalid_parameter.obj
 0001:00019497       __get_invalid_parameter_handler 1001a497 f   libucrt:invalid_parameter.obj
 0001:000194aa       __get_thread_local_invalid_parameter_handler 1001a4aa f   libucrt:invalid_parameter.obj
 0001:000194bb       __invalid_parameter        1001a4bb f   libucrt:invalid_parameter.obj
 0001:000194f2       __invalid_parameter_internal 1001a4f2 f   libucrt:invalid_parameter.obj
 0001:0001956f       __invalid_parameter_noinfo 1001a56f f   libucrt:invalid_parameter.obj
 0001:0001957f       __invalid_parameter_noinfo_noreturn 1001a57f f   libucrt:invalid_parameter.obj
 0001:0001959c       __invoke_watson            1001a59c f   libucrt:invalid_parameter.obj
 0001:000195d0       __set_invalid_parameter_handler 1001a5d0 f   libucrt:invalid_parameter.obj
 0001:00019600       __set_thread_local_invalid_parameter_handler 1001a600 f   libucrt:invalid_parameter.obj
 0001:0001961d       ?get_doserrno@__crt_cached_ptd_host@@QAEAAU?$cached@K@1@XZ 1001a61d f i libucrt:errno.obj
 0001:00019621       ?get_errno@__crt_cached_ptd_host@@QAEAAU?$cached@H@1@XZ 1001a621 f i libucrt:errno.obj
 0001:00019625       ?set@?$cached@H@__crt_cached_ptd_host@@QAEHH@Z 1001a625 f i libucrt:errno.obj
 0001:00019637       ?set@?$cached@K@__crt_cached_ptd_host@@QAEKK@Z 1001a637 f i libucrt:errno.obj
 0001:00019649       ___acrt_errno_from_os_error 1001a649 f   libucrt:errno.obj
 0001:0001968c       ___acrt_errno_map_os_error 1001a68c f   libucrt:errno.obj
 0001:000196af       ___acrt_errno_map_os_error_ptd 1001a6af f   libucrt:errno.obj
 0001:000196d3       ___doserrno                1001a6d3 f   libucrt:errno.obj
 0001:000196e6       __errno                    1001a6e6 f   libucrt:errno.obj
 0001:000196f9       __get_doserrno             1001a6f9 f   libucrt:errno.obj
 0001:0001971e       __get_errno                1001a71e f   libucrt:errno.obj
 0001:00019743       __set_doserrno             1001a743 f   libucrt:errno.obj
 0001:00019764       __set_errno                1001a764 f   libucrt:errno.obj
 0001:000197e9       _wcscpy_s                  1001a7e9 f   libucrt:wcscpy_s.obj
 0001:0001991b       _wcsncpy_s                 1001a91b f   libucrt:wcsncpy_s.obj
 0001:0001a121       ??1?$__crt_simd_cleanup_guard@$00@@QAE@XZ 1001b121 f i libucrt:strnlen.obj
 0001:0001a125       ??1?$__crt_simd_cleanup_guard@$0A@@@QAE@XZ 1001b125 f i libucrt:strnlen.obj
 0001:0001a128       ?compare_equals@?$__crt_simd_traits@$00E@@SA?AT__m256i@@T2@0@Z 1001b128 f i libucrt:strnlen.obj
 0001:0001a12d       ?compare_equals@?$__crt_simd_traits@$00G@@SA?AT__m256i@@T2@0@Z 1001b12d f i libucrt:strnlen.obj
 0001:0001a132       ?compare_equals@?$__crt_simd_traits@$0A@E@@SA?AT__m128i@@T2@0@Z 1001b132 f i libucrt:strnlen.obj
 0001:0001a137       ?compare_equals@?$__crt_simd_traits@$0A@G@@SA?AT__m128i@@T2@0@Z 1001b137 f i libucrt:strnlen.obj
 0001:0001a13c       ?compute_byte_mask@?$__crt_simd_pack_traits@$00@@SAHT__m256i@@@Z 1001b13c f i libucrt:strnlen.obj
 0001:0001a141       ?compute_byte_mask@?$__crt_simd_pack_traits@$0A@@@SAHT__m128i@@@Z 1001b141 f i libucrt:strnlen.obj
 0001:0001a146       ?get_zero_pack@?$__crt_simd_pack_traits@$00@@SA?AT__m256i@@XZ 1001b146 f i libucrt:strnlen.obj
 0001:0001a14b       ?get_zero_pack@?$__crt_simd_pack_traits@$0A@@@SA?AT__m128i@@XZ 1001b14b f i libucrt:strnlen.obj
 0001:0001a14f       _strnlen                   1001b14f f   libucrt:strnlen.obj
 0001:0001a271       _wcslen                    1001b271 f   libucrt:strnlen.obj
 0001:0001a399       _wcsnlen                   1001b399 f   libucrt:strnlen.obj
 0001:0001a549       _wcsncmp                   1001b549 f   libucrt:wcsncmp.obj
 0001:0001a583       ??$?0ABV?$stream_output_adapter@D@__crt_stdio_output@@AB_KABQBDAAV__crt_cached_ptd_host@@ABQAD@?$format_validation_base@DV?$stream_output_adapter@D@__crt_stdio_output@@@__crt_stdio_output@@IAE@ABV?$stream_output_adapter@D@1@AB_KABQBDAAV__crt_cached_ptd_host@@ABQAD@Z 1001b583 f i libucrt:output.obj
 0001:0001a5a6       ??$?0ABV?$stream_output_adapter@D@__crt_stdio_output@@AB_KABQBDAAV__crt_cached_ptd_host@@ABQAD@?$positional_parameter_base@DV?$stream_output_adapter@D@__crt_stdio_output@@@__crt_stdio_output@@IAE@ABV?$stream_output_adapter@D@1@AB_KABQBDAAV__crt_cached_ptd_host@@ABQAD@Z 1001b5a6 f i libucrt:output.obj
 0001:0001a5ee       ??$?0ABV?$stream_output_adapter@D@__crt_stdio_output@@AB_KABQBDAAV__crt_cached_ptd_host@@ABQAD@?$standard_base@DV?$stream_output_adapter@D@__crt_stdio_output@@@__crt_stdio_output@@IAE@ABV?$stream_output_adapter@D@1@AB_KABQBDAAV__crt_cached_ptd_host@@ABQAD@Z 1001b5ee f i libucrt:output.obj
 0001:0001a621       ??$?0ABV?$stream_output_adapter@_W@__crt_stdio_output@@AB_KABQB_WAAV__crt_cached_ptd_host@@ABQAD@?$format_validation_base@_WV?$stream_output_adapter@_W@__crt_stdio_output@@@__crt_stdio_output@@IAE@ABV?$stream_output_adapter@_W@1@AB_KABQB_WAAV__crt_cached_ptd_host@@ABQAD@Z 1001b621 f i libucrt:output.obj
 0001:0001a644       ??$?0ABV?$stream_output_adapter@_W@__crt_stdio_output@@AB_KABQB_WAAV__crt_cached_ptd_host@@ABQAD@?$positional_parameter_base@_WV?$stream_output_adapter@_W@__crt_stdio_output@@@__crt_stdio_output@@IAE@ABV?$stream_output_adapter@_W@1@AB_KABQB_WAAV__crt_cached_ptd_host@@ABQAD@Z 1001b644 f i libucrt:output.obj
 0001:0001a68c       ??$?0ABV?$stream_output_adapter@_W@__crt_stdio_output@@AB_KABQB_WAAV__crt_cached_ptd_host@@ABQAD@?$standard_base@_WV?$stream_output_adapter@_W@__crt_stdio_output@@@__crt_stdio_output@@IAE@ABV?$stream_output_adapter@_W@1@AB_KABQB_WAAV__crt_cached_ptd_host@@ABQAD@Z 1001b68c f i libucrt:output.obj
 0001:0001a6bf       ??$?0ABV?$string_output_adapter@D@__crt_stdio_output@@AB_KABQBDAAV__crt_cached_ptd_host@@ABQAD@?$format_validation_base@DV?$string_output_adapter@D@__crt_stdio_output@@@__crt_stdio_output@@IAE@ABV?$string_output_adapter@D@1@AB_KABQBDAAV__crt_cached_ptd_host@@ABQAD@Z 1001b6bf f i libucrt:output.obj
 0001:0001a6e2       ??$?0ABV?$string_output_adapter@D@__crt_stdio_output@@AB_KABQBDAAV__crt_cached_ptd_host@@ABQAD@?$positional_parameter_base@DV?$string_output_adapter@D@__crt_stdio_output@@@__crt_stdio_output@@IAE@ABV?$string_output_adapter@D@1@AB_KABQBDAAV__crt_cached_ptd_host@@ABQAD@Z 1001b6e2 f i libucrt:output.obj
 0001:0001a72a       ??$?0ABV?$string_output_adapter@D@__crt_stdio_output@@AB_KABQBDAAV__crt_cached_ptd_host@@ABQAD@?$standard_base@DV?$string_output_adapter@D@__crt_stdio_output@@@__crt_stdio_output@@IAE@ABV?$string_output_adapter@D@1@AB_KABQBDAAV__crt_cached_ptd_host@@ABQAD@Z 1001b72a f i libucrt:output.obj
 0001:0001a75d       ??$?0ABV?$string_output_adapter@_W@__crt_stdio_output@@AB_KABQB_WAAV__crt_cached_ptd_host@@ABQAD@?$format_validation_base@_WV?$string_output_adapter@_W@__crt_stdio_output@@@__crt_stdio_output@@IAE@ABV?$string_output_adapter@_W@1@AB_KABQB_WAAV__crt_cached_ptd_host@@ABQAD@Z 1001b75d f i libucrt:output.obj
 0001:0001a780       ??$?0ABV?$string_output_adapter@_W@__crt_stdio_output@@AB_KABQB_WAAV__crt_cached_ptd_host@@ABQAD@?$positional_parameter_base@_WV?$string_output_adapter@_W@__crt_stdio_output@@@__crt_stdio_output@@IAE@ABV?$string_output_adapter@_W@1@AB_KABQB_WAAV__crt_cached_ptd_host@@ABQAD@Z 1001b780 f i libucrt:output.obj
 0001:0001a7c8       ??$?0ABV?$string_output_adapter@_W@__crt_stdio_output@@AB_KABQB_WAAV__crt_cached_ptd_host@@ABQAD@?$standard_base@_WV?$string_output_adapter@_W@__crt_stdio_output@@@__crt_stdio_output@@IAE@ABV?$string_output_adapter@_W@1@AB_KABQB_WAAV__crt_cached_ptd_host@@ABQAD@Z 1001b7c8 f i libucrt:output.obj
 0001:0001ab01       ??$__crt_interlocked_read@J@@YAJPDJ@Z 1001bb01 f i libucrt:output.obj
 0001:0001ab0e       ??$_tcstol_internal@DPAPAD$0A@@@YAJAAV__crt_cached_ptd_host@@QBDQAPADH@Z 1001bb0e f i libucrt:output.obj
 0001:0001ab39       ??$_tcstol_internal@_WPAPA_W$0A@@@YAJAAV__crt_cached_ptd_host@@QB_WQAPA_WH@Z 1001bb39 f i libucrt:output.obj
 0001:0001ba93       ??$count@D@formatting_buffer@__crt_stdio_output@@QBEIXZ 1001ca93 f i libucrt:output.obj
 0001:0001baab       ??$count@_W@formatting_buffer@__crt_stdio_output@@QBEIXZ 1001caab f i libucrt:output.obj
 0001:0001bac4       ??$data@D@formatting_buffer@__crt_stdio_output@@QAEPADXZ 1001cac4 f i libucrt:output.obj
 0001:0001bad1       ??$data@_W@formatting_buffer@__crt_stdio_output@@QAEPA_WXZ 1001cad1 f i libucrt:output.obj
 0001:0001bade       ??$ensure_buffer_is_big_enough@D@formatting_buffer@__crt_stdio_output@@QAE_NIAAV__crt_cached_ptd_host@@@Z 1001cade f i libucrt:output.obj
 0001:0001bb5f       ??$ensure_buffer_is_big_enough@_W@formatting_buffer@__crt_stdio_output@@QAE_NIAAV__crt_cached_ptd_host@@@Z 1001cb5f f i libucrt:output.obj
 0001:0001bbe1       ??$extract_argument_from_va_list@C_J@?$positional_parameter_base@DV?$stream_output_adapter@D@__crt_stdio_output@@@__crt_stdio_output@@IAE_NAA_J@Z 1001cbe1 f i libucrt:output.obj
 0001:0001bc69       ??$extract_argument_from_va_list@C_J@?$positional_parameter_base@DV?$string_output_adapter@D@__crt_stdio_output@@@__crt_stdio_output@@IAE_NAA_J@Z 1001cc69 f i libucrt:output.obj
 0001:0001bcf1       ??$extract_argument_from_va_list@C_J@?$positional_parameter_base@_WV?$stream_output_adapter@_W@__crt_stdio_output@@@__crt_stdio_output@@IAE_NAA_J@Z 1001ccf1 f i libucrt:output.obj
 0001:0001bd7a       ??$extract_argument_from_va_list@C_J@?$positional_parameter_base@_WV?$string_output_adapter@_W@__crt_stdio_output@@@__crt_stdio_output@@IAE_NAA_J@Z 1001cd7a f i libucrt:output.obj
 0001:0001be03       ??$extract_argument_from_va_list@C_J@?$standard_base@DV?$stream_output_adapter@D@__crt_stdio_output@@@__crt_stdio_output@@IAE_NAA_J@Z 1001ce03 f i libucrt:output.obj
 0001:0001be22       ??$extract_argument_from_va_list@C_J@?$standard_base@DV?$string_output_adapter@D@__crt_stdio_output@@@__crt_stdio_output@@IAE_NAA_J@Z 1001ce22 f i libucrt:output.obj
 0001:0001be41       ??$extract_argument_from_va_list@C_J@?$standard_base@_WV?$stream_output_adapter@_W@__crt_stdio_output@@@__crt_stdio_output@@IAE_NAA_J@Z 1001ce41 f i libucrt:output.obj
 0001:0001be60       ??$extract_argument_from_va_list@C_J@?$standard_base@_WV?$string_output_adapter@_W@__crt_stdio_output@@@__crt_stdio_output@@IAE_NAA_J@Z 1001ce60 f i libucrt:output.obj
 0001:0001be7f       ??$extract_argument_from_va_list@E_J@?$positional_parameter_base@DV?$stream_output_adapter@D@__crt_stdio_output@@@__crt_stdio_output@@IAE_NAA_J@Z 1001ce7f f i libucrt:output.obj
 0001:0001bf07       ??$extract_argument_from_va_list@E_J@?$positional_parameter_base@DV?$string_output_adapter@D@__crt_stdio_output@@@__crt_stdio_output@@IAE_NAA_J@Z 1001cf07 f i libucrt:output.obj
 0001:0001bf8f       ??$extract_argument_from_va_list@E_J@?$positional_parameter_base@_WV?$stream_output_adapter@_W@__crt_stdio_output@@@__crt_stdio_output@@IAE_NAA_J@Z 1001cf8f f i libucrt:output.obj
 0001:0001c018       ??$extract_argument_from_va_list@E_J@?$positional_parameter_base@_WV?$string_output_adapter@_W@__crt_stdio_output@@@__crt_stdio_output@@IAE_NAA_J@Z 1001d018 f i libucrt:output.obj
 0001:0001c0a1       ??$extract_argument_from_va_list@E_J@?$standard_base@DV?$stream_output_adapter@D@__crt_stdio_output@@@__crt_stdio_output@@IAE_NAA_J@Z 1001d0a1 f i libucrt:output.obj
 0001:0001c0c0       ??$extract_argument_from_va_list@E_J@?$standard_base@DV?$string_output_adapter@D@__crt_stdio_output@@@__crt_stdio_output@@IAE_NAA_J@Z 1001d0c0 f i libucrt:output.obj
 0001:0001c0df       ??$extract_argument_from_va_list@E_J@?$standard_base@_WV?$stream_output_adapter@_W@__crt_stdio_output@@@__crt_stdio_output@@IAE_NAA_J@Z 1001d0df f i libucrt:output.obj
 0001:0001c0fe       ??$extract_argument_from_va_list@E_J@?$standard_base@_WV?$string_output_adapter@_W@__crt_stdio_output@@@__crt_stdio_output@@IAE_NAA_J@Z 1001d0fe f i libucrt:output.obj
 0001:0001c11d       ??$extract_argument_from_va_list@F_J@?$positional_parameter_base@DV?$stream_output_adapter@D@__crt_stdio_output@@@__crt_stdio_output@@IAE_NAA_J@Z 1001d11d f i libucrt:output.obj
 0001:0001c1a5       ??$extract_argument_from_va_list@F_J@?$positional_parameter_base@DV?$string_output_adapter@D@__crt_stdio_output@@@__crt_stdio_output@@IAE_NAA_J@Z 1001d1a5 f i libucrt:output.obj
 0001:0001c22d       ??$extract_argument_from_va_list@F_J@?$positional_parameter_base@_WV?$stream_output_adapter@_W@__crt_stdio_output@@@__crt_stdio_output@@IAE_NAA_J@Z 1001d22d f i libucrt:output.obj
 0001:0001c2b6       ??$extract_argument_from_va_list@F_J@?$positional_parameter_base@_WV?$string_output_adapter@_W@__crt_stdio_output@@@__crt_stdio_output@@IAE_NAA_J@Z 1001d2b6 f i libucrt:output.obj
 0001:0001c33f       ??$extract_argument_from_va_list@F_J@?$standard_base@DV?$stream_output_adapter@D@__crt_stdio_output@@@__crt_stdio_output@@IAE_NAA_J@Z 1001d33f f i libucrt:output.obj
 0001:0001c35e       ??$extract_argument_from_va_list@F_J@?$standard_base@DV?$string_output_adapter@D@__crt_stdio_output@@@__crt_stdio_output@@IAE_NAA_J@Z 1001d35e f i libucrt:output.obj
 0001:0001c37d       ??$extract_argument_from_va_list@F_J@?$standard_base@_WV?$stream_output_adapter@_W@__crt_stdio_output@@@__crt_stdio_output@@IAE_NAA_J@Z 1001d37d f i libucrt:output.obj
 0001:0001c39c       ??$extract_argument_from_va_list@F_J@?$standard_base@_WV?$string_output_adapter@_W@__crt_stdio_output@@@__crt_stdio_output@@IAE_NAA_J@Z 1001d39c f i libucrt:output.obj
 0001:0001c3bb       ??$extract_argument_from_va_list@GD@?$positional_parameter_base@DV?$stream_output_adapter@D@__crt_stdio_output@@@__crt_stdio_output@@IAE_NAAD@Z 1001d3bb f i libucrt:output.obj
 0001:0001c442       ??$extract_argument_from_va_list@GD@?$positional_parameter_base@DV?$string_output_adapter@D@__crt_stdio_output@@@__crt_stdio_output@@IAE_NAAD@Z 1001d442 f i libucrt:output.obj
 0001:0001c4c9       ??$extract_argument_from_va_list@GD@?$standard_base@DV?$stream_output_adapter@D@__crt_stdio_output@@@__crt_stdio_output@@IAE_NAAD@Z 1001d4c9 f i libucrt:output.obj
 0001:0001c4e3       ??$extract_argument_from_va_list@GD@?$standard_base@DV?$string_output_adapter@D@__crt_stdio_output@@@__crt_stdio_output@@IAE_NAAD@Z 1001d4e3 f i libucrt:output.obj
 0001:0001c4fd       ??$extract_argument_from_va_list@G_J@?$positional_parameter_base@DV?$stream_output_adapter@D@__crt_stdio_output@@@__crt_stdio_output@@IAE_NAA_J@Z 1001d4fd f i libucrt:output.obj
 0001:0001c585       ??$extract_argument_from_va_list@G_J@?$positional_parameter_base@DV?$string_output_adapter@D@__crt_stdio_output@@@__crt_stdio_output@@IAE_NAA_J@Z 1001d585 f i libucrt:output.obj
 0001:0001c60d       ??$extract_argument_from_va_list@G_J@?$positional_parameter_base@_WV?$stream_output_adapter@_W@__crt_stdio_output@@@__crt_stdio_output@@IAE_NAA_J@Z 1001d60d f i libucrt:output.obj
 0001:0001c696       ??$extract_argument_from_va_list@G_J@?$positional_parameter_base@_WV?$string_output_adapter@_W@__crt_stdio_output@@@__crt_stdio_output@@IAE_NAA_J@Z 1001d696 f i libucrt:output.obj
 0001:0001c71f       ??$extract_argument_from_va_list@G_J@?$standard_base@DV?$stream_output_adapter@D@__crt_stdio_output@@@__crt_stdio_output@@IAE_NAA_J@Z 1001d71f f i libucrt:output.obj
 0001:0001c73e       ??$extract_argument_from_va_list@G_J@?$standard_base@DV?$string_output_adapter@D@__crt_stdio_output@@@__crt_stdio_output@@IAE_NAA_J@Z 1001d73e f i libucrt:output.obj
 0001:0001c75d       ??$extract_argument_from_va_list@G_J@?$standard_base@_WV?$stream_output_adapter@_W@__crt_stdio_output@@@__crt_stdio_output@@IAE_NAA_J@Z 1001d75d f i libucrt:output.obj
 0001:0001c77c       ??$extract_argument_from_va_list@G_J@?$standard_base@_WV?$string_output_adapter@_W@__crt_stdio_output@@@__crt_stdio_output@@IAE_NAA_J@Z 1001d77c f i libucrt:output.obj
 0001:0001c79b       ??$extract_argument_from_va_list@H_J@?$positional_parameter_base@DV?$stream_output_adapter@D@__crt_stdio_output@@@__crt_stdio_output@@IAE_NAA_J@Z 1001d79b f i libucrt:output.obj
 0001:0001c821       ??$extract_argument_from_va_list@H_J@?$positional_parameter_base@DV?$string_output_adapter@D@__crt_stdio_output@@@__crt_stdio_output@@IAE_NAA_J@Z 1001d821 f i libucrt:output.obj
 0001:0001c8a7       ??$extract_argument_from_va_list@H_J@?$positional_parameter_base@_WV?$stream_output_adapter@_W@__crt_stdio_output@@@__crt_stdio_output@@IAE_NAA_J@Z 1001d8a7 f i libucrt:output.obj
 0001:0001c92e       ??$extract_argument_from_va_list@H_J@?$positional_parameter_base@_WV?$string_output_adapter@_W@__crt_stdio_output@@@__crt_stdio_output@@IAE_NAA_J@Z 1001d92e f i libucrt:output.obj
 0001:0001c9b5       ??$extract_argument_from_va_list@H_J@?$standard_base@DV?$stream_output_adapter@D@__crt_stdio_output@@@__crt_stdio_output@@IAE_NAA_J@Z 1001d9b5 f i libucrt:output.obj
 0001:0001c9d3       ??$extract_argument_from_va_list@H_J@?$standard_base@DV?$string_output_adapter@D@__crt_stdio_output@@@__crt_stdio_output@@IAE_NAA_J@Z 1001d9d3 f i libucrt:output.obj
 0001:0001c9f1       ??$extract_argument_from_va_list@H_J@?$standard_base@_WV?$stream_output_adapter@_W@__crt_stdio_output@@@__crt_stdio_output@@IAE_NAA_J@Z 1001d9f1 f i libucrt:output.obj
 0001:0001ca0f       ??$extract_argument_from_va_list@H_J@?$standard_base@_WV?$string_output_adapter@_W@__crt_stdio_output@@@__crt_stdio_output@@IAE_NAA_J@Z 1001da0f f i libucrt:output.obj
 0001:0001ca2d       ??$extract_argument_from_va_list@I_J@?$positional_parameter_base@DV?$stream_output_adapter@D@__crt_stdio_output@@@__crt_stdio_output@@IAE_NAA_J@Z 1001da2d f i libucrt:output.obj
 0001:0001cabc       ??$extract_argument_from_va_list@I_J@?$positional_parameter_base@DV?$string_output_adapter@D@__crt_stdio_output@@@__crt_stdio_output@@IAE_NAA_J@Z 1001dabc f i libucrt:output.obj
 0001:0001cb4b       ??$extract_argument_from_va_list@I_J@?$positional_parameter_base@_WV?$stream_output_adapter@_W@__crt_stdio_output@@@__crt_stdio_output@@IAE_NAA_J@Z 1001db4b f i libucrt:output.obj
 0001:0001cbdb       ??$extract_argument_from_va_list@I_J@?$positional_parameter_base@_WV?$string_output_adapter@_W@__crt_stdio_output@@@__crt_stdio_output@@IAE_NAA_J@Z 1001dbdb f i libucrt:output.obj
 0001:0001cc6b       ??$extract_argument_from_va_list@I_J@?$standard_base@DV?$stream_output_adapter@D@__crt_stdio_output@@@__crt_stdio_output@@IAE_NAA_J@Z 1001dc6b f i libucrt:output.obj
 0001:0001cc89       ??$extract_argument_from_va_list@I_J@?$standard_base@DV?$string_output_adapter@D@__crt_stdio_output@@@__crt_stdio_output@@IAE_NAA_J@Z 1001dc89 f i libucrt:output.obj
 0001:0001cca7       ??$extract_argument_from_va_list@I_J@?$standard_base@_WV?$stream_output_adapter@_W@__crt_stdio_output@@@__crt_stdio_output@@IAE_NAA_J@Z 1001dca7 f i libucrt:output.obj
 0001:0001ccc5       ??$extract_argument_from_va_list@I_J@?$standard_base@_WV?$string_output_adapter@_W@__crt_stdio_output@@@__crt_stdio_output@@IAE_NAA_J@Z 1001dcc5 f i libucrt:output.obj
 0001:0001cce3       ??$extract_argument_from_va_list@PADPAD@?$positional_parameter_base@DV?$stream_output_adapter@D@__crt_stdio_output@@@__crt_stdio_output@@IAE_NAAPAD@Z 1001dce3 f i libucrt:output.obj
 0001:0001cd6a       ??$extract_argument_from_va_list@PADPAD@?$positional_parameter_base@DV?$string_output_adapter@D@__crt_stdio_output@@@__crt_stdio_output@@IAE_NAAPAD@Z 1001dd6a f i libucrt:output.obj
 0001:0001cdf1       ??$extract_argument_from_va_list@PADPAD@?$positional_parameter_base@_WV?$stream_output_adapter@_W@__crt_stdio_output@@@__crt_stdio_output@@IAE_NAAPAD@Z 1001ddf1 f i libucrt:output.obj
 0001:0001ce79       ??$extract_argument_from_va_list@PADPAD@?$positional_parameter_base@_WV?$string_output_adapter@_W@__crt_stdio_output@@@__crt_stdio_output@@IAE_NAAPAD@Z 1001de79 f i libucrt:output.obj
 0001:0001cf01       ??$extract_argument_from_va_list@PADPAD@?$standard_base@DV?$stream_output_adapter@D@__crt_stdio_output@@@__crt_stdio_output@@IAE_NAAPAD@Z 1001df01 f i libucrt:output.obj
 0001:0001cf1b       ??$extract_argument_from_va_list@PADPAD@?$standard_base@DV?$string_output_adapter@D@__crt_stdio_output@@@__crt_stdio_output@@IAE_NAAPAD@Z 1001df1b f i libucrt:output.obj
 0001:0001cf35       ??$extract_argument_from_va_list@PADPAD@?$standard_base@_WV?$stream_output_adapter@_W@__crt_stdio_output@@@__crt_stdio_output@@IAE_NAAPAD@Z 1001df35 f i libucrt:output.obj
 0001:0001cf4f       ??$extract_argument_from_va_list@PADPAD@?$standard_base@_WV?$string_output_adapter@_W@__crt_stdio_output@@@__crt_stdio_output@@IAE_NAAPAD@Z 1001df4f f i libucrt:output.obj
 0001:0001cf69       ??$extract_argument_from_va_list@PAUansi_string@?1??type_case_Z@?$output_processor@DV?$stream_output_adapter@D@__crt_stdio_output@@V?$format_validation_base@DV?$stream_output_adapter@D@__crt_stdio_output@@@2@@__crt_stdio_output@@AAE_NXZ@PAU1?1??234@AAE_NXZ@@?$standard_base@DV?$stream_output_adapter@D@__crt_stdio_output@@@__crt_stdio_output@@IAE_NAAPAUansi_string@?1??type_case_Z@?$output_processor@DV?$stream_output_adapter@D@__crt_stdio_output@@V?$format_validation_base@DV?$stream_output_adapter@D@__crt_stdio_output@@@2@@1@AAE_NXZ@@Z 1001df69 f i libucrt:output.obj
 0001:0001cf83       ??$extract_argument_from_va_list@PAUansi_string@?1??type_case_Z@?$output_processor@DV?$stream_output_adapter@D@__crt_stdio_output@@V?$positional_parameter_base@DV?$stream_output_adapter@D@__crt_stdio_output@@@2@@__crt_stdio_output@@AAE_NXZ@PAU1?1??234@AAE_NXZ@@?$positional_parameter_base@DV?$stream_output_adapter@D@__crt_stdio_output@@@__crt_stdio_output@@IAE_NAAPAUansi_string@?1??type_case_Z@?$output_processor@DV?$stream_output_adapter@D@__crt_stdio_output@@V?$positional_parameter_base@DV?$stream_output_adapter@D@__crt_stdio_output@@@2@@1@AAE_NXZ@@Z 1001df83 f i libucrt:output.obj
 0001:0001d00a       ??$extract_argument_from_va_list@PAUansi_string@?1??type_case_Z@?$output_processor@DV?$stream_output_adapter@D@__crt_stdio_output@@V?$positional_parameter_base@DV?$stream_output_adapter@D@__crt_stdio_output@@@2@@__crt_stdio_output@@AAE_NXZ@PAU1?1??234@AAE_NXZ@@?$standard_base@DV?$stream_output_adapter@D@__crt_stdio_output@@@__crt_stdio_output@@IAE_NAAPAUansi_string@?1??type_case_Z@?$output_processor@DV?$stream_output_adapter@D@__crt_stdio_output@@V?$positional_parameter_base@DV?$stream_output_adapter@D@__crt_stdio_output@@@2@@1@AAE_NXZ@@Z 1001e00a f i libucrt:output.obj
 0001:0001d024       ??$extract_argument_from_va_list@PAUansi_string@?1??type_case_Z@?$output_processor@DV?$stream_output_adapter@D@__crt_stdio_output@@V?$standard_base@DV?$stream_output_adapter@D@__crt_stdio_output@@@2@@__crt_stdio_output@@AAE_NXZ@PAU1?1??234@AAE_NXZ@@?$standard_base@DV?$stream_output_adapter@D@__crt_stdio_output@@@__crt_stdio_output@@IAE_NAAPAUansi_string@?1??type_case_Z@?$output_processor@DV?$stream_output_adapter@D@__crt_stdio_output@@V?$standard_base@DV?$stream_output_adapter@D@__crt_stdio_output@@@2@@1@AAE_NXZ@@Z 1001e024 f i libucrt:output.obj
 0001:0001d03e       ??$extract_argument_from_va_list@PAUansi_string@?1??type_case_Z@?$output_processor@DV?$string_output_adapter@D@__crt_stdio_output@@V?$format_validation_base@DV?$string_output_adapter@D@__crt_stdio_output@@@2@@__crt_stdio_output@@AAE_NXZ@PAU1?1??234@AAE_NXZ@@?$standard_base@DV?$string_output_adapter@D@__crt_stdio_output@@@__crt_stdio_output@@IAE_NAAPAUansi_string@?1??type_case_Z@?$output_processor@DV?$string_output_adapter@D@__crt_stdio_output@@V?$format_validation_base@DV?$string_output_adapter@D@__crt_stdio_output@@@2@@1@AAE_NXZ@@Z 1001e03e f i libucrt:output.obj
 0001:0001d058       ??$extract_argument_from_va_list@PAUansi_string@?1??type_case_Z@?$output_processor@DV?$string_output_adapter@D@__crt_stdio_output@@V?$positional_parameter_base@DV?$string_output_adapter@D@__crt_stdio_output@@@2@@__crt_stdio_output@@AAE_NXZ@PAU1?1??234@AAE_NXZ@@?$positional_parameter_base@DV?$string_output_adapter@D@__crt_stdio_output@@@__crt_stdio_output@@IAE_NAAPAUansi_string@?1??type_case_Z@?$output_processor@DV?$string_output_adapter@D@__crt_stdio_output@@V?$positional_parameter_base@DV?$string_output_adapter@D@__crt_stdio_output@@@2@@1@AAE_NXZ@@Z 1001e058 f i libucrt:output.obj
 0001:0001d0df       ??$extract_argument_from_va_list@PAUansi_string@?1??type_case_Z@?$output_processor@DV?$string_output_adapter@D@__crt_stdio_output@@V?$positional_parameter_base@DV?$string_output_adapter@D@__crt_stdio_output@@@2@@__crt_stdio_output@@AAE_NXZ@PAU1?1??234@AAE_NXZ@@?$standard_base@DV?$string_output_adapter@D@__crt_stdio_output@@@__crt_stdio_output@@IAE_NAAPAUansi_string@?1??type_case_Z@?$output_processor@DV?$string_output_adapter@D@__crt_stdio_output@@V?$positional_parameter_base@DV?$string_output_adapter@D@__crt_stdio_output@@@2@@1@AAE_NXZ@@Z 1001e0df f i libucrt:output.obj
 0001:0001d0f9       ??$extract_argument_from_va_list@PAUansi_string@?1??type_case_Z@?$output_processor@DV?$string_output_adapter@D@__crt_stdio_output@@V?$standard_base@DV?$string_output_adapter@D@__crt_stdio_output@@@2@@__crt_stdio_output@@AAE_NXZ@PAU1?1??234@AAE_NXZ@@?$standard_base@DV?$string_output_adapter@D@__crt_stdio_output@@@__crt_stdio_output@@IAE_NAAPAUansi_string@?1??type_case_Z@?$output_processor@DV?$string_output_adapter@D@__crt_stdio_output@@V?$standard_base@DV?$string_output_adapter@D@__crt_stdio_output@@@2@@1@AAE_NXZ@@Z 1001e0f9 f i libucrt:output.obj
 0001:0001d113       ??$extract_argument_from_va_list@PAUansi_string@?1??type_case_Z@?$output_processor@_WV?$stream_output_adapter@_W@__crt_stdio_output@@V?$format_validation_base@_WV?$stream_output_adapter@_W@__crt_stdio_output@@@2@@__crt_stdio_output@@AAE_NXZ@PAU1?1??234@AAE_NXZ@@?$standard_base@_WV?$stream_output_adapter@_W@__crt_stdio_output@@@__crt_stdio_output@@IAE_NAAPAUansi_string@?1??type_case_Z@?$output_processor@_WV?$stream_output_adapter@_W@__crt_stdio_output@@V?$format_validation_base@_WV?$stream_output_adapter@_W@__crt_stdio_output@@@2@@1@AAE_NXZ@@Z 1001e113 f i libucrt:output.obj
 0001:0001d12d       ??$extract_argument_from_va_list@PAUansi_string@?1??type_case_Z@?$output_processor@_WV?$stream_output_adapter@_W@__crt_stdio_output@@V?$positional_parameter_base@_WV?$stream_output_adapter@_W@__crt_stdio_output@@@2@@__crt_stdio_output@@AAE_NXZ@PAU1?1??234@AAE_NXZ@@?$positional_parameter_base@_WV?$stream_output_adapter@_W@__crt_stdio_output@@@__crt_stdio_output@@IAE_NAAPAUansi_string@?1??type_case_Z@?$output_processor@_WV?$stream_output_adapter@_W@__crt_stdio_output@@V?$positional_parameter_base@_WV?$stream_output_adapter@_W@__crt_stdio_output@@@2@@1@AAE_NXZ@@Z 1001e12d f i libucrt:output.obj
 0001:0001d1b5       ??$extract_argument_from_va_list@PAUansi_string@?1??type_case_Z@?$output_processor@_WV?$stream_output_adapter@_W@__crt_stdio_output@@V?$positional_parameter_base@_WV?$stream_output_adapter@_W@__crt_stdio_output@@@2@@__crt_stdio_output@@AAE_NXZ@PAU1?1??234@AAE_NXZ@@?$standard_base@_WV?$stream_output_adapter@_W@__crt_stdio_output@@@__crt_stdio_output@@IAE_NAAPAUansi_string@?1??type_case_Z@?$output_processor@_WV?$stream_output_adapter@_W@__crt_stdio_output@@V?$positional_parameter_base@_WV?$stream_output_adapter@_W@__crt_stdio_output@@@2@@1@AAE_NXZ@@Z 1001e1b5 f i libucrt:output.obj
 0001:0001d1cf       ??$extract_argument_from_va_list@PAUansi_string@?1??type_case_Z@?$output_processor@_WV?$stream_output_adapter@_W@__crt_stdio_output@@V?$standard_base@_WV?$stream_output_adapter@_W@__crt_stdio_output@@@2@@__crt_stdio_output@@AAE_NXZ@PAU1?1??234@AAE_NXZ@@?$standard_base@_WV?$stream_output_adapter@_W@__crt_stdio_output@@@__crt_stdio_output@@IAE_NAAPAUansi_string@?1??type_case_Z@?$output_processor@_WV?$stream_output_adapter@_W@__crt_stdio_output@@V?$standard_base@_WV?$stream_output_adapter@_W@__crt_stdio_output@@@2@@1@AAE_NXZ@@Z 1001e1cf f i libucrt:output.obj
 0001:0001d1e9       ??$extract_argument_from_va_list@PAUansi_string@?1??type_case_Z@?$output_processor@_WV?$string_output_adapter@_W@__crt_stdio_output@@V?$format_validation_base@_WV?$string_output_adapter@_W@__crt_stdio_output@@@2@@__crt_stdio_output@@AAE_NXZ@PAU1?1??234@AAE_NXZ@@?$standard_base@_WV?$string_output_adapter@_W@__crt_stdio_output@@@__crt_stdio_output@@IAE_NAAPAUansi_string@?1??type_case_Z@?$output_processor@_WV?$string_output_adapter@_W@__crt_stdio_output@@V?$format_validation_base@_WV?$string_output_adapter@_W@__crt_stdio_output@@@2@@1@AAE_NXZ@@Z 1001e1e9 f i libucrt:output.obj
 0001:0001d203       ??$extract_argument_from_va_list@PAUansi_string@?1??type_case_Z@?$output_processor@_WV?$string_output_adapter@_W@__crt_stdio_output@@V?$positional_parameter_base@_WV?$string_output_adapter@_W@__crt_stdio_output@@@2@@__crt_stdio_output@@AAE_NXZ@PAU1?1??234@AAE_NXZ@@?$positional_parameter_base@_WV?$string_output_adapter@_W@__crt_stdio_output@@@__crt_stdio_output@@IAE_NAAPAUansi_string@?1??type_case_Z@?$output_processor@_WV?$string_output_adapter@_W@__crt_stdio_output@@V?$positional_parameter_base@_WV?$string_output_adapter@_W@__crt_stdio_output@@@2@@1@AAE_NXZ@@Z 1001e203 f i libucrt:output.obj
 0001:0001d28b       ??$extract_argument_from_va_list@PAUansi_string@?1??type_case_Z@?$output_processor@_WV?$string_output_adapter@_W@__crt_stdio_output@@V?$positional_parameter_base@_WV?$string_output_adapter@_W@__crt_stdio_output@@@2@@__crt_stdio_output@@AAE_NXZ@PAU1?1??234@AAE_NXZ@@?$standard_base@_WV?$string_output_adapter@_W@__crt_stdio_output@@@__crt_stdio_output@@IAE_NAAPAUansi_string@?1??type_case_Z@?$output_processor@_WV?$string_output_adapter@_W@__crt_stdio_output@@V?$positional_parameter_base@_WV?$string_output_adapter@_W@__crt_stdio_output@@@2@@1@AAE_NXZ@@Z 1001e28b f i libucrt:output.obj
 0001:0001d2a5       ??$extract_argument_from_va_list@PAUansi_string@?1??type_case_Z@?$output_processor@_WV?$string_output_adapter@_W@__crt_stdio_output@@V?$standard_base@_WV?$string_output_adapter@_W@__crt_stdio_output@@@2@@__crt_stdio_output@@AAE_NXZ@PAU1?1??234@AAE_NXZ@@?$standard_base@_WV?$string_output_adapter@_W@__crt_stdio_output@@@__crt_stdio_output@@IAE_NAAPAUansi_string@?1??type_case_Z@?$output_processor@_WV?$string_output_adapter@_W@__crt_stdio_output@@V?$standard_base@_WV?$string_output_adapter@_W@__crt_stdio_output@@@2@@1@AAE_NXZ@@Z 1001e2a5 f i libucrt:output.obj
 0001:0001d2bf       ??$extract_argument_from_va_list@PAXPAX@?$positional_parameter_base@DV?$stream_output_adapter@D@__crt_stdio_output@@@__crt_stdio_output@@IAE_NAAPAX@Z 1001e2bf f i libucrt:output.obj
 0001:0001d346       ??$extract_argument_from_va_list@PAXPAX@?$positional_parameter_base@DV?$string_output_adapter@D@__crt_stdio_output@@@__crt_stdio_output@@IAE_NAAPAX@Z 1001e346 f i libucrt:output.obj
 0001:0001d3cd       ??$extract_argument_from_va_list@PAXPAX@?$positional_parameter_base@_WV?$stream_output_adapter@_W@__crt_stdio_output@@@__crt_stdio_output@@IAE_NAAPAX@Z 1001e3cd f i libucrt:output.obj
 0001:0001d455       ??$extract_argument_from_va_list@PAXPAX@?$positional_parameter_base@_WV?$string_output_adapter@_W@__crt_stdio_output@@@__crt_stdio_output@@IAE_NAAPAX@Z 1001e455 f i libucrt:output.obj
 0001:0001d4dd       ??$extract_argument_from_va_list@PAXPAX@?$standard_base@DV?$stream_output_adapter@D@__crt_stdio_output@@@__crt_stdio_output@@IAE_NAAPAX@Z 1001e4dd f i libucrt:output.obj
 0001:0001d4f7       ??$extract_argument_from_va_list@PAXPAX@?$standard_base@DV?$string_output_adapter@D@__crt_stdio_output@@@__crt_stdio_output@@IAE_NAAPAX@Z 1001e4f7 f i libucrt:output.obj
 0001:0001d511       ??$extract_argument_from_va_list@PAXPAX@?$standard_base@_WV?$stream_output_adapter@_W@__crt_stdio_output@@@__crt_stdio_output@@IAE_NAAPAX@Z 1001e511 f i libucrt:output.obj
 0001:0001d52b       ??$extract_argument_from_va_list@PAXPAX@?$standard_base@_WV?$string_output_adapter@_W@__crt_stdio_output@@@__crt_stdio_output@@IAE_NAAPAX@Z 1001e52b f i libucrt:output.obj
 0001:0001d545       ??$extract_argument_from_va_list@U_CRT_DOUBLE@@U1@@?$positional_parameter_base@DV?$stream_output_adapter@D@__crt_stdio_output@@@__crt_stdio_output@@IAE_NAAU_CRT_DOUBLE@@@Z 1001e545 f i libucrt:output.obj
 0001:0001d5da       ??$extract_argument_from_va_list@U_CRT_DOUBLE@@U1@@?$positional_parameter_base@DV?$string_output_adapter@D@__crt_stdio_output@@@__crt_stdio_output@@IAE_NAAU_CRT_DOUBLE@@@Z 1001e5da f i libucrt:output.obj
 0001:0001d66f       ??$extract_argument_from_va_list@U_CRT_DOUBLE@@U1@@?$positional_parameter_base@_WV?$stream_output_adapter@_W@__crt_stdio_output@@@__crt_stdio_output@@IAE_NAAU_CRT_DOUBLE@@@Z 1001e66f f i libucrt:output.obj
 0001:0001d705       ??$extract_argument_from_va_list@U_CRT_DOUBLE@@U1@@?$positional_parameter_base@_WV?$string_output_adapter@_W@__crt_stdio_output@@@__crt_stdio_output@@IAE_NAAU_CRT_DOUBLE@@@Z 1001e705 f i libucrt:output.obj
 0001:0001d79b       ??$extract_argument_from_va_list@U_CRT_DOUBLE@@U1@@?$standard_base@DV?$stream_output_adapter@D@__crt_stdio_output@@@__crt_stdio_output@@IAE_NAAU_CRT_DOUBLE@@@Z 1001e79b f i libucrt:output.obj
 0001:0001d7bb       ??$extract_argument_from_va_list@U_CRT_DOUBLE@@U1@@?$standard_base@DV?$string_output_adapter@D@__crt_stdio_output@@@__crt_stdio_output@@IAE_NAAU_CRT_DOUBLE@@@Z 1001e7bb f i libucrt:output.obj
 0001:0001d7db       ??$extract_argument_from_va_list@U_CRT_DOUBLE@@U1@@?$standard_base@_WV?$stream_output_adapter@_W@__crt_stdio_output@@@__crt_stdio_output@@IAE_NAAU_CRT_DOUBLE@@@Z 1001e7db f i libucrt:output.obj
 0001:0001d7fb       ??$extract_argument_from_va_list@U_CRT_DOUBLE@@U1@@?$standard_base@_WV?$string_output_adapter@_W@__crt_stdio_output@@@__crt_stdio_output@@IAE_NAAU_CRT_DOUBLE@@@Z 1001e7fb f i libucrt:output.obj
 0001:0001d81b       ??$extract_argument_from_va_list@_J_J@?$positional_parameter_base@DV?$stream_output_adapter@D@__crt_stdio_output@@@__crt_stdio_output@@IAE_NAA_J@Z 1001e81b f i libucrt:output.obj
 0001:0001d8b0       ??$extract_argument_from_va_list@_J_J@?$positional_parameter_base@DV?$string_output_adapter@D@__crt_stdio_output@@@__crt_stdio_output@@IAE_NAA_J@Z 1001e8b0 f i libucrt:output.obj
 0001:0001d945       ??$extract_argument_from_va_list@_J_J@?$positional_parameter_base@_WV?$stream_output_adapter@_W@__crt_stdio_output@@@__crt_stdio_output@@IAE_NAA_J@Z 1001e945 f i libucrt:output.obj
 0001:0001d9db       ??$extract_argument_from_va_list@_J_J@?$positional_parameter_base@_WV?$string_output_adapter@_W@__crt_stdio_output@@@__crt_stdio_output@@IAE_NAA_J@Z 1001e9db f i libucrt:output.obj
 0001:0001da71       ??$extract_argument_from_va_list@_J_J@?$standard_base@DV?$stream_output_adapter@D@__crt_stdio_output@@@__crt_stdio_output@@IAE_NAA_J@Z 1001ea71 f i libucrt:output.obj
 0001:0001da91       ??$extract_argument_from_va_list@_J_J@?$standard_base@DV?$string_output_adapter@D@__crt_stdio_output@@@__crt_stdio_output@@IAE_NAA_J@Z 1001ea91 f i libucrt:output.obj
 0001:0001dab1       ??$extract_argument_from_va_list@_J_J@?$standard_base@_WV?$stream_output_adapter@_W@__crt_stdio_output@@@__crt_stdio_output@@IAE_NAA_J@Z 1001eab1 f i libucrt:output.obj
 0001:0001dad1       ??$extract_argument_from_va_list@_J_J@?$standard_base@_WV?$string_output_adapter@_W@__crt_stdio_output@@@__crt_stdio_output@@IAE_NAA_J@Z 1001ead1 f i libucrt:output.obj
 0001:0001daf1       ??$extract_argument_from_va_list@_K_J@?$positional_parameter_base@DV?$stream_output_adapter@D@__crt_stdio_output@@@__crt_stdio_output@@IAE_NAA_J@Z 1001eaf1 f i libucrt:output.obj
 0001:0001db86       ??$extract_argument_from_va_list@_K_J@?$positional_parameter_base@DV?$string_output_adapter@D@__crt_stdio_output@@@__crt_stdio_output@@IAE_NAA_J@Z 1001eb86 f i libucrt:output.obj
 0001:0001dc1b       ??$extract_argument_from_va_list@_K_J@?$positional_parameter_base@_WV?$stream_output_adapter@_W@__crt_stdio_output@@@__crt_stdio_output@@IAE_NAA_J@Z 1001ec1b f i libucrt:output.obj
 0001:0001dcb1       ??$extract_argument_from_va_list@_K_J@?$positional_parameter_base@_WV?$string_output_adapter@_W@__crt_stdio_output@@@__crt_stdio_output@@IAE_NAA_J@Z 1001ecb1 f i libucrt:output.obj
 0001:0001dd47       ??$extract_argument_from_va_list@_K_J@?$standard_base@DV?$stream_output_adapter@D@__crt_stdio_output@@@__crt_stdio_output@@IAE_NAA_J@Z 1001ed47 f i libucrt:output.obj
 0001:0001dd67       ??$extract_argument_from_va_list@_K_J@?$standard_base@DV?$string_output_adapter@D@__crt_stdio_output@@@__crt_stdio_output@@IAE_NAA_J@Z 1001ed67 f i libucrt:output.obj
 0001:0001dd87       ??$extract_argument_from_va_list@_K_J@?$standard_base@_WV?$stream_output_adapter@_W@__crt_stdio_output@@@__crt_stdio_output@@IAE_NAA_J@Z 1001ed87 f i libucrt:output.obj
 0001:0001dda7       ??$extract_argument_from_va_list@_K_J@?$standard_base@_WV?$string_output_adapter@_W@__crt_stdio_output@@@__crt_stdio_output@@IAE_NAA_J@Z 1001eda7 f i libucrt:output.obj
 0001:0001ddc7       ??$extract_argument_from_va_list@_W_W@?$positional_parameter_base@DV?$stream_output_adapter@D@__crt_stdio_output@@@__crt_stdio_output@@IAE_NAA_W@Z 1001edc7 f i libucrt:output.obj
 0001:0001de52       ??$extract_argument_from_va_list@_W_W@?$positional_parameter_base@DV?$string_output_adapter@D@__crt_stdio_output@@@__crt_stdio_output@@IAE_NAA_W@Z 1001ee52 f i libucrt:output.obj
 0001:0001dedd       ??$extract_argument_from_va_list@_W_W@?$positional_parameter_base@_WV?$stream_output_adapter@_W@__crt_stdio_output@@@__crt_stdio_output@@IAE_NAA_W@Z 1001eedd f i libucrt:output.obj
 0001:0001df69       ??$extract_argument_from_va_list@_W_W@?$positional_parameter_base@_WV?$string_output_adapter@_W@__crt_stdio_output@@@__crt_stdio_output@@IAE_NAA_W@Z 1001ef69 f i libucrt:output.obj
 0001:0001dff5       ??$extract_argument_from_va_list@_W_W@?$standard_base@DV?$stream_output_adapter@D@__crt_stdio_output@@@__crt_stdio_output@@IAE_NAA_W@Z 1001eff5 f i libucrt:output.obj
 0001:0001e011       ??$extract_argument_from_va_list@_W_W@?$standard_base@DV?$string_output_adapter@D@__crt_stdio_output@@@__crt_stdio_output@@IAE_NAA_W@Z 1001f011 f i libucrt:output.obj
 0001:0001e02d       ??$extract_argument_from_va_list@_W_W@?$standard_base@_WV?$stream_output_adapter@_W@__crt_stdio_output@@@__crt_stdio_output@@IAE_NAA_W@Z 1001f02d f i libucrt:output.obj
 0001:0001e049       ??$extract_argument_from_va_list@_W_W@?$standard_base@_WV?$string_output_adapter@_W@__crt_stdio_output@@@__crt_stdio_output@@IAE_NAA_W@Z 1001f049 f i libucrt:output.obj
 0001:0001e065       ??$get_parameter_type@D@?$positional_parameter_base@DV?$stream_output_adapter@D@__crt_stdio_output@@@__crt_stdio_output@@CA?AW4parameter_type@01@PAD@Z 1001f065 f i libucrt:output.obj
 0001:0001e069       ??$get_parameter_type@D@?$positional_parameter_base@DV?$string_output_adapter@D@__crt_stdio_output@@@__crt_stdio_output@@CA?AW4parameter_type@01@PAD@Z 1001f069 f i libucrt:output.obj
 0001:0001e06d       ??$get_parameter_type@D@?$positional_parameter_base@_WV?$stream_output_adapter@_W@__crt_stdio_output@@@__crt_stdio_output@@CA?AW4parameter_type@01@PAD@Z 1001f06d f i libucrt:output.obj
 0001:0001e071       ??$get_parameter_type@D@?$positional_parameter_base@_WV?$string_output_adapter@_W@__crt_stdio_output@@@__crt_stdio_output@@CA?AW4parameter_type@01@PAD@Z 1001f071 f i libucrt:output.obj
 0001:0001e075       ??$get_parameter_type@Uansi_string@?1??type_case_Z@?$output_processor@DV?$stream_output_adapter@D@__crt_stdio_output@@V?$positional_parameter_base@DV?$stream_output_adapter@D@__crt_stdio_output@@@2@@__crt_stdio_output@@AAE_NXZ@@?$positional_parameter_base@DV?$stream_output_adapter@D@__crt_stdio_output@@@__crt_stdio_output@@CA?AW4parameter_type@01@PAUansi_string@?1??type_case_Z@?$output_processor@DV?$stream_output_adapter@D@__crt_stdio_output@@V?$positional_parameter_base@DV?$stream_output_adapter@D@__crt_stdio_output@@@2@@1@AAE_NXZ@@Z 1001f075 f i libucrt:output.obj
 0001:0001e079       ??$get_parameter_type@Uansi_string@?1??type_case_Z@?$output_processor@DV?$string_output_adapter@D@__crt_stdio_output@@V?$positional_parameter_base@DV?$string_output_adapter@D@__crt_stdio_output@@@2@@__crt_stdio_output@@AAE_NXZ@@?$positional_parameter_base@DV?$string_output_adapter@D@__crt_stdio_output@@@__crt_stdio_output@@CA?AW4parameter_type@01@PAUansi_string@?1??type_case_Z@?$output_processor@DV?$string_output_adapter@D@__crt_stdio_output@@V?$positional_parameter_base@DV?$string_output_adapter@D@__crt_stdio_output@@@2@@1@AAE_NXZ@@Z 1001f079 f i libucrt:output.obj
 0001:0001e07d       ??$get_parameter_type@Uansi_string@?1??type_case_Z@?$output_processor@_WV?$stream_output_adapter@_W@__crt_stdio_output@@V?$positional_parameter_base@_WV?$stream_output_adapter@_W@__crt_stdio_output@@@2@@__crt_stdio_output@@AAE_NXZ@@?$positional_parameter_base@_WV?$stream_output_adapter@_W@__crt_stdio_output@@@__crt_stdio_output@@CA?AW4parameter_type@01@PAUansi_string@?1??type_case_Z@?$output_processor@_WV?$stream_output_adapter@_W@__crt_stdio_output@@V?$positional_parameter_base@_WV?$stream_output_adapter@_W@__crt_stdio_output@@@2@@1@AAE_NXZ@@Z 1001f07d f i libucrt:output.obj
 0001:0001e081       ??$get_parameter_type@Uansi_string@?1??type_case_Z@?$output_processor@_WV?$string_output_adapter@_W@__crt_stdio_output@@V?$positional_parameter_base@_WV?$string_output_adapter@_W@__crt_stdio_output@@@2@@__crt_stdio_output@@AAE_NXZ@@?$positional_parameter_base@_WV?$string_output_adapter@_W@__crt_stdio_output@@@__crt_stdio_output@@CA?AW4parameter_type@01@PAUansi_string@?1??type_case_Z@?$output_processor@_WV?$string_output_adapter@_W@__crt_stdio_output@@V?$positional_parameter_base@_WV?$string_output_adapter@_W@__crt_stdio_output@@@2@@1@AAE_NXZ@@Z 1001f081 f i libucrt:output.obj
 0001:0001e085       ??$get_parameter_type@X@?$positional_parameter_base@DV?$stream_output_adapter@D@__crt_stdio_output@@@__crt_stdio_output@@CA?AW4parameter_type@01@PAX@Z 1001f085 f i libucrt:output.obj
 0001:0001e089       ??$get_parameter_type@X@?$positional_parameter_base@DV?$string_output_adapter@D@__crt_stdio_output@@@__crt_stdio_output@@CA?AW4parameter_type@01@PAX@Z 1001f089 f i libucrt:output.obj
 0001:0001e08d       ??$get_parameter_type@X@?$positional_parameter_base@_WV?$stream_output_adapter@_W@__crt_stdio_output@@@__crt_stdio_output@@CA?AW4parameter_type@01@PAX@Z 1001f08d f i libucrt:output.obj
 0001:0001e091       ??$get_parameter_type@X@?$positional_parameter_base@_WV?$string_output_adapter@_W@__crt_stdio_output@@@__crt_stdio_output@@CA?AW4parameter_type@01@PAX@Z 1001f091 f i libucrt:output.obj
 0001:0001e095       ??$is_character_specifier@D@?$positional_parameter_base@DV?$stream_output_adapter@D@__crt_stdio_output@@@__crt_stdio_output@@CA_ND@Z 1001f095 f i libucrt:output.obj
 0001:0001e0ad       ??$is_character_specifier@D@?$positional_parameter_base@DV?$string_output_adapter@D@__crt_stdio_output@@@__crt_stdio_output@@CA_ND@Z 1001f0ad f i libucrt:output.obj
 0001:0001e0c5       ??$is_character_specifier@_W@?$positional_parameter_base@_WV?$stream_output_adapter@_W@__crt_stdio_output@@@__crt_stdio_output@@CA_N_W@Z 1001f0c5 f i libucrt:output.obj
 0001:0001e0e0       ??$is_character_specifier@_W@?$positional_parameter_base@_WV?$string_output_adapter@_W@__crt_stdio_output@@@__crt_stdio_output@@CA_N_W@Z 1001f0e0 f i libucrt:output.obj
 0001:0001e0fb       ??$is_integral_specifier@D@?$positional_parameter_base@DV?$stream_output_adapter@D@__crt_stdio_output@@@__crt_stdio_output@@CA_ND@Z 1001f0fb f i libucrt:output.obj
 0001:0001e127       ??$is_integral_specifier@D@?$positional_parameter_base@DV?$string_output_adapter@D@__crt_stdio_output@@@__crt_stdio_output@@CA_ND@Z 1001f127 f i libucrt:output.obj
 0001:0001e153       ??$is_integral_specifier@_W@?$positional_parameter_base@_WV?$stream_output_adapter@_W@__crt_stdio_output@@@__crt_stdio_output@@CA_N_W@Z 1001f153 f i libucrt:output.obj
 0001:0001e18e       ??$is_integral_specifier@_W@?$positional_parameter_base@_WV?$string_output_adapter@_W@__crt_stdio_output@@@__crt_stdio_output@@CA_N_W@Z 1001f18e f i libucrt:output.obj
 0001:0001e1c9       ??$is_overflow_condition@K@__crt_strtox@@YA_NIK@Z 1001f1c9 f i libucrt:output.obj
 0001:0001e1fa       ??$is_pointer_specifier@D@?$positional_parameter_base@DV?$stream_output_adapter@D@__crt_stdio_output@@@__crt_stdio_output@@CA_ND@Z 1001f1fa f i libucrt:output.obj
 0001:0001e208       ??$is_pointer_specifier@D@?$positional_parameter_base@DV?$string_output_adapter@D@__crt_stdio_output@@@__crt_stdio_output@@CA_ND@Z 1001f208 f i libucrt:output.obj
 0001:0001e216       ??$is_pointer_specifier@_W@?$positional_parameter_base@_WV?$stream_output_adapter@_W@__crt_stdio_output@@@__crt_stdio_output@@CA_N_W@Z 1001f216 f i libucrt:output.obj
 0001:0001e225       ??$is_pointer_specifier@_W@?$positional_parameter_base@_WV?$string_output_adapter@_W@__crt_stdio_output@@@__crt_stdio_output@@CA_N_W@Z 1001f225 f i libucrt:output.obj
 0001:0001e234       ??$is_string_specifier@D@?$positional_parameter_base@DV?$stream_output_adapter@D@__crt_stdio_output@@@__crt_stdio_output@@CA_ND@Z 1001f234 f i libucrt:output.obj
 0001:0001e24c       ??$is_string_specifier@D@?$positional_parameter_base@DV?$string_output_adapter@D@__crt_stdio_output@@@__crt_stdio_output@@CA_ND@Z 1001f24c f i libucrt:output.obj
 0001:0001e264       ??$is_string_specifier@_W@?$positional_parameter_base@_WV?$stream_output_adapter@_W@__crt_stdio_output@@@__crt_stdio_output@@CA_N_W@Z 1001f264 f i libucrt:output.obj
 0001:0001e27f       ??$is_string_specifier@_W@?$positional_parameter_base@_WV?$string_output_adapter@_W@__crt_stdio_output@@@__crt_stdio_output@@CA_N_W@Z 1001f27f f i libucrt:output.obj
 0001:0001e29a       ??$is_wide_character_specifier@D@__crt_stdio_output@@YA_N_KDW4length_modifier@0@@Z 1001f29a f i libucrt:output.obj
 0001:0001e2cb       ??$is_wide_character_specifier@_W@__crt_stdio_output@@YA_N_K_WW4length_modifier@0@@Z 1001f2cb f i libucrt:output.obj
 0001:0001e319       ??$make_c_string_character_source@DPAPAD@__crt_strtox@@YA?AV?$c_string_character_source@D@0@QBDQAPAD@Z 1001f319 f i libucrt:output.obj
 0001:0001e334       ??$make_c_string_character_source@_WPAPA_W@__crt_strtox@@YA?AV?$c_string_character_source@_W@0@QB_WQAPA_W@Z 1001f334 f i libucrt:output.obj
 0001:0001e34f       ??$parse_integer@KV?$c_string_character_source@D@__crt_strtox@@$0A@@__crt_strtox@@YAKAAV__crt_cached_ptd_host@@V?$c_string_character_source@D@0@H_N@Z 1001f34f f i libucrt:output.obj
 0001:0001e55e       ??$parse_integer@KV?$c_string_character_source@_W@__crt_strtox@@$0A@@__crt_strtox@@YAKAAV__crt_cached_ptd_host@@V?$c_string_character_source@_W@0@H_N@Z 1001f55e f i libucrt:output.obj
 0001:0001eb2d       ??$peek_va_arg@C@__crt_stdio_output@@YACPAD@Z 1001fb2d f i libucrt:output.obj
 0001:0001eb39       ??$peek_va_arg@E@__crt_stdio_output@@YAEPAD@Z 1001fb39 f i libucrt:output.obj
 0001:0001eb45       ??$peek_va_arg@F@__crt_stdio_output@@YAFPAD@Z 1001fb45 f i libucrt:output.obj
 0001:0001eb52       ??$peek_va_arg@G@__crt_stdio_output@@YAGPAD@Z 1001fb52 f i libucrt:output.obj
 0001:0001eb5f       ??$peek_va_arg@H@__crt_stdio_output@@YAHPAD@Z 1001fb5f f i libucrt:output.obj
 0001:0001eb6b       ??$peek_va_arg@I@__crt_stdio_output@@YAIPAD@Z 1001fb6b f i libucrt:output.obj
 0001:0001eb77       ??$peek_va_arg@PAD@__crt_stdio_output@@YAPADPAD@Z 1001fb77 f i libucrt:output.obj
 0001:0001eb83       ??$peek_va_arg@PAUansi_string@?1??type_case_Z@?$output_processor@DV?$stream_output_adapter@D@__crt_stdio_output@@V?$positional_parameter_base@DV?$stream_output_adapter@D@__crt_stdio_output@@@2@@__crt_stdio_output@@AAE_NXZ@@__crt_stdio_output@@YAPAUansi_string@?1??type_case_Z@?$output_processor@DV?$stream_output_adapter@D@__crt_stdio_output@@V?$positional_parameter_base@DV?$stream_output_adapter@D@__crt_stdio_output@@@2@@0@AAE_NXZ@PAD@Z 1001fb83 f i libucrt:output.obj
 0001:0001eb8f       ??$peek_va_arg@PAUansi_string@?1??type_case_Z@?$output_processor@DV?$string_output_adapter@D@__crt_stdio_output@@V?$positional_parameter_base@DV?$string_output_adapter@D@__crt_stdio_output@@@2@@__crt_stdio_output@@AAE_NXZ@@__crt_stdio_output@@YAPAUansi_string@?1??type_case_Z@?$output_processor@DV?$string_output_adapter@D@__crt_stdio_output@@V?$positional_parameter_base@DV?$string_output_adapter@D@__crt_stdio_output@@@2@@0@AAE_NXZ@PAD@Z 1001fb8f f i libucrt:output.obj
 0001:0001eb9b       ??$peek_va_arg@PAUansi_string@?1??type_case_Z@?$output_processor@_WV?$stream_output_adapter@_W@__crt_stdio_output@@V?$positional_parameter_base@_WV?$stream_output_adapter@_W@__crt_stdio_output@@@2@@__crt_stdio_output@@AAE_NXZ@@__crt_stdio_output@@YAPAUansi_string@?1??type_case_Z@?$output_processor@_WV?$stream_output_adapter@_W@__crt_stdio_output@@V?$positional_parameter_base@_WV?$stream_output_adapter@_W@__crt_stdio_output@@@2@@0@AAE_NXZ@PAD@Z 1001fb9b f i libucrt:output.obj
 0001:0001eba7       ??$peek_va_arg@PAUansi_string@?1??type_case_Z@?$output_processor@_WV?$string_output_adapter@_W@__crt_stdio_output@@V?$positional_parameter_base@_WV?$string_output_adapter@_W@__crt_stdio_output@@@2@@__crt_stdio_output@@AAE_NXZ@@__crt_stdio_output@@YAPAUansi_string@?1??type_case_Z@?$output_processor@_WV?$string_output_adapter@_W@__crt_stdio_output@@V?$positional_parameter_base@_WV?$string_output_adapter@_W@__crt_stdio_output@@@2@@0@AAE_NXZ@PAD@Z 1001fba7 f i libucrt:output.obj
 0001:0001ebb3       ??$peek_va_arg@PAX@__crt_stdio_output@@YAPAXPAD@Z 1001fbb3 f i libucrt:output.obj
 0001:0001ebbf       ??$peek_va_arg@U_CRT_DOUBLE@@@__crt_stdio_output@@YA?AU_CRT_DOUBLE@@PAD@Z 1001fbbf f i libucrt:output.obj
 0001:0001ebce       ??$peek_va_arg@_J@__crt_stdio_output@@YA_JPAD@Z 1001fbce f i libucrt:output.obj
 0001:0001ebdd       ??$peek_va_arg@_K@__crt_stdio_output@@YA_KPAD@Z 1001fbdd f i libucrt:output.obj
 0001:0001ebec       ??$peek_va_arg@_W@__crt_stdio_output@@YA_WPAD@Z 1001fbec f i libucrt:output.obj
 0001:0001ebf9       ??$puttc_nolock_internal@ABDPAU_iobuf@@AAV__crt_cached_ptd_host@@@?$__crt_char_traits@D@@SAHABD$$QAPAU_iobuf@@AAV__crt_cached_ptd_host@@@Z 1001fbf9 f i libucrt:output.obj
 0001:0001ec17       ??$puttc_nolock_internal@AB_WPAU_iobuf@@AAV__crt_cached_ptd_host@@@?$__crt_char_traits@_W@@SAGAB_W$$QAPAU_iobuf@@AAV__crt_cached_ptd_host@@@Z 1001fc17 f i libucrt:output.obj
 0001:0001ec35       ??$read_va_arg@C@__crt_stdio_output@@YACAAPAD@Z 1001fc35 f i libucrt:output.obj
 0001:0001ec47       ??$read_va_arg@E@__crt_stdio_output@@YAEAAPAD@Z 1001fc47 f i libucrt:output.obj
 0001:0001ec59       ??$read_va_arg@F@__crt_stdio_output@@YAFAAPAD@Z 1001fc59 f i libucrt:output.obj
 0001:0001ec6c       ??$read_va_arg@G@__crt_stdio_output@@YAGAAPAD@Z 1001fc6c f i libucrt:output.obj
 0001:0001ec7f       ??$read_va_arg@H@__crt_stdio_output@@YAHAAPAD@Z 1001fc7f f i libucrt:output.obj
 0001:0001ec91       ??$read_va_arg@I@__crt_stdio_output@@YAIAAPAD@Z 1001fc91 f i libucrt:output.obj
 0001:0001eca3       ??$read_va_arg@PAD@__crt_stdio_output@@YAPADAAPAD@Z 1001fca3 f i libucrt:output.obj
 0001:0001ecb5       ??$read_va_arg@PAUansi_string@?1??type_case_Z@?$output_processor@DV?$stream_output_adapter@D@__crt_stdio_output@@V?$format_validation_base@DV?$stream_output_adapter@D@__crt_stdio_output@@@2@@__crt_stdio_output@@AAE_NXZ@@__crt_stdio_output@@YAPAUansi_string@?1??type_case_Z@?$output_processor@DV?$stream_output_adapter@D@__crt_stdio_output@@V?$format_validation_base@DV?$stream_output_adapter@D@__crt_stdio_output@@@2@@0@AAE_NXZ@AAPAD@Z 1001fcb5 f i libucrt:output.obj
 0001:0001ecc7       ??$read_va_arg@PAUansi_string@?1??type_case_Z@?$output_processor@DV?$stream_output_adapter@D@__crt_stdio_output@@V?$positional_parameter_base@DV?$stream_output_adapter@D@__crt_stdio_output@@@2@@__crt_stdio_output@@AAE_NXZ@@__crt_stdio_output@@YAPAUansi_string@?1??type_case_Z@?$output_processor@DV?$stream_output_adapter@D@__crt_stdio_output@@V?$positional_parameter_base@DV?$stream_output_adapter@D@__crt_stdio_output@@@2@@0@AAE_NXZ@AAPAD@Z 1001fcc7 f i libucrt:output.obj
 0001:0001ecd9       ??$read_va_arg@PAUansi_string@?1??type_case_Z@?$output_processor@DV?$stream_output_adapter@D@__crt_stdio_output@@V?$standard_base@DV?$stream_output_adapter@D@__crt_stdio_output@@@2@@__crt_stdio_output@@AAE_NXZ@@__crt_stdio_output@@YAPAUansi_string@?1??type_case_Z@?$output_processor@DV?$stream_output_adapter@D@__crt_stdio_output@@V?$standard_base@DV?$stream_output_adapter@D@__crt_stdio_output@@@2@@0@AAE_NXZ@AAPAD@Z 1001fcd9 f i libucrt:output.obj
 0001:0001eceb       ??$read_va_arg@PAUansi_string@?1??type_case_Z@?$output_processor@DV?$string_output_adapter@D@__crt_stdio_output@@V?$format_validation_base@DV?$string_output_adapter@D@__crt_stdio_output@@@2@@__crt_stdio_output@@AAE_NXZ@@__crt_stdio_output@@YAPAUansi_string@?1??type_case_Z@?$output_processor@DV?$string_output_adapter@D@__crt_stdio_output@@V?$format_validation_base@DV?$string_output_adapter@D@__crt_stdio_output@@@2@@0@AAE_NXZ@AAPAD@Z 1001fceb f i libucrt:output.obj
 0001:0001ecfd       ??$read_va_arg@PAUansi_string@?1??type_case_Z@?$output_processor@DV?$string_output_adapter@D@__crt_stdio_output@@V?$positional_parameter_base@DV?$string_output_adapter@D@__crt_stdio_output@@@2@@__crt_stdio_output@@AAE_NXZ@@__crt_stdio_output@@YAPAUansi_string@?1??type_case_Z@?$output_processor@DV?$string_output_adapter@D@__crt_stdio_output@@V?$positional_parameter_base@DV?$string_output_adapter@D@__crt_stdio_output@@@2@@0@AAE_NXZ@AAPAD@Z 1001fcfd f i libucrt:output.obj
 0001:0001ed0f       ??$read_va_arg@PAUansi_string@?1??type_case_Z@?$output_processor@DV?$string_output_adapter@D@__crt_stdio_output@@V?$standard_base@DV?$string_output_adapter@D@__crt_stdio_output@@@2@@__crt_stdio_output@@AAE_NXZ@@__crt_stdio_output@@YAPAUansi_string@?1??type_case_Z@?$output_processor@DV?$string_output_adapter@D@__crt_stdio_output@@V?$standard_base@DV?$string_output_adapter@D@__crt_stdio_output@@@2@@0@AAE_NXZ@AAPAD@Z 1001fd0f f i libucrt:output.obj
 0001:0001ed21       ??$read_va_arg@PAUansi_string@?1??type_case_Z@?$output_processor@_WV?$stream_output_adapter@_W@__crt_stdio_output@@V?$format_validation_base@_WV?$stream_output_adapter@_W@__crt_stdio_output@@@2@@__crt_stdio_output@@AAE_NXZ@@__crt_stdio_output@@YAPAUansi_string@?1??type_case_Z@?$output_processor@_WV?$stream_output_adapter@_W@__crt_stdio_output@@V?$format_validation_base@_WV?$stream_output_adapter@_W@__crt_stdio_output@@@2@@0@AAE_NXZ@AAPAD@Z 1001fd21 f i libucrt:output.obj
 0001:0001ed33       ??$read_va_arg@PAUansi_string@?1??type_case_Z@?$output_processor@_WV?$stream_output_adapter@_W@__crt_stdio_output@@V?$positional_parameter_base@_WV?$stream_output_adapter@_W@__crt_stdio_output@@@2@@__crt_stdio_output@@AAE_NXZ@@__crt_stdio_output@@YAPAUansi_string@?1??type_case_Z@?$output_processor@_WV?$stream_output_adapter@_W@__crt_stdio_output@@V?$positional_parameter_base@_WV?$stream_output_adapter@_W@__crt_stdio_output@@@2@@0@AAE_NXZ@AAPAD@Z 1001fd33 f i libucrt:output.obj
 0001:0001ed45       ??$read_va_arg@PAUansi_string@?1??type_case_Z@?$output_processor@_WV?$stream_output_adapter@_W@__crt_stdio_output@@V?$standard_base@_WV?$stream_output_adapter@_W@__crt_stdio_output@@@2@@__crt_stdio_output@@AAE_NXZ@@__crt_stdio_output@@YAPAUansi_string@?1??type_case_Z@?$output_processor@_WV?$stream_output_adapter@_W@__crt_stdio_output@@V?$standard_base@_WV?$stream_output_adapter@_W@__crt_stdio_output@@@2@@0@AAE_NXZ@AAPAD@Z 1001fd45 f i libucrt:output.obj
 0001:0001ed57       ??$read_va_arg@PAUansi_string@?1??type_case_Z@?$output_processor@_WV?$string_output_adapter@_W@__crt_stdio_output@@V?$format_validation_base@_WV?$string_output_adapter@_W@__crt_stdio_output@@@2@@__crt_stdio_output@@AAE_NXZ@@__crt_stdio_output@@YAPAUansi_string@?1??type_case_Z@?$output_processor@_WV?$string_output_adapter@_W@__crt_stdio_output@@V?$format_validation_base@_WV?$string_output_adapter@_W@__crt_stdio_output@@@2@@0@AAE_NXZ@AAPAD@Z 1001fd57 f i libucrt:output.obj
 0001:0001ed69       ??$read_va_arg@PAUansi_string@?1??type_case_Z@?$output_processor@_WV?$string_output_adapter@_W@__crt_stdio_output@@V?$positional_parameter_base@_WV?$string_output_adapter@_W@__crt_stdio_output@@@2@@__crt_stdio_output@@AAE_NXZ@@__crt_stdio_output@@YAPAUansi_string@?1??type_case_Z@?$output_processor@_WV?$string_output_adapter@_W@__crt_stdio_output@@V?$positional_parameter_base@_WV?$string_output_adapter@_W@__crt_stdio_output@@@2@@0@AAE_NXZ@AAPAD@Z 1001fd69 f i libucrt:output.obj
 0001:0001ed7b       ??$read_va_arg@PAUansi_string@?1??type_case_Z@?$output_processor@_WV?$string_output_adapter@_W@__crt_stdio_output@@V?$standard_base@_WV?$string_output_adapter@_W@__crt_stdio_output@@@2@@__crt_stdio_output@@AAE_NXZ@@__crt_stdio_output@@YAPAUansi_string@?1??type_case_Z@?$output_processor@_WV?$string_output_adapter@_W@__crt_stdio_output@@V?$standard_base@_WV?$string_output_adapter@_W@__crt_stdio_output@@@2@@0@AAE_NXZ@AAPAD@Z 1001fd7b f i libucrt:output.obj
 0001:0001ed8d       ??$read_va_arg@PAX@__crt_stdio_output@@YAPAXAAPAD@Z 1001fd8d f i libucrt:output.obj
 0001:0001ed9f       ??$read_va_arg@U_CRT_DOUBLE@@@__crt_stdio_output@@YA?AU_CRT_DOUBLE@@AAPAD@Z 1001fd9f f i libucrt:output.obj
 0001:0001edb5       ??$read_va_arg@_J@__crt_stdio_output@@YA_JAAPAD@Z 1001fdb5 f i libucrt:output.obj
 0001:0001edca       ??$read_va_arg@_K@__crt_stdio_output@@YA_KAAPAD@Z 1001fdca f i libucrt:output.obj
 0001:0001eddf       ??$read_va_arg@_W@__crt_stdio_output@@YA_WAAPAD@Z 1001fddf f i libucrt:output.obj
 0001:0001edf2       ??$scratch_count@D@formatting_buffer@__crt_stdio_output@@QBEIXZ 1001fdf2 f i libucrt:output.obj
 0001:0001edf7       ??$scratch_data@D@formatting_buffer@__crt_stdio_output@@QAEPADXZ 1001fdf7 f i libucrt:output.obj
 0001:0001ee15       ??$type_case_integer@$07@?$output_processor@DV?$stream_output_adapter@D@__crt_stdio_output@@V?$format_validation_base@DV?$stream_output_adapter@D@__crt_stdio_output@@@2@@__crt_stdio_output@@AAE_N_N@Z 1001fe15 f i libucrt:output.obj
 0001:0001ef92       ??$type_case_integer@$07@?$output_processor@DV?$stream_output_adapter@D@__crt_stdio_output@@V?$positional_parameter_base@DV?$stream_output_adapter@D@__crt_stdio_output@@@2@@__crt_stdio_output@@AAE_N_N@Z 1001ff92 f i libucrt:output.obj
 0001:0001f123       ??$type_case_integer@$07@?$output_processor@DV?$stream_output_adapter@D@__crt_stdio_output@@V?$standard_base@DV?$stream_output_adapter@D@__crt_stdio_output@@@2@@__crt_stdio_output@@AAE_N_N@Z 10020123 f i libucrt:output.obj
 0001:0001f2a0       ??$type_case_integer@$07@?$output_processor@DV?$string_output_adapter@D@__crt_stdio_output@@V?$format_validation_base@DV?$string_output_adapter@D@__crt_stdio_output@@@2@@__crt_stdio_output@@AAE_N_N@Z 100202a0 f i libucrt:output.obj
 0001:0001f41d       ??$type_case_integer@$07@?$output_processor@DV?$string_output_adapter@D@__crt_stdio_output@@V?$positional_parameter_base@DV?$string_output_adapter@D@__crt_stdio_output@@@2@@__crt_stdio_output@@AAE_N_N@Z 1002041d f i libucrt:output.obj
 0001:0001f5ae       ??$type_case_integer@$07@?$output_processor@DV?$string_output_adapter@D@__crt_stdio_output@@V?$standard_base@DV?$string_output_adapter@D@__crt_stdio_output@@@2@@__crt_stdio_output@@AAE_N_N@Z 100205ae f i libucrt:output.obj
 0001:0001f72b       ??$type_case_integer@$07@?$output_processor@_WV?$stream_output_adapter@_W@__crt_stdio_output@@V?$format_validation_base@_WV?$stream_output_adapter@_W@__crt_stdio_output@@@2@@__crt_stdio_output@@AAE_N_N@Z 1002072b f i libucrt:output.obj
 0001:0001f8ad       ??$type_case_integer@$07@?$output_processor@_WV?$stream_output_adapter@_W@__crt_stdio_output@@V?$positional_parameter_base@_WV?$stream_output_adapter@_W@__crt_stdio_output@@@2@@__crt_stdio_output@@AAE_N_N@Z 100208ad f i libucrt:output.obj
 0001:0001fa42       ??$type_case_integer@$07@?$output_processor@_WV?$stream_output_adapter@_W@__crt_stdio_output@@V?$standard_base@_WV?$stream_output_adapter@_W@__crt_stdio_output@@@2@@__crt_stdio_output@@AAE_N_N@Z 10020a42 f i libucrt:output.obj
 0001:0001fbc4       ??$type_case_integer@$07@?$output_processor@_WV?$string_output_adapter@_W@__crt_stdio_output@@V?$format_validation_base@_WV?$string_output_adapter@_W@__crt_stdio_output@@@2@@__crt_stdio_output@@AAE_N_N@Z 10020bc4 f i libucrt:output.obj
 0001:0001fd46       ??$type_case_integer@$07@?$output_processor@_WV?$string_output_adapter@_W@__crt_stdio_output@@V?$positional_parameter_base@_WV?$string_output_adapter@_W@__crt_stdio_output@@@2@@__crt_stdio_output@@AAE_N_N@Z 10020d46 f i libucrt:output.obj
 0001:0001fedb       ??$type_case_integer@$07@?$output_processor@_WV?$string_output_adapter@_W@__crt_stdio_output@@V?$standard_base@_WV?$string_output_adapter@_W@__crt_stdio_output@@@2@@__crt_stdio_output@@AAE_N_N@Z 10020edb f i libucrt:output.obj
 0001:0002005d       ??$type_case_integer@$09@?$output_processor@DV?$stream_output_adapter@D@__crt_stdio_output@@V?$format_validation_base@DV?$stream_output_adapter@D@__crt_stdio_output@@@2@@__crt_stdio_output@@AAE_N_N@Z 1002105d f i libucrt:output.obj
 0001:000201da       ??$type_case_integer@$09@?$output_processor@DV?$stream_output_adapter@D@__crt_stdio_output@@V?$positional_parameter_base@DV?$stream_output_adapter@D@__crt_stdio_output@@@2@@__crt_stdio_output@@AAE_N_N@Z 100211da f i libucrt:output.obj
 0001:0002036b       ??$type_case_integer@$09@?$output_processor@DV?$stream_output_adapter@D@__crt_stdio_output@@V?$standard_base@DV?$stream_output_adapter@D@__crt_stdio_output@@@2@@__crt_stdio_output@@AAE_N_N@Z 1002136b f i libucrt:output.obj
 0001:000204e8       ??$type_case_integer@$09@?$output_processor@DV?$string_output_adapter@D@__crt_stdio_output@@V?$format_validation_base@DV?$string_output_adapter@D@__crt_stdio_output@@@2@@__crt_stdio_output@@AAE_N_N@Z 100214e8 f i libucrt:output.obj
 0001:00020665       ??$type_case_integer@$09@?$output_processor@DV?$string_output_adapter@D@__crt_stdio_output@@V?$positional_parameter_base@DV?$string_output_adapter@D@__crt_stdio_output@@@2@@__crt_stdio_output@@AAE_N_N@Z 10021665 f i libucrt:output.obj
 0001:000207f6       ??$type_case_integer@$09@?$output_processor@DV?$string_output_adapter@D@__crt_stdio_output@@V?$standard_base@DV?$string_output_adapter@D@__crt_stdio_output@@@2@@__crt_stdio_output@@AAE_N_N@Z 100217f6 f i libucrt:output.obj
 0001:00020973       ??$type_case_integer@$09@?$output_processor@_WV?$stream_output_adapter@_W@__crt_stdio_output@@V?$format_validation_base@_WV?$stream_output_adapter@_W@__crt_stdio_output@@@2@@__crt_stdio_output@@AAE_N_N@Z 10021973 f i libucrt:output.obj
 0001:00020af5       ??$type_case_integer@$09@?$output_processor@_WV?$stream_output_adapter@_W@__crt_stdio_output@@V?$positional_parameter_base@_WV?$stream_output_adapter@_W@__crt_stdio_output@@@2@@__crt_stdio_output@@AAE_N_N@Z 10021af5 f i libucrt:output.obj
 0001:00020c8a       ??$type_case_integer@$09@?$output_processor@_WV?$stream_output_adapter@_W@__crt_stdio_output@@V?$standard_base@_WV?$stream_output_adapter@_W@__crt_stdio_output@@@2@@__crt_stdio_output@@AAE_N_N@Z 10021c8a f i libucrt:output.obj
 0001:00020e0c       ??$type_case_integer@$09@?$output_processor@_WV?$string_output_adapter@_W@__crt_stdio_output@@V?$format_validation_base@_WV?$string_output_adapter@_W@__crt_stdio_output@@@2@@__crt_stdio_output@@AAE_N_N@Z 10021e0c f i libucrt:output.obj
 0001:00020f8e       ??$type_case_integer@$09@?$output_processor@_WV?$string_output_adapter@_W@__crt_stdio_output@@V?$positional_parameter_base@_WV?$string_output_adapter@_W@__crt_stdio_output@@@2@@__crt_stdio_output@@AAE_N_N@Z 10021f8e f i libucrt:output.obj
 0001:00021123       ??$type_case_integer@$09@?$output_processor@_WV?$string_output_adapter@_W@__crt_stdio_output@@V?$standard_base@_WV?$string_output_adapter@_W@__crt_stdio_output@@@2@@__crt_stdio_output@@AAE_N_N@Z 10022123 f i libucrt:output.obj
 0001:000212a5       ??$type_case_integer@$0BA@@?$output_processor@DV?$stream_output_adapter@D@__crt_stdio_output@@V?$format_validation_base@DV?$stream_output_adapter@D@__crt_stdio_output@@@2@@__crt_stdio_output@@AAE_N_N@Z 100222a5 f i libucrt:output.obj
 0001:00021422       ??$type_case_integer@$0BA@@?$output_processor@DV?$stream_output_adapter@D@__crt_stdio_output@@V?$positional_parameter_base@DV?$stream_output_adapter@D@__crt_stdio_output@@@2@@__crt_stdio_output@@AAE_N_N@Z 10022422 f i libucrt:output.obj
 0001:000215b3       ??$type_case_integer@$0BA@@?$output_processor@DV?$stream_output_adapter@D@__crt_stdio_output@@V?$standard_base@DV?$stream_output_adapter@D@__crt_stdio_output@@@2@@__crt_stdio_output@@AAE_N_N@Z 100225b3 f i libucrt:output.obj
 0001:00021730       ??$type_case_integer@$0BA@@?$output_processor@DV?$string_output_adapter@D@__crt_stdio_output@@V?$format_validation_base@DV?$string_output_adapter@D@__crt_stdio_output@@@2@@__crt_stdio_output@@AAE_N_N@Z 10022730 f i libucrt:output.obj
 0001:000218ad       ??$type_case_integer@$0BA@@?$output_processor@DV?$string_output_adapter@D@__crt_stdio_output@@V?$positional_parameter_base@DV?$string_output_adapter@D@__crt_stdio_output@@@2@@__crt_stdio_output@@AAE_N_N@Z 100228ad f i libucrt:output.obj
 0001:00021a3e       ??$type_case_integer@$0BA@@?$output_processor@DV?$string_output_adapter@D@__crt_stdio_output@@V?$standard_base@DV?$string_output_adapter@D@__crt_stdio_output@@@2@@__crt_stdio_output@@AAE_N_N@Z 10022a3e f i libucrt:output.obj
 0001:00021bbb       ??$type_case_integer@$0BA@@?$output_processor@_WV?$stream_output_adapter@_W@__crt_stdio_output@@V?$format_validation_base@_WV?$stream_output_adapter@_W@__crt_stdio_output@@@2@@__crt_stdio_output@@AAE_N_N@Z 10022bbb f i libucrt:output.obj
 0001:00021d3d       ??$type_case_integer@$0BA@@?$output_processor@_WV?$stream_output_adapter@_W@__crt_stdio_output@@V?$positional_parameter_base@_WV?$stream_output_adapter@_W@__crt_stdio_output@@@2@@__crt_stdio_output@@AAE_N_N@Z 10022d3d f i libucrt:output.obj
 0001:00021ed2       ??$type_case_integer@$0BA@@?$output_processor@_WV?$stream_output_adapter@_W@__crt_stdio_output@@V?$standard_base@_WV?$stream_output_adapter@_W@__crt_stdio_output@@@2@@__crt_stdio_output@@AAE_N_N@Z 10022ed2 f i libucrt:output.obj
 0001:00022054       ??$type_case_integer@$0BA@@?$output_processor@_WV?$string_output_adapter@_W@__crt_stdio_output@@V?$format_validation_base@_WV?$string_output_adapter@_W@__crt_stdio_output@@@2@@__crt_stdio_output@@AAE_N_N@Z 10023054 f i libucrt:output.obj
 0001:000221d6       ??$type_case_integer@$0BA@@?$output_processor@_WV?$string_output_adapter@_W@__crt_stdio_output@@V?$positional_parameter_base@_WV?$string_output_adapter@_W@__crt_stdio_output@@@2@@__crt_stdio_output@@AAE_N_N@Z 100231d6 f i libucrt:output.obj
 0001:0002236b       ??$type_case_integer@$0BA@@?$output_processor@_WV?$string_output_adapter@_W@__crt_stdio_output@@V?$standard_base@_WV?$string_output_adapter@_W@__crt_stdio_output@@@2@@__crt_stdio_output@@AAE_N_N@Z 1002336b f i libucrt:output.obj
 0001:000224ed       ??$type_case_integer_parse_into_buffer@I$07@?$output_processor@DV?$stream_output_adapter@D@__crt_stdio_output@@V?$format_validation_base@DV?$stream_output_adapter@D@__crt_stdio_output@@@2@@__crt_stdio_output@@AAEXI_N@Z 100234ed f i libucrt:output.obj
 0001:00022557       ??$type_case_integer_parse_into_buffer@I$07@?$output_processor@DV?$stream_output_adapter@D@__crt_stdio_output@@V?$positional_parameter_base@DV?$stream_output_adapter@D@__crt_stdio_output@@@2@@__crt_stdio_output@@AAEXI_N@Z 10023557 f i libucrt:output.obj
 0001:000225c1       ??$type_case_integer_parse_into_buffer@I$07@?$output_processor@DV?$stream_output_adapter@D@__crt_stdio_output@@V?$standard_base@DV?$stream_output_adapter@D@__crt_stdio_output@@@2@@__crt_stdio_output@@AAEXI_N@Z 100235c1 f i libucrt:output.obj
 0001:0002262b       ??$type_case_integer_parse_into_buffer@I$07@?$output_processor@DV?$string_output_adapter@D@__crt_stdio_output@@V?$format_validation_base@DV?$string_output_adapter@D@__crt_stdio_output@@@2@@__crt_stdio_output@@AAEXI_N@Z 1002362b f i libucrt:output.obj
 0001:00022695       ??$type_case_integer_parse_into_buffer@I$07@?$output_processor@DV?$string_output_adapter@D@__crt_stdio_output@@V?$positional_parameter_base@DV?$string_output_adapter@D@__crt_stdio_output@@@2@@__crt_stdio_output@@AAEXI_N@Z 10023695 f i libucrt:output.obj
 0001:000226ff       ??$type_case_integer_parse_into_buffer@I$07@?$output_processor@DV?$string_output_adapter@D@__crt_stdio_output@@V?$standard_base@DV?$string_output_adapter@D@__crt_stdio_output@@@2@@__crt_stdio_output@@AAEXI_N@Z 100236ff f i libucrt:output.obj
 0001:00022769       ??$type_case_integer_parse_into_buffer@I$07@?$output_processor@_WV?$stream_output_adapter@_W@__crt_stdio_output@@V?$format_validation_base@_WV?$stream_output_adapter@_W@__crt_stdio_output@@@2@@__crt_stdio_output@@AAEXI_N@Z 10023769 f i libucrt:output.obj
 0001:000227d6       ??$type_case_integer_parse_into_buffer@I$07@?$output_processor@_WV?$stream_output_adapter@_W@__crt_stdio_output@@V?$positional_parameter_base@_WV?$stream_output_adapter@_W@__crt_stdio_output@@@2@@__crt_stdio_output@@AAEXI_N@Z 100237d6 f i libucrt:output.obj
 0001:00022843       ??$type_case_integer_parse_into_buffer@I$07@?$output_processor@_WV?$stream_output_adapter@_W@__crt_stdio_output@@V?$standard_base@_WV?$stream_output_adapter@_W@__crt_stdio_output@@@2@@__crt_stdio_output@@AAEXI_N@Z 10023843 f i libucrt:output.obj
 0001:000228b0       ??$type_case_integer_parse_into_buffer@I$07@?$output_processor@_WV?$string_output_adapter@_W@__crt_stdio_output@@V?$format_validation_base@_WV?$string_output_adapter@_W@__crt_stdio_output@@@2@@__crt_stdio_output@@AAEXI_N@Z 100238b0 f i libucrt:output.obj
 0001:0002291d       ??$type_case_integer_parse_into_buffer@I$07@?$output_processor@_WV?$string_output_adapter@_W@__crt_stdio_output@@V?$positional_parameter_base@_WV?$string_output_adapter@_W@__crt_stdio_output@@@2@@__crt_stdio_output@@AAEXI_N@Z 1002391d f i libucrt:output.obj
 0001:0002298a       ??$type_case_integer_parse_into_buffer@I$07@?$output_processor@_WV?$string_output_adapter@_W@__crt_stdio_output@@V?$standard_base@_WV?$string_output_adapter@_W@__crt_stdio_output@@@2@@__crt_stdio_output@@AAEXI_N@Z 1002398a f i libucrt:output.obj
 0001:000229f7       ??$type_case_integer_parse_into_buffer@I$09@?$output_processor@DV?$stream_output_adapter@D@__crt_stdio_output@@V?$format_validation_base@DV?$stream_output_adapter@D@__crt_stdio_output@@@2@@__crt_stdio_output@@AAEXI_N@Z 100239f7 f i libucrt:output.obj
 0001:00022a71       ??$type_case_integer_parse_into_buffer@I$09@?$output_processor@DV?$stream_output_adapter@D@__crt_stdio_output@@V?$positional_parameter_base@DV?$stream_output_adapter@D@__crt_stdio_output@@@2@@__crt_stdio_output@@AAEXI_N@Z 10023a71 f i libucrt:output.obj
 0001:00022aeb       ??$type_case_integer_parse_into_buffer@I$09@?$output_processor@DV?$stream_output_adapter@D@__crt_stdio_output@@V?$standard_base@DV?$stream_output_adapter@D@__crt_stdio_output@@@2@@__crt_stdio_output@@AAEXI_N@Z 10023aeb f i libucrt:output.obj
 0001:00022b65       ??$type_case_integer_parse_into_buffer@I$09@?$output_processor@DV?$string_output_adapter@D@__crt_stdio_output@@V?$format_validation_base@DV?$string_output_adapter@D@__crt_stdio_output@@@2@@__crt_stdio_output@@AAEXI_N@Z 10023b65 f i libucrt:output.obj
 0001:00022bdf       ??$type_case_integer_parse_into_buffer@I$09@?$output_processor@DV?$string_output_adapter@D@__crt_stdio_output@@V?$positional_parameter_base@DV?$string_output_adapter@D@__crt_stdio_output@@@2@@__crt_stdio_output@@AAEXI_N@Z 10023bdf f i libucrt:output.obj
 0001:00022c59       ??$type_case_integer_parse_into_buffer@I$09@?$output_processor@DV?$string_output_adapter@D@__crt_stdio_output@@V?$standard_base@DV?$string_output_adapter@D@__crt_stdio_output@@@2@@__crt_stdio_output@@AAEXI_N@Z 10023c59 f i libucrt:output.obj
 0001:00022cd3       ??$type_case_integer_parse_into_buffer@I$09@?$output_processor@_WV?$stream_output_adapter@_W@__crt_stdio_output@@V?$format_validation_base@_WV?$stream_output_adapter@_W@__crt_stdio_output@@@2@@__crt_stdio_output@@AAEXI_N@Z 10023cd3 f i libucrt:output.obj
 0001:00022d62       ??$type_case_integer_parse_into_buffer@I$09@?$output_processor@_WV?$stream_output_adapter@_W@__crt_stdio_output@@V?$positional_parameter_base@_WV?$stream_output_adapter@_W@__crt_stdio_output@@@2@@__crt_stdio_output@@AAEXI_N@Z 10023d62 f i libucrt:output.obj
 0001:00022df1       ??$type_case_integer_parse_into_buffer@I$09@?$output_processor@_WV?$stream_output_adapter@_W@__crt_stdio_output@@V?$standard_base@_WV?$stream_output_adapter@_W@__crt_stdio_output@@@2@@__crt_stdio_output@@AAEXI_N@Z 10023df1 f i libucrt:output.obj
 0001:00022e80       ??$type_case_integer_parse_into_buffer@I$09@?$output_processor@_WV?$string_output_adapter@_W@__crt_stdio_output@@V?$format_validation_base@_WV?$string_output_adapter@_W@__crt_stdio_output@@@2@@__crt_stdio_output@@AAEXI_N@Z 10023e80 f i libucrt:output.obj
 0001:00022f0f       ??$type_case_integer_parse_into_buffer@I$09@?$output_processor@_WV?$string_output_adapter@_W@__crt_stdio_output@@V?$positional_parameter_base@_WV?$string_output_adapter@_W@__crt_stdio_output@@@2@@__crt_stdio_output@@AAEXI_N@Z 10023f0f f i libucrt:output.obj
 0001:00022f9e       ??$type_case_integer_parse_into_buffer@I$09@?$output_processor@_WV?$string_output_adapter@_W@__crt_stdio_output@@V?$standard_base@_WV?$string_output_adapter@_W@__crt_stdio_output@@@2@@__crt_stdio_output@@AAEXI_N@Z 10023f9e f i libucrt:output.obj
 0001:0002302d       ??$type_case_integer_parse_into_buffer@I$0BA@@?$output_processor@DV?$stream_output_adapter@D@__crt_stdio_output@@V?$format_validation_base@DV?$stream_output_adapter@D@__crt_stdio_output@@@2@@__crt_stdio_output@@AAEXI_N@Z 1002402d f i libucrt:output.obj
 0001:000230b5       ??$type_case_integer_parse_into_buffer@I$0BA@@?$output_processor@DV?$stream_output_adapter@D@__crt_stdio_output@@V?$positional_parameter_base@DV?$stream_output_adapter@D@__crt_stdio_output@@@2@@__crt_stdio_output@@AAEXI_N@Z 100240b5 f i libucrt:output.obj
 0001:0002313d       ??$type_case_integer_parse_into_buffer@I$0BA@@?$output_processor@DV?$stream_output_adapter@D@__crt_stdio_output@@V?$standard_base@DV?$stream_output_adapter@D@__crt_stdio_output@@@2@@__crt_stdio_output@@AAEXI_N@Z 1002413d f i libucrt:output.obj
 0001:000231c5       ??$type_case_integer_parse_into_buffer@I$0BA@@?$output_processor@DV?$string_output_adapter@D@__crt_stdio_output@@V?$format_validation_base@DV?$string_output_adapter@D@__crt_stdio_output@@@2@@__crt_stdio_output@@AAEXI_N@Z 100241c5 f i libucrt:output.obj
 0001:0002324d       ??$type_case_integer_parse_into_buffer@I$0BA@@?$output_processor@DV?$string_output_adapter@D@__crt_stdio_output@@V?$positional_parameter_base@DV?$string_output_adapter@D@__crt_stdio_output@@@2@@__crt_stdio_output@@AAEXI_N@Z 1002424d f i libucrt:output.obj
 0001:000232d5       ??$type_case_integer_parse_into_buffer@I$0BA@@?$output_processor@DV?$string_output_adapter@D@__crt_stdio_output@@V?$standard_base@DV?$string_output_adapter@D@__crt_stdio_output@@@2@@__crt_stdio_output@@AAEXI_N@Z 100242d5 f i libucrt:output.obj
 0001:0002335d       ??$type_case_integer_parse_into_buffer@I$0BA@@?$output_processor@_WV?$stream_output_adapter@_W@__crt_stdio_output@@V?$format_validation_base@_WV?$stream_output_adapter@_W@__crt_stdio_output@@@2@@__crt_stdio_output@@AAEXI_N@Z 1002435d f i libucrt:output.obj
 0001:000233ea       ??$type_case_integer_parse_into_buffer@I$0BA@@?$output_processor@_WV?$stream_output_adapter@_W@__crt_stdio_output@@V?$positional_parameter_base@_WV?$stream_output_adapter@_W@__crt_stdio_output@@@2@@__crt_stdio_output@@AAEXI_N@Z 100243ea f i libucrt:output.obj
 0001:00023477       ??$type_case_integer_parse_into_buffer@I$0BA@@?$output_processor@_WV?$stream_output_adapter@_W@__crt_stdio_output@@V?$standard_base@_WV?$stream_output_adapter@_W@__crt_stdio_output@@@2@@__crt_stdio_output@@AAEXI_N@Z 10024477 f i libucrt:output.obj
 0001:00023504       ??$type_case_integer_parse_into_buffer@I$0BA@@?$output_processor@_WV?$string_output_adapter@_W@__crt_stdio_output@@V?$format_validation_base@_WV?$string_output_adapter@_W@__crt_stdio_output@@@2@@__crt_stdio_output@@AAEXI_N@Z 10024504 f i libucrt:output.obj
 0001:00023591       ??$type_case_integer_parse_into_buffer@I$0BA@@?$output_processor@_WV?$string_output_adapter@_W@__crt_stdio_output@@V?$positional_parameter_base@_WV?$string_output_adapter@_W@__crt_stdio_output@@@2@@__crt_stdio_output@@AAEXI_N@Z 10024591 f i libucrt:output.obj
 0001:0002361e       ??$type_case_integer_parse_into_buffer@I$0BA@@?$output_processor@_WV?$string_output_adapter@_W@__crt_stdio_output@@V?$standard_base@_WV?$string_output_adapter@_W@__crt_stdio_output@@@2@@__crt_stdio_output@@AAEXI_N@Z 1002461e f i libucrt:output.obj
 0001:000236ab       ??$type_case_integer_parse_into_buffer@_K$07@?$output_processor@DV?$stream_output_adapter@D@__crt_stdio_output@@V?$format_validation_base@DV?$stream_output_adapter@D@__crt_stdio_output@@@2@@__crt_stdio_output@@AAEX_K_N@Z 100246ab f i libucrt:output.obj
 0001:00023723       ??$type_case_integer_parse_into_buffer@_K$07@?$output_processor@DV?$stream_output_adapter@D@__crt_stdio_output@@V?$positional_parameter_base@DV?$stream_output_adapter@D@__crt_stdio_output@@@2@@__crt_stdio_output@@AAEX_K_N@Z 10024723 f i libucrt:output.obj
 0001:0002379b       ??$type_case_integer_parse_into_buffer@_K$07@?$output_processor@DV?$stream_output_adapter@D@__crt_stdio_output@@V?$standard_base@DV?$stream_output_adapter@D@__crt_stdio_output@@@2@@__crt_stdio_output@@AAEX_K_N@Z 1002479b f i libucrt:output.obj
 0001:00023813       ??$type_case_integer_parse_into_buffer@_K$07@?$output_processor@DV?$string_output_adapter@D@__crt_stdio_output@@V?$format_validation_base@DV?$string_output_adapter@D@__crt_stdio_output@@@2@@__crt_stdio_output@@AAEX_K_N@Z 10024813 f i libucrt:output.obj
 0001:0002388b       ??$type_case_integer_parse_into_buffer@_K$07@?$output_processor@DV?$string_output_adapter@D@__crt_stdio_output@@V?$positional_parameter_base@DV?$string_output_adapter@D@__crt_stdio_output@@@2@@__crt_stdio_output@@AAEX_K_N@Z 1002488b f i libucrt:output.obj
 0001:00023903       ??$type_case_integer_parse_into_buffer@_K$07@?$output_processor@DV?$string_output_adapter@D@__crt_stdio_output@@V?$standard_base@DV?$string_output_adapter@D@__crt_stdio_output@@@2@@__crt_stdio_output@@AAEX_K_N@Z 10024903 f i libucrt:output.obj
 0001:0002397b       ??$type_case_integer_parse_into_buffer@_K$07@?$output_processor@_WV?$stream_output_adapter@_W@__crt_stdio_output@@V?$format_validation_base@_WV?$stream_output_adapter@_W@__crt_stdio_output@@@2@@__crt_stdio_output@@AAEX_K_N@Z 1002497b f i libucrt:output.obj
 0001:00023a04       ??$type_case_integer_parse_into_buffer@_K$07@?$output_processor@_WV?$stream_output_adapter@_W@__crt_stdio_output@@V?$positional_parameter_base@_WV?$stream_output_adapter@_W@__crt_stdio_output@@@2@@__crt_stdio_output@@AAEX_K_N@Z 10024a04 f i libucrt:output.obj
 0001:00023a8d       ??$type_case_integer_parse_into_buffer@_K$07@?$output_processor@_WV?$stream_output_adapter@_W@__crt_stdio_output@@V?$standard_base@_WV?$stream_output_adapter@_W@__crt_stdio_output@@@2@@__crt_stdio_output@@AAEX_K_N@Z 10024a8d f i libucrt:output.obj
 0001:00023b16       ??$type_case_integer_parse_into_buffer@_K$07@?$output_processor@_WV?$string_output_adapter@_W@__crt_stdio_output@@V?$format_validation_base@_WV?$string_output_adapter@_W@__crt_stdio_output@@@2@@__crt_stdio_output@@AAEX_K_N@Z 10024b16 f i libucrt:output.obj
 0001:00023b9f       ??$type_case_integer_parse_into_buffer@_K$07@?$output_processor@_WV?$string_output_adapter@_W@__crt_stdio_output@@V?$positional_parameter_base@_WV?$string_output_adapter@_W@__crt_stdio_output@@@2@@__crt_stdio_output@@AAEX_K_N@Z 10024b9f f i libucrt:output.obj
 0001:00023c28       ??$type_case_integer_parse_into_buffer@_K$07@?$output_processor@_WV?$string_output_adapter@_W@__crt_stdio_output@@V?$standard_base@_WV?$string_output_adapter@_W@__crt_stdio_output@@@2@@__crt_stdio_output@@AAEX_K_N@Z 10024c28 f i libucrt:output.obj
 0001:00023cb1       ??$type_case_integer_parse_into_buffer@_K$09@?$output_processor@DV?$stream_output_adapter@D@__crt_stdio_output@@V?$format_validation_base@DV?$stream_output_adapter@D@__crt_stdio_output@@@2@@__crt_stdio_output@@AAEX_K_N@Z 10024cb1 f i libucrt:output.obj
 0001:00023d4d       ??$type_case_integer_parse_into_buffer@_K$09@?$output_processor@DV?$stream_output_adapter@D@__crt_stdio_output@@V?$positional_parameter_base@DV?$stream_output_adapter@D@__crt_stdio_output@@@2@@__crt_stdio_output@@AAEX_K_N@Z 10024d4d f i libucrt:output.obj
 0001:00023de9       ??$type_case_integer_parse_into_buffer@_K$09@?$output_processor@DV?$stream_output_adapter@D@__crt_stdio_output@@V?$standard_base@DV?$stream_output_adapter@D@__crt_stdio_output@@@2@@__crt_stdio_output@@AAEX_K_N@Z 10024de9 f i libucrt:output.obj
 0001:00023e85       ??$type_case_integer_parse_into_buffer@_K$09@?$output_processor@DV?$string_output_adapter@D@__crt_stdio_output@@V?$format_validation_base@DV?$string_output_adapter@D@__crt_stdio_output@@@2@@__crt_stdio_output@@AAEX_K_N@Z 10024e85 f i libucrt:output.obj
 0001:00023f21       ??$type_case_integer_parse_into_buffer@_K$09@?$output_processor@DV?$string_output_adapter@D@__crt_stdio_output@@V?$positional_parameter_base@DV?$string_output_adapter@D@__crt_stdio_output@@@2@@__crt_stdio_output@@AAEX_K_N@Z 10024f21 f i libucrt:output.obj
 0001:00023fbd       ??$type_case_integer_parse_into_buffer@_K$09@?$output_processor@DV?$string_output_adapter@D@__crt_stdio_output@@V?$standard_base@DV?$string_output_adapter@D@__crt_stdio_output@@@2@@__crt_stdio_output@@AAEX_K_N@Z 10024fbd f i libucrt:output.obj
 0001:00024059       ??$type_case_integer_parse_into_buffer@_K$09@?$output_processor@_WV?$stream_output_adapter@_W@__crt_stdio_output@@V?$format_validation_base@_WV?$stream_output_adapter@_W@__crt_stdio_output@@@2@@__crt_stdio_output@@AAEX_K_N@Z 10025059 f i libucrt:output.obj
 0001:00024108       ??$type_case_integer_parse_into_buffer@_K$09@?$output_processor@_WV?$stream_output_adapter@_W@__crt_stdio_output@@V?$positional_parameter_base@_WV?$stream_output_adapter@_W@__crt_stdio_output@@@2@@__crt_stdio_output@@AAEX_K_N@Z 10025108 f i libucrt:output.obj
 0001:000241b7       ??$type_case_integer_parse_into_buffer@_K$09@?$output_processor@_WV?$stream_output_adapter@_W@__crt_stdio_output@@V?$standard_base@_WV?$stream_output_adapter@_W@__crt_stdio_output@@@2@@__crt_stdio_output@@AAEX_K_N@Z 100251b7 f i libucrt:output.obj
 0001:00024266       ??$type_case_integer_parse_into_buffer@_K$09@?$output_processor@_WV?$string_output_adapter@_W@__crt_stdio_output@@V?$format_validation_base@_WV?$string_output_adapter@_W@__crt_stdio_output@@@2@@__crt_stdio_output@@AAEX_K_N@Z 10025266 f i libucrt:output.obj
 0001:00024315       ??$type_case_integer_parse_into_buffer@_K$09@?$output_processor@_WV?$string_output_adapter@_W@__crt_stdio_output@@V?$positional_parameter_base@_WV?$string_output_adapter@_W@__crt_stdio_output@@@2@@__crt_stdio_output@@AAEX_K_N@Z 10025315 f i libucrt:output.obj
 0001:000243c4       ??$type_case_integer_parse_into_buffer@_K$09@?$output_processor@_WV?$string_output_adapter@_W@__crt_stdio_output@@V?$standard_base@_WV?$string_output_adapter@_W@__crt_stdio_output@@@2@@__crt_stdio_output@@AAEX_K_N@Z 100253c4 f i libucrt:output.obj
 0001:00024473       ??$type_case_integer_parse_into_buffer@_K$0BA@@?$output_processor@DV?$stream_output_adapter@D@__crt_stdio_output@@V?$format_validation_base@DV?$stream_output_adapter@D@__crt_stdio_output@@@2@@__crt_stdio_output@@AAEX_K_N@Z 10025473 f i libucrt:output.obj
 0001:00024505       ??$type_case_integer_parse_into_buffer@_K$0BA@@?$output_processor@DV?$stream_output_adapter@D@__crt_stdio_output@@V?$positional_parameter_base@DV?$stream_output_adapter@D@__crt_stdio_output@@@2@@__crt_stdio_output@@AAEX_K_N@Z 10025505 f i libucrt:output.obj
 0001:00024597       ??$type_case_integer_parse_into_buffer@_K$0BA@@?$output_processor@DV?$stream_output_adapter@D@__crt_stdio_output@@V?$standard_base@DV?$stream_output_adapter@D@__crt_stdio_output@@@2@@__crt_stdio_output@@AAEX_K_N@Z 10025597 f i libucrt:output.obj
 0001:00024629       ??$type_case_integer_parse_into_buffer@_K$0BA@@?$output_processor@DV?$string_output_adapter@D@__crt_stdio_output@@V?$format_validation_base@DV?$string_output_adapter@D@__crt_stdio_output@@@2@@__crt_stdio_output@@AAEX_K_N@Z 10025629 f i libucrt:output.obj
 0001:000246bb       ??$type_case_integer_parse_into_buffer@_K$0BA@@?$output_processor@DV?$string_output_adapter@D@__crt_stdio_output@@V?$positional_parameter_base@DV?$string_output_adapter@D@__crt_stdio_output@@@2@@__crt_stdio_output@@AAEX_K_N@Z 100256bb f i libucrt:output.obj
 0001:0002474d       ??$type_case_integer_parse_into_buffer@_K$0BA@@?$output_processor@DV?$string_output_adapter@D@__crt_stdio_output@@V?$standard_base@DV?$string_output_adapter@D@__crt_stdio_output@@@2@@__crt_stdio_output@@AAEX_K_N@Z 1002574d f i libucrt:output.obj
 0001:000247df       ??$type_case_integer_parse_into_buffer@_K$0BA@@?$output_processor@_WV?$stream_output_adapter@_W@__crt_stdio_output@@V?$format_validation_base@_WV?$stream_output_adapter@_W@__crt_stdio_output@@@2@@__crt_stdio_output@@AAEX_K_N@Z 100257df f i libucrt:output.obj
 0001:0002487a       ??$type_case_integer_parse_into_buffer@_K$0BA@@?$output_processor@_WV?$stream_output_adapter@_W@__crt_stdio_output@@V?$positional_parameter_base@_WV?$stream_output_adapter@_W@__crt_stdio_output@@@2@@__crt_stdio_output@@AAEX_K_N@Z 1002587a f i libucrt:output.obj
 0001:00024915       ??$type_case_integer_parse_into_buffer@_K$0BA@@?$output_processor@_WV?$stream_output_adapter@_W@__crt_stdio_output@@V?$standard_base@_WV?$stream_output_adapter@_W@__crt_stdio_output@@@2@@__crt_stdio_output@@AAEX_K_N@Z 10025915 f i libucrt:output.obj
 0001:000249b0       ??$type_case_integer_parse_into_buffer@_K$0BA@@?$output_processor@_WV?$string_output_adapter@_W@__crt_stdio_output@@V?$format_validation_base@_WV?$string_output_adapter@_W@__crt_stdio_output@@@2@@__crt_stdio_output@@AAEX_K_N@Z 100259b0 f i libucrt:output.obj
 0001:00024a4b       ??$type_case_integer_parse_into_buffer@_K$0BA@@?$output_processor@_WV?$string_output_adapter@_W@__crt_stdio_output@@V?$positional_parameter_base@_WV?$string_output_adapter@_W@__crt_stdio_output@@@2@@__crt_stdio_output@@AAEX_K_N@Z 10025a4b f i libucrt:output.obj
 0001:00024ae6       ??$type_case_integer_parse_into_buffer@_K$0BA@@?$output_processor@_WV?$string_output_adapter@_W@__crt_stdio_output@@V?$standard_base@_WV?$string_output_adapter@_W@__crt_stdio_output@@@2@@__crt_stdio_output@@AAEX_K_N@Z 10025ae6 f i libucrt:output.obj
 0001:00024b81       ??$write_multiple_characters@V?$stream_output_adapter@D@__crt_stdio_output@@D@__crt_stdio_output@@YAXABV?$stream_output_adapter@D@0@DHQAHAAV__crt_cached_ptd_host@@@Z 10025b81 f i libucrt:output.obj
 0001:00024bb0       ??$write_multiple_characters@V?$stream_output_adapter@_W@__crt_stdio_output@@D@__crt_stdio_output@@YAXABV?$stream_output_adapter@_W@0@DHQAHAAV__crt_cached_ptd_host@@@Z 10025bb0 f i libucrt:output.obj
 0001:00024be4       ??$write_multiple_characters@V?$string_output_adapter@D@__crt_stdio_output@@D@__crt_stdio_output@@YAXABV?$string_output_adapter@D@0@DHQAHAAV__crt_cached_ptd_host@@@Z 10025be4 f i libucrt:output.obj
 0001:00024c45       ??$write_multiple_characters@V?$string_output_adapter@_W@__crt_stdio_output@@D@__crt_stdio_output@@YAXABV?$string_output_adapter@_W@0@DHQAHAAV__crt_cached_ptd_host@@@Z 10025c45 f i libucrt:output.obj
 0001:00024e72       ??0?$c_string_character_source@D@__crt_strtox@@QAE@QBDQAPBD@Z 10025e72 f i libucrt:output.obj
 0001:00024e8e       ??0?$c_string_character_source@_W@__crt_strtox@@QAE@QB_WQAPB_W@Z 10025e8e f i libucrt:output.obj
 0001:00024eaa       ??0?$common_data@D@__crt_stdio_output@@IAE@AAV__crt_cached_ptd_host@@@Z 10025eaa f i libucrt:output.obj
 0001:00024ef1       ??0?$common_data@_W@__crt_stdio_output@@IAE@AAV__crt_cached_ptd_host@@@Z 10025ef1 f i libucrt:output.obj
 0001:00024f3d       ??0?$output_adapter_data@DV?$stream_output_adapter@D@__crt_stdio_output@@@__crt_stdio_output@@IAE@ABV?$stream_output_adapter@D@1@_KQBDAAV__crt_cached_ptd_host@@QAD@Z 10025f3d f i libucrt:output.obj
 0001:00024fa4       ??0?$output_adapter_data@DV?$string_output_adapter@D@__crt_stdio_output@@@__crt_stdio_output@@IAE@ABV?$string_output_adapter@D@1@_KQBDAAV__crt_cached_ptd_host@@QAD@Z 10025fa4 f i libucrt:output.obj
 0001:0002500b       ??0?$output_adapter_data@_WV?$stream_output_adapter@_W@__crt_stdio_output@@@__crt_stdio_output@@IAE@ABV?$stream_output_adapter@_W@1@_KQB_WAAV__crt_cached_ptd_host@@QAD@Z 1002600b f i libucrt:output.obj
 0001:00025077       ??0?$output_adapter_data@_WV?$string_output_adapter@_W@__crt_stdio_output@@@__crt_stdio_output@@IAE@ABV?$string_output_adapter@_W@1@_KQB_WAAV__crt_cached_ptd_host@@QAD@Z 10026077 f i libucrt:output.obj
 0001:000250e3       ??0?$output_processor@DV?$stream_output_adapter@D@__crt_stdio_output@@V?$format_validation_base@DV?$stream_output_adapter@D@__crt_stdio_output@@@2@@__crt_stdio_output@@QAE@ABV?$stream_output_adapter@D@1@_KQBDAAV__crt_cached_ptd_host@@QAD@Z 100260e3 f i libucrt:output.obj
 0001:00025110       ??0?$output_processor@DV?$stream_output_adapter@D@__crt_stdio_output@@V?$positional_parameter_base@DV?$stream_output_adapter@D@__crt_stdio_output@@@2@@__crt_stdio_output@@QAE@ABV?$stream_output_adapter@D@1@_KQBDAAV__crt_cached_ptd_host@@QAD@Z 10026110 f i libucrt:output.obj
 0001:00025136       ??0?$output_processor@DV?$stream_output_adapter@D@__crt_stdio_output@@V?$standard_base@DV?$stream_output_adapter@D@__crt_stdio_output@@@2@@__crt_stdio_output@@QAE@ABV?$stream_output_adapter@D@1@_KQBDAAV__crt_cached_ptd_host@@QAD@Z 10026136 f i libucrt:output.obj
 0001:00025163       ??0?$output_processor@DV?$string_output_adapter@D@__crt_stdio_output@@V?$format_validation_base@DV?$string_output_adapter@D@__crt_stdio_output@@@2@@__crt_stdio_output@@QAE@ABV?$string_output_adapter@D@1@_KQBDAAV__crt_cached_ptd_host@@QAD@Z 10026163 f i libucrt:output.obj
 0001:00025190       ??0?$output_processor@DV?$string_output_adapter@D@__crt_stdio_output@@V?$positional_parameter_base@DV?$string_output_adapter@D@__crt_stdio_output@@@2@@__crt_stdio_output@@QAE@ABV?$string_output_adapter@D@1@_KQBDAAV__crt_cached_ptd_host@@QAD@Z 10026190 f i libucrt:output.obj
 0001:000251b6       ??0?$output_processor@DV?$string_output_adapter@D@__crt_stdio_output@@V?$standard_base@DV?$string_output_adapter@D@__crt_stdio_output@@@2@@__crt_stdio_output@@QAE@ABV?$string_output_adapter@D@1@_KQBDAAV__crt_cached_ptd_host@@QAD@Z 100261b6 f i libucrt:output.obj
 0001:000251e3       ??0?$output_processor@_WV?$stream_output_adapter@_W@__crt_stdio_output@@V?$format_validation_base@_WV?$stream_output_adapter@_W@__crt_stdio_output@@@2@@__crt_stdio_output@@QAE@ABV?$stream_output_adapter@_W@1@_KQB_WAAV__crt_cached_ptd_host@@QAD@Z 100261e3 f i libucrt:output.obj
 0001:00025210       ??0?$output_processor@_WV?$stream_output_adapter@_W@__crt_stdio_output@@V?$positional_parameter_base@_WV?$stream_output_adapter@_W@__crt_stdio_output@@@2@@__crt_stdio_output@@QAE@ABV?$stream_output_adapter@_W@1@_KQB_WAAV__crt_cached_ptd_host@@QAD@Z 10026210 f i libucrt:output.obj
 0001:00025236       ??0?$output_processor@_WV?$stream_output_adapter@_W@__crt_stdio_output@@V?$standard_base@_WV?$stream_output_adapter@_W@__crt_stdio_output@@@2@@__crt_stdio_output@@QAE@ABV?$stream_output_adapter@_W@1@_KQB_WAAV__crt_cached_ptd_host@@QAD@Z 10026236 f i libucrt:output.obj
 0001:00025263       ??0?$output_processor@_WV?$string_output_adapter@_W@__crt_stdio_output@@V?$format_validation_base@_WV?$string_output_adapter@_W@__crt_stdio_output@@@2@@__crt_stdio_output@@QAE@ABV?$string_output_adapter@_W@1@_KQB_WAAV__crt_cached_ptd_host@@QAD@Z 10026263 f i libucrt:output.obj
 0001:00025290       ??0?$output_processor@_WV?$string_output_adapter@_W@__crt_stdio_output@@V?$positional_parameter_base@_WV?$string_output_adapter@_W@__crt_stdio_output@@@2@@__crt_stdio_output@@QAE@ABV?$string_output_adapter@_W@1@_KQB_WAAV__crt_cached_ptd_host@@QAD@Z 10026290 f i libucrt:output.obj
 0001:000252b6       ??0?$output_processor@_WV?$string_output_adapter@_W@__crt_stdio_output@@V?$standard_base@_WV?$string_output_adapter@_W@__crt_stdio_output@@@2@@__crt_stdio_output@@QAE@ABV?$string_output_adapter@_W@1@_KQB_WAAV__crt_cached_ptd_host@@QAD@Z 100262b6 f i libucrt:output.obj
 0001:000252e3       ??0?$stream_output_adapter@D@__crt_stdio_output@@QAE@QAU_iobuf@@@Z 100262e3 f i libucrt:output.obj
 0001:000252f3       ??0?$stream_output_adapter@_W@__crt_stdio_output@@QAE@QAU_iobuf@@@Z 100262f3 f i libucrt:output.obj
 0001:00025303       ??0?$string_output_adapter@D@__crt_stdio_output@@QAE@QAU?$string_output_adapter_context@D@1@@Z 10026303 f i libucrt:output.obj
 0001:00025313       ??0?$string_output_adapter@_W@__crt_stdio_output@@QAE@QAU?$string_output_adapter_context@_W@1@@Z 10026313 f i libucrt:output.obj
 0001:00025323       ??0__acrt_stdio_temporary_buffering_guard@@QAE@QAU_iobuf@@AAV__crt_cached_ptd_host@@@Z 10026323 f i libucrt:output.obj
 0001:00025347       ??0__crt_stdio_stream@@QAE@QAU_iobuf@@@Z 10026347 f i libucrt:output.obj
 0001:00025357       ??0formatting_buffer@__crt_stdio_output@@QAE@XZ 10026357 f i libucrt:output.obj
 0001:00025368       ??0guard@?$cached@H@__crt_cached_ptd_host@@QAE@AAU12@@Z 10026368 f i libucrt:output.obj
 0001:00025387       ??1?$c_string_character_source@D@__crt_strtox@@QAE@XZ 10026387 f i libucrt:output.obj
 0001:00025393       ??1?$c_string_character_source@_W@__crt_strtox@@QAE@XZ 10026393 f i libucrt:output.obj
 0001:0002539f       ??1?$common_data@D@__crt_stdio_output@@QAE@XZ 1002639f f i libucrt:output.obj
 0001:000253a7       ??1?$common_data@_W@__crt_stdio_output@@QAE@XZ 100263a7 f i libucrt:output.obj
 0001:000253af       ??1?$format_validation_base@DV?$stream_output_adapter@D@__crt_stdio_output@@@__crt_stdio_output@@QAE@XZ 100263af f i libucrt:output.obj
 0001:000253b7       ??1?$format_validation_base@DV?$string_output_adapter@D@__crt_stdio_output@@@__crt_stdio_output@@QAE@XZ 100263b7 f i libucrt:output.obj
 0001:000253bf       ??1?$format_validation_base@_WV?$stream_output_adapter@_W@__crt_stdio_output@@@__crt_stdio_output@@QAE@XZ 100263bf f i libucrt:output.obj
 0001:000253c7       ??1?$format_validation_base@_WV?$string_output_adapter@_W@__crt_stdio_output@@@__crt_stdio_output@@QAE@XZ 100263c7 f i libucrt:output.obj
 0001:000253cf       ??1?$output_adapter_data@DV?$stream_output_adapter@D@__crt_stdio_output@@@__crt_stdio_output@@QAE@XZ 100263cf f i libucrt:output.obj
 0001:000253d7       ??1?$output_adapter_data@DV?$string_output_adapter@D@__crt_stdio_output@@@__crt_stdio_output@@QAE@XZ 100263d7 f i libucrt:output.obj
 0001:000253df       ??1?$output_adapter_data@_WV?$stream_output_adapter@_W@__crt_stdio_output@@@__crt_stdio_output@@QAE@XZ 100263df f i libucrt:output.obj
 0001:000253e7       ??1?$output_adapter_data@_WV?$string_output_adapter@_W@__crt_stdio_output@@@__crt_stdio_output@@QAE@XZ 100263e7 f i libucrt:output.obj
 0001:000253ef       ??1?$output_processor@DV?$stream_output_adapter@D@__crt_stdio_output@@V?$format_validation_base@DV?$stream_output_adapter@D@__crt_stdio_output@@@2@@__crt_stdio_output@@QAE@XZ 100263ef f i libucrt:output.obj
 0001:000253f7       ??1?$output_processor@DV?$stream_output_adapter@D@__crt_stdio_output@@V?$positional_parameter_base@DV?$stream_output_adapter@D@__crt_stdio_output@@@2@@__crt_stdio_output@@QAE@XZ 100263f7 f i libucrt:output.obj
 0001:000253ff       ??1?$output_processor@DV?$stream_output_adapter@D@__crt_stdio_output@@V?$standard_base@DV?$stream_output_adapter@D@__crt_stdio_output@@@2@@__crt_stdio_output@@QAE@XZ 100263ff f i libucrt:output.obj
 0001:00025407       ??1?$output_processor@DV?$string_output_adapter@D@__crt_stdio_output@@V?$format_validation_base@DV?$string_output_adapter@D@__crt_stdio_output@@@2@@__crt_stdio_output@@QAE@XZ 10026407 f i libucrt:output.obj
 0001:0002540f       ??1?$output_processor@DV?$string_output_adapter@D@__crt_stdio_output@@V?$positional_parameter_base@DV?$string_output_adapter@D@__crt_stdio_output@@@2@@__crt_stdio_output@@QAE@XZ 1002640f f i libucrt:output.obj
 0001:00025417       ??1?$output_processor@DV?$string_output_adapter@D@__crt_stdio_output@@V?$standard_base@DV?$string_output_adapter@D@__crt_stdio_output@@@2@@__crt_stdio_output@@QAE@XZ 10026417 f i libucrt:output.obj
 0001:0002541f       ??1?$output_processor@_WV?$stream_output_adapter@_W@__crt_stdio_output@@V?$format_validation_base@_WV?$stream_output_adapter@_W@__crt_stdio_output@@@2@@__crt_stdio_output@@QAE@XZ 1002641f f i libucrt:output.obj
 0001:00025427       ??1?$output_processor@_WV?$stream_output_adapter@_W@__crt_stdio_output@@V?$positional_parameter_base@_WV?$stream_output_adapter@_W@__crt_stdio_output@@@2@@__crt_stdio_output@@QAE@XZ 10026427 f i libucrt:output.obj
 0001:0002542f       ??1?$output_processor@_WV?$stream_output_adapter@_W@__crt_stdio_output@@V?$standard_base@_WV?$stream_output_adapter@_W@__crt_stdio_output@@@2@@__crt_stdio_output@@QAE@XZ 1002642f f i libucrt:output.obj
 0001:00025437       ??1?$output_processor@_WV?$string_output_adapter@_W@__crt_stdio_output@@V?$format_validation_base@_WV?$string_output_adapter@_W@__crt_stdio_output@@@2@@__crt_stdio_output@@QAE@XZ 10026437 f i libucrt:output.obj
 0001:0002543f       ??1?$output_processor@_WV?$string_output_adapter@_W@__crt_stdio_output@@V?$positional_parameter_base@_WV?$string_output_adapter@_W@__crt_stdio_output@@@2@@__crt_stdio_output@@QAE@XZ 1002643f f i libucrt:output.obj
 0001:00025447       ??1?$output_processor@_WV?$string_output_adapter@_W@__crt_stdio_output@@V?$standard_base@_WV?$string_output_adapter@_W@__crt_stdio_output@@@2@@__crt_stdio_output@@QAE@XZ 10026447 f i libucrt:output.obj
 0001:0002544f       ??1?$positional_parameter_base@DV?$stream_output_adapter@D@__crt_stdio_output@@@__crt_stdio_output@@QAE@XZ 1002644f f i libucrt:output.obj
 0001:00025457       ??1?$positional_parameter_base@DV?$string_output_adapter@D@__crt_stdio_output@@@__crt_stdio_output@@QAE@XZ 10026457 f i libucrt:output.obj
 0001:0002545f       ??1?$positional_parameter_base@_WV?$stream_output_adapter@_W@__crt_stdio_output@@@__crt_stdio_output@@QAE@XZ 1002645f f i libucrt:output.obj
 0001:00025467       ??1?$positional_parameter_base@_WV?$string_output_adapter@_W@__crt_stdio_output@@@__crt_stdio_output@@QAE@XZ 10026467 f i libucrt:output.obj
 0001:0002546f       ??1?$standard_base@DV?$stream_output_adapter@D@__crt_stdio_output@@@__crt_stdio_output@@QAE@XZ 1002646f f i libucrt:output.obj
 0001:00025477       ??1?$standard_base@DV?$string_output_adapter@D@__crt_stdio_output@@@__crt_stdio_output@@QAE@XZ 10026477 f i libucrt:output.obj
 0001:0002547f       ??1?$standard_base@_WV?$stream_output_adapter@_W@__crt_stdio_output@@@__crt_stdio_output@@QAE@XZ 1002647f f i libucrt:output.obj
 0001:00025487       ??1?$standard_base@_WV?$string_output_adapter@_W@__crt_stdio_output@@@__crt_stdio_output@@QAE@XZ 10026487 f i libucrt:output.obj
 0001:0002548f       ??1__acrt_stdio_temporary_buffering_guard@@QAE@XZ 1002648f f i libucrt:output.obj
 0001:000254a2       ??1formatting_buffer@__crt_stdio_output@@QAE@XZ 100264a2 f i libucrt:output.obj
 0001:000254bc       ??1guard@?$cached@H@__crt_cached_ptd_host@@QAE@XZ 100264bc f i libucrt:output.obj
 0001:000254d2       ??4?$__crt_unique_heap_ptr@DU__crt_internal_free_policy@@@@QAEAAV0@$$QAV0@@Z 100264d2 f i libucrt:output.obj
 0001:000254f6       ??A?$spectre_mitigated_lookup_table@Ustate_transition_pair@__crt_stdio_output@@$0IA@@__crt_stdio_output@@QBEABUstate_transition_pair@1@I@Z 100264f6 f i libucrt:output.obj
 0001:00025508       ??C__crt_stdio_stream@@QBEPAU__crt_stdio_stream_data@@XZ 10026508 f i libucrt:output.obj
 0001:00025971       ?adjust_hexit@?$output_processor@DV?$stream_output_adapter@D@__crt_stdio_output@@V?$format_validation_base@DV?$stream_output_adapter@D@__crt_stdio_output@@@2@@__crt_stdio_output@@CADH_N@Z 10026971 f i libucrt:output.obj
 0001:00025985       ?adjust_hexit@?$output_processor@DV?$stream_output_adapter@D@__crt_stdio_output@@V?$positional_parameter_base@DV?$stream_output_adapter@D@__crt_stdio_output@@@2@@__crt_stdio_output@@CADH_N@Z 10026985 f i libucrt:output.obj
 0001:00025999       ?adjust_hexit@?$output_processor@DV?$stream_output_adapter@D@__crt_stdio_output@@V?$standard_base@DV?$stream_output_adapter@D@__crt_stdio_output@@@2@@__crt_stdio_output@@CADH_N@Z 10026999 f i libucrt:output.obj
 0001:000259ad       ?adjust_hexit@?$output_processor@DV?$string_output_adapter@D@__crt_stdio_output@@V?$format_validation_base@DV?$string_output_adapter@D@__crt_stdio_output@@@2@@__crt_stdio_output@@CADH_N@Z 100269ad f i libucrt:output.obj
 0001:000259c1       ?adjust_hexit@?$output_processor@DV?$string_output_adapter@D@__crt_stdio_output@@V?$positional_parameter_base@DV?$string_output_adapter@D@__crt_stdio_output@@@2@@__crt_stdio_output@@CADH_N@Z 100269c1 f i libucrt:output.obj
 0001:000259d5       ?adjust_hexit@?$output_processor@DV?$string_output_adapter@D@__crt_stdio_output@@V?$standard_base@DV?$string_output_adapter@D@__crt_stdio_output@@@2@@__crt_stdio_output@@CADH_N@Z 100269d5 f i libucrt:output.obj
 0001:000259e9       ?adjust_hexit@?$output_processor@_WV?$stream_output_adapter@_W@__crt_stdio_output@@V?$format_validation_base@_WV?$stream_output_adapter@_W@__crt_stdio_output@@@2@@__crt_stdio_output@@CADH_N@Z 100269e9 f i libucrt:output.obj
 0001:000259fd       ?adjust_hexit@?$output_processor@_WV?$stream_output_adapter@_W@__crt_stdio_output@@V?$positional_parameter_base@_WV?$stream_output_adapter@_W@__crt_stdio_output@@@2@@__crt_stdio_output@@CADH_N@Z 100269fd f i libucrt:output.obj
 0001:00025a11       ?adjust_hexit@?$output_processor@_WV?$stream_output_adapter@_W@__crt_stdio_output@@V?$standard_base@_WV?$stream_output_adapter@_W@__crt_stdio_output@@@2@@__crt_stdio_output@@CADH_N@Z 10026a11 f i libucrt:output.obj
 0001:00025a25       ?adjust_hexit@?$output_processor@_WV?$string_output_adapter@_W@__crt_stdio_output@@V?$format_validation_base@_WV?$string_output_adapter@_W@__crt_stdio_output@@@2@@__crt_stdio_output@@CADH_N@Z 10026a25 f i libucrt:output.obj
 0001:00025a39       ?adjust_hexit@?$output_processor@_WV?$string_output_adapter@_W@__crt_stdio_output@@V?$positional_parameter_base@_WV?$string_output_adapter@_W@__crt_stdio_output@@@2@@__crt_stdio_output@@CADH_N@Z 10026a39 f i libucrt:output.obj
 0001:00025a4d       ?adjust_hexit@?$output_processor@_WV?$string_output_adapter@_W@__crt_stdio_output@@V?$standard_base@_WV?$string_output_adapter@_W@__crt_stdio_output@@@2@@__crt_stdio_output@@CADH_N@Z 10026a4d f i libucrt:output.obj
 0001:00025a61       ?advance_to_next_pass@?$positional_parameter_base@DV?$stream_output_adapter@D@__crt_stdio_output@@@__crt_stdio_output@@IAE_NXZ 10026a61 f i libucrt:output.obj
 0001:00025aad       ?advance_to_next_pass@?$positional_parameter_base@DV?$string_output_adapter@D@__crt_stdio_output@@@__crt_stdio_output@@IAE_NXZ 10026aad f i libucrt:output.obj
 0001:00025af9       ?advance_to_next_pass@?$positional_parameter_base@_WV?$stream_output_adapter@_W@__crt_stdio_output@@@__crt_stdio_output@@IAE_NXZ 10026af9 f i libucrt:output.obj
 0001:00025b45       ?advance_to_next_pass@?$positional_parameter_base@_WV?$string_output_adapter@_W@__crt_stdio_output@@@__crt_stdio_output@@IAE_NXZ 10026b45 f i libucrt:output.obj
 0001:00025b91       ?advance_to_next_pass@?$standard_base@DV?$stream_output_adapter@D@__crt_stdio_output@@@__crt_stdio_output@@IAE_NXZ 10026b91 f i libucrt:output.obj
 0001:00025ba2       ?advance_to_next_pass@?$standard_base@DV?$string_output_adapter@D@__crt_stdio_output@@@__crt_stdio_output@@IAE_NXZ 10026ba2 f i libucrt:output.obj
 0001:00025bb3       ?advance_to_next_pass@?$standard_base@_WV?$stream_output_adapter@_W@__crt_stdio_output@@@__crt_stdio_output@@IAE_NXZ 10026bb3 f i libucrt:output.obj
 0001:00025bc4       ?advance_to_next_pass@?$standard_base@_WV?$string_output_adapter@_W@__crt_stdio_output@@@__crt_stdio_output@@IAE_NXZ 10026bc4 f i libucrt:output.obj
 0001:00025bd5       ?check@?$cached@H@__crt_cached_ptd_host@@QBE_NH@Z 10026bd5 f i libucrt:output.obj
 0001:00025bf1       ?create_guard@?$cached@H@__crt_cached_ptd_host@@QAE?AVguard@12@XZ 10026bf1 f i libucrt:output.obj
 0001:00025c0e       ?crop_zeroes@__crt_stdio_output@@YAXPADQAU__crt_locale_pointers@@@Z 10026c0e f i libucrt:output.obj
 0001:00025c6e       ?disable@guard@?$cached@H@__crt_cached_ptd_host@@QAEXXZ 10026c6e f i libucrt:output.obj
 0001:00025c73       ?enable@guard@?$cached@H@__crt_cached_ptd_host@@QAEXXZ 10026c73 f i libucrt:output.obj
 0001:00025c78       ?find_next_state@?$output_processor@DV?$stream_output_adapter@D@__crt_stdio_output@@V?$format_validation_base@DV?$stream_output_adapter@D@__crt_stdio_output@@@2@@__crt_stdio_output@@ABE?AW4state@2@DW432@@Z 10026c78 f i libucrt:output.obj
 0001:00025cb5       ?find_next_state@?$output_processor@DV?$stream_output_adapter@D@__crt_stdio_output@@V?$positional_parameter_base@DV?$stream_output_adapter@D@__crt_stdio_output@@@2@@__crt_stdio_output@@ABE?AW4state@2@DW432@@Z 10026cb5 f i libucrt:output.obj
 0001:00025cf2       ?find_next_state@?$output_processor@DV?$stream_output_adapter@D@__crt_stdio_output@@V?$standard_base@DV?$stream_output_adapter@D@__crt_stdio_output@@@2@@__crt_stdio_output@@ABE?AW4state@2@DW432@@Z 10026cf2 f i libucrt:output.obj
 0001:00025d2d       ?find_next_state@?$output_processor@DV?$string_output_adapter@D@__crt_stdio_output@@V?$format_validation_base@DV?$string_output_adapter@D@__crt_stdio_output@@@2@@__crt_stdio_output@@ABE?AW4state@2@DW432@@Z 10026d2d f i libucrt:output.obj
 0001:00025d6a       ?find_next_state@?$output_processor@DV?$string_output_adapter@D@__crt_stdio_output@@V?$positional_parameter_base@DV?$string_output_adapter@D@__crt_stdio_output@@@2@@__crt_stdio_output@@ABE?AW4state@2@DW432@@Z 10026d6a f i libucrt:output.obj
 0001:00025da7       ?find_next_state@?$output_processor@DV?$string_output_adapter@D@__crt_stdio_output@@V?$standard_base@DV?$string_output_adapter@D@__crt_stdio_output@@@2@@__crt_stdio_output@@ABE?AW4state@2@DW432@@Z 10026da7 f i libucrt:output.obj
 0001:00025de2       ?find_next_state@?$output_processor@_WV?$stream_output_adapter@_W@__crt_stdio_output@@V?$format_validation_base@_WV?$stream_output_adapter@_W@__crt_stdio_output@@@2@@__crt_stdio_output@@ABE?AW4state@2@_WW432@@Z 10026de2 f i libucrt:output.obj
 0001:00025e1e       ?find_next_state@?$output_processor@_WV?$stream_output_adapter@_W@__crt_stdio_output@@V?$positional_parameter_base@_WV?$stream_output_adapter@_W@__crt_stdio_output@@@2@@__crt_stdio_output@@ABE?AW4state@2@_WW432@@Z 10026e1e f i libucrt:output.obj
 0001:00025e5a       ?find_next_state@?$output_processor@_WV?$stream_output_adapter@_W@__crt_stdio_output@@V?$standard_base@_WV?$stream_output_adapter@_W@__crt_stdio_output@@@2@@__crt_stdio_output@@ABE?AW4state@2@_WW432@@Z 10026e5a f i libucrt:output.obj
 0001:00025e94       ?find_next_state@?$output_processor@_WV?$string_output_adapter@_W@__crt_stdio_output@@V?$format_validation_base@_WV?$string_output_adapter@_W@__crt_stdio_output@@@2@@__crt_stdio_output@@ABE?AW4state@2@_WW432@@Z 10026e94 f i libucrt:output.obj
 0001:00025ed0       ?find_next_state@?$output_processor@_WV?$string_output_adapter@_W@__crt_stdio_output@@V?$positional_parameter_base@_WV?$string_output_adapter@_W@__crt_stdio_output@@@2@@__crt_stdio_output@@ABE?AW4state@2@_WW432@@Z 10026ed0 f i libucrt:output.obj
 0001:00025f0c       ?find_next_state@?$output_processor@_WV?$string_output_adapter@_W@__crt_stdio_output@@V?$standard_base@_WV?$string_output_adapter@_W@__crt_stdio_output@@@2@@__crt_stdio_output@@ABE?AW4state@2@_WW432@@Z 10026f0c f i libucrt:output.obj
 0001:00025f46       ?force_decimal_point@__crt_stdio_output@@YAXPADQAU__crt_locale_pointers@@@Z 10026f46 f i libucrt:output.obj
 0001:00025fa2       ?get@?$c_string_character_source@D@__crt_strtox@@QAEDXZ 10026fa2 f i libucrt:output.obj
 0001:00025faa       ?get@?$c_string_character_source@_W@__crt_strtox@@QAE_WXZ 10026faa f i libucrt:output.obj
 0001:00025fb5       ?get_flags@__crt_stdio_stream@@QBEJXZ 10026fb5 f i libucrt:output.obj
 0001:00025fc0       ?get_locale@__crt_cached_ptd_host@@QAEPAU__crt_locale_pointers@@XZ 10026fc0 f i libucrt:output.obj
 0001:00025fd5       ?get_parameter_type@?$positional_parameter_base@DV?$stream_output_adapter@D@__crt_stdio_output@@@__crt_stdio_output@@CA?AW4parameter_type@12@F@Z 10026fd5 f i libucrt:output.obj
 0001:00025fd9       ?get_parameter_type@?$positional_parameter_base@DV?$stream_output_adapter@D@__crt_stdio_output@@@__crt_stdio_output@@CA?AW4parameter_type@12@G@Z 10026fd9 f i libucrt:output.obj
 0001:00025fdd       ?get_parameter_type@?$positional_parameter_base@DV?$stream_output_adapter@D@__crt_stdio_output@@@__crt_stdio_output@@CA?AW4parameter_type@12@H@Z 10026fdd f i libucrt:output.obj
 0001:00025fe1       ?get_parameter_type@?$positional_parameter_base@DV?$stream_output_adapter@D@__crt_stdio_output@@@__crt_stdio_output@@CA?AW4parameter_type@12@I@Z 10026fe1 f i libucrt:output.obj
 0001:00025fe5       ?get_parameter_type@?$positional_parameter_base@DV?$stream_output_adapter@D@__crt_stdio_output@@@__crt_stdio_output@@CA?AW4parameter_type@12@U_CRT_DOUBLE@@@Z 10026fe5 f i libucrt:output.obj
 0001:00025fe9       ?get_parameter_type@?$positional_parameter_base@DV?$stream_output_adapter@D@__crt_stdio_output@@@__crt_stdio_output@@CA?AW4parameter_type@12@_J@Z 10026fe9 f i libucrt:output.obj
 0001:00025fed       ?get_parameter_type@?$positional_parameter_base@DV?$stream_output_adapter@D@__crt_stdio_output@@@__crt_stdio_output@@CA?AW4parameter_type@12@_K@Z 10026fed f i libucrt:output.obj
 0001:00025ff1       ?get_parameter_type@?$positional_parameter_base@DV?$stream_output_adapter@D@__crt_stdio_output@@@__crt_stdio_output@@CA?AW4parameter_type@12@_W@Z 10026ff1 f i libucrt:output.obj
 0001:00025ff5       ?get_parameter_type@?$positional_parameter_base@DV?$string_output_adapter@D@__crt_stdio_output@@@__crt_stdio_output@@CA?AW4parameter_type@12@F@Z 10026ff5 f i libucrt:output.obj
 0001:00025ff9       ?get_parameter_type@?$positional_parameter_base@DV?$string_output_adapter@D@__crt_stdio_output@@@__crt_stdio_output@@CA?AW4parameter_type@12@G@Z 10026ff9 f i libucrt:output.obj
 0001:00025ffd       ?get_parameter_type@?$positional_parameter_base@DV?$string_output_adapter@D@__crt_stdio_output@@@__crt_stdio_output@@CA?AW4parameter_type@12@H@Z 10026ffd f i libucrt:output.obj
 0001:00026001       ?get_parameter_type@?$positional_parameter_base@DV?$string_output_adapter@D@__crt_stdio_output@@@__crt_stdio_output@@CA?AW4parameter_type@12@I@Z 10027001 f i libucrt:output.obj
 0001:00026005       ?get_parameter_type@?$positional_parameter_base@DV?$string_output_adapter@D@__crt_stdio_output@@@__crt_stdio_output@@CA?AW4parameter_type@12@U_CRT_DOUBLE@@@Z 10027005 f i libucrt:output.obj
 0001:00026009       ?get_parameter_type@?$positional_parameter_base@DV?$string_output_adapter@D@__crt_stdio_output@@@__crt_stdio_output@@CA?AW4parameter_type@12@_J@Z 10027009 f i libucrt:output.obj
 0001:0002600d       ?get_parameter_type@?$positional_parameter_base@DV?$string_output_adapter@D@__crt_stdio_output@@@__crt_stdio_output@@CA?AW4parameter_type@12@_K@Z 1002700d f i libucrt:output.obj
 0001:00026011       ?get_parameter_type@?$positional_parameter_base@DV?$string_output_adapter@D@__crt_stdio_output@@@__crt_stdio_output@@CA?AW4parameter_type@12@_W@Z 10027011 f i libucrt:output.obj
 0001:00026015       ?get_parameter_type@?$positional_parameter_base@_WV?$stream_output_adapter@_W@__crt_stdio_output@@@__crt_stdio_output@@CA?AW4parameter_type@12@F@Z 10027015 f i libucrt:output.obj
 0001:00026019       ?get_parameter_type@?$positional_parameter_base@_WV?$stream_output_adapter@_W@__crt_stdio_output@@@__crt_stdio_output@@CA?AW4parameter_type@12@G@Z 10027019 f i libucrt:output.obj
 0001:0002601d       ?get_parameter_type@?$positional_parameter_base@_WV?$stream_output_adapter@_W@__crt_stdio_output@@@__crt_stdio_output@@CA?AW4parameter_type@12@H@Z 1002701d f i libucrt:output.obj
 0001:00026021       ?get_parameter_type@?$positional_parameter_base@_WV?$stream_output_adapter@_W@__crt_stdio_output@@@__crt_stdio_output@@CA?AW4parameter_type@12@I@Z 10027021 f i libucrt:output.obj
 0001:00026025       ?get_parameter_type@?$positional_parameter_base@_WV?$stream_output_adapter@_W@__crt_stdio_output@@@__crt_stdio_output@@CA?AW4parameter_type@12@U_CRT_DOUBLE@@@Z 10027025 f i libucrt:output.obj
 0001:00026029       ?get_parameter_type@?$positional_parameter_base@_WV?$stream_output_adapter@_W@__crt_stdio_output@@@__crt_stdio_output@@CA?AW4parameter_type@12@_J@Z 10027029 f i libucrt:output.obj
 0001:0002602d       ?get_parameter_type@?$positional_parameter_base@_WV?$stream_output_adapter@_W@__crt_stdio_output@@@__crt_stdio_output@@CA?AW4parameter_type@12@_K@Z 1002702d f i libucrt:output.obj
 0001:00026031       ?get_parameter_type@?$positional_parameter_base@_WV?$stream_output_adapter@_W@__crt_stdio_output@@@__crt_stdio_output@@CA?AW4parameter_type@12@_W@Z 10027031 f i libucrt:output.obj
 0001:00026035       ?get_parameter_type@?$positional_parameter_base@_WV?$string_output_adapter@_W@__crt_stdio_output@@@__crt_stdio_output@@CA?AW4parameter_type@12@F@Z 10027035 f i libucrt:output.obj
 0001:00026039       ?get_parameter_type@?$positional_parameter_base@_WV?$string_output_adapter@_W@__crt_stdio_output@@@__crt_stdio_output@@CA?AW4parameter_type@12@G@Z 10027039 f i libucrt:output.obj
 0001:0002603d       ?get_parameter_type@?$positional_parameter_base@_WV?$string_output_adapter@_W@__crt_stdio_output@@@__crt_stdio_output@@CA?AW4parameter_type@12@H@Z 1002703d f i libucrt:output.obj
 0001:00026041       ?get_parameter_type@?$positional_parameter_base@_WV?$string_output_adapter@_W@__crt_stdio_output@@@__crt_stdio_output@@CA?AW4parameter_type@12@I@Z 10027041 f i libucrt:output.obj
 0001:00026045       ?get_parameter_type@?$positional_parameter_base@_WV?$string_output_adapter@_W@__crt_stdio_output@@@__crt_stdio_output@@CA?AW4parameter_type@12@U_CRT_DOUBLE@@@Z 10027045 f i libucrt:output.obj
 0001:00026049       ?get_parameter_type@?$positional_parameter_base@_WV?$string_output_adapter@_W@__crt_stdio_output@@@__crt_stdio_output@@CA?AW4parameter_type@12@_J@Z 10027049 f i libucrt:output.obj
 0001:0002604d       ?get_parameter_type@?$positional_parameter_base@_WV?$string_output_adapter@_W@__crt_stdio_output@@@__crt_stdio_output@@CA?AW4parameter_type@12@_K@Z 1002704d f i libucrt:output.obj
 0001:00026051       ?get_parameter_type@?$positional_parameter_base@_WV?$string_output_adapter@_W@__crt_stdio_output@@@__crt_stdio_output@@CA?AW4parameter_type@12@_W@Z 10027051 f i libucrt:output.obj
 0001:00026055       ?has_flag@?$output_processor@DV?$stream_output_adapter@D@__crt_stdio_output@@V?$format_validation_base@DV?$stream_output_adapter@D@__crt_stdio_output@@@2@@__crt_stdio_output@@ABE_NI@Z 10027055 f i libucrt:output.obj
 0001:00026067       ?has_flag@?$output_processor@DV?$stream_output_adapter@D@__crt_stdio_output@@V?$positional_parameter_base@DV?$stream_output_adapter@D@__crt_stdio_output@@@2@@__crt_stdio_output@@ABE_NI@Z 10027067 f i libucrt:output.obj
 0001:00026079       ?has_flag@?$output_processor@DV?$stream_output_adapter@D@__crt_stdio_output@@V?$standard_base@DV?$stream_output_adapter@D@__crt_stdio_output@@@2@@__crt_stdio_output@@ABE_NI@Z 10027079 f i libucrt:output.obj
 0001:0002608b       ?has_flag@?$output_processor@DV?$string_output_adapter@D@__crt_stdio_output@@V?$format_validation_base@DV?$string_output_adapter@D@__crt_stdio_output@@@2@@__crt_stdio_output@@ABE_NI@Z 1002708b f i libucrt:output.obj
 0001:0002609d       ?has_flag@?$output_processor@DV?$string_output_adapter@D@__crt_stdio_output@@V?$positional_parameter_base@DV?$string_output_adapter@D@__crt_stdio_output@@@2@@__crt_stdio_output@@ABE_NI@Z 1002709d f i libucrt:output.obj
 0001:000260af       ?has_flag@?$output_processor@DV?$string_output_adapter@D@__crt_stdio_output@@V?$standard_base@DV?$string_output_adapter@D@__crt_stdio_output@@@2@@__crt_stdio_output@@ABE_NI@Z 100270af f i libucrt:output.obj
 0001:000260c1       ?has_flag@?$output_processor@_WV?$stream_output_adapter@_W@__crt_stdio_output@@V?$format_validation_base@_WV?$stream_output_adapter@_W@__crt_stdio_output@@@2@@__crt_stdio_output@@ABE_NI@Z 100270c1 f i libucrt:output.obj
 0001:000260d3       ?has_flag@?$output_processor@_WV?$stream_output_adapter@_W@__crt_stdio_output@@V?$positional_parameter_base@_WV?$stream_output_adapter@_W@__crt_stdio_output@@@2@@__crt_stdio_output@@ABE_NI@Z 100270d3 f i libucrt:output.obj
 0001:000260e5       ?has_flag@?$output_processor@_WV?$stream_output_adapter@_W@__crt_stdio_output@@V?$standard_base@_WV?$stream_output_adapter@_W@__crt_stdio_output@@@2@@__crt_stdio_output@@ABE_NI@Z 100270e5 f i libucrt:output.obj
 0001:000260f7       ?has_flag@?$output_processor@_WV?$string_output_adapter@_W@__crt_stdio_output@@V?$format_validation_base@_WV?$string_output_adapter@_W@__crt_stdio_output@@@2@@__crt_stdio_output@@ABE_NI@Z 100270f7 f i libucrt:output.obj
 0001:00026109       ?has_flag@?$output_processor@_WV?$string_output_adapter@_W@__crt_stdio_output@@V?$positional_parameter_base@_WV?$string_output_adapter@_W@__crt_stdio_output@@@2@@__crt_stdio_output@@ABE_NI@Z 10027109 f i libucrt:output.obj
 0001:0002611b       ?has_flag@?$output_processor@_WV?$string_output_adapter@_W@__crt_stdio_output@@V?$standard_base@_WV?$string_output_adapter@_W@__crt_stdio_output@@@2@@__crt_stdio_output@@ABE_NI@Z 1002711b f i libucrt:output.obj
 0001:0002612d       ?is_positional_parameter_reappearance_consistent@?$positional_parameter_base@DV?$stream_output_adapter@D@__crt_stdio_output@@@__crt_stdio_output@@AAE_NABUparameter_data@12@W4parameter_type@12@DW4length_modifier@2@@Z 1002712d f i libucrt:output.obj
 0001:00026247       ?is_positional_parameter_reappearance_consistent@?$positional_parameter_base@DV?$string_output_adapter@D@__crt_stdio_output@@@__crt_stdio_output@@AAE_NABUparameter_data@12@W4parameter_type@12@DW4length_modifier@2@@Z 10027247 f i libucrt:output.obj
 0001:00026361       ?is_positional_parameter_reappearance_consistent@?$positional_parameter_base@_WV?$stream_output_adapter@_W@__crt_stdio_output@@@__crt_stdio_output@@AAE_NABUparameter_data@12@W4parameter_type@12@_WW4length_modifier@2@@Z 10027361 f i libucrt:output.obj
 0001:0002647c       ?is_positional_parameter_reappearance_consistent@?$positional_parameter_base@_WV?$string_output_adapter@_W@__crt_stdio_output@@@__crt_stdio_output@@AAE_NABUparameter_data@12@W4parameter_type@12@_WW4length_modifier@2@@Z 1002747c f i libucrt:output.obj
 0001:00026597       ?is_string_backed@__crt_stdio_stream@@QBE_NXZ 10027597 f i libucrt:output.obj
 0001:000265a3       ?maximum_signed_value@__crt_strtox@@YAJK@Z 100275a3 f i libucrt:output.obj
 0001:000265a9       ?minimum_signed_value@__crt_strtox@@YAJK@Z 100275a9 f i libucrt:output.obj
 0001:000265af       ?narrow_null_string@?$output_processor@DV?$stream_output_adapter@D@__crt_stdio_output@@V?$format_validation_base@DV?$stream_output_adapter@D@__crt_stdio_output@@@2@@__crt_stdio_output@@CAPADXZ 100275af f i libucrt:output.obj
 0001:000265b5       ?narrow_null_string@?$output_processor@DV?$stream_output_adapter@D@__crt_stdio_output@@V?$positional_parameter_base@DV?$stream_output_adapter@D@__crt_stdio_output@@@2@@__crt_stdio_output@@CAPADXZ 100275b5 f i libucrt:output.obj
 0001:000265bb       ?narrow_null_string@?$output_processor@DV?$stream_output_adapter@D@__crt_stdio_output@@V?$standard_base@DV?$stream_output_adapter@D@__crt_stdio_output@@@2@@__crt_stdio_output@@CAPADXZ 100275bb f i libucrt:output.obj
 0001:000265c1       ?narrow_null_string@?$output_processor@DV?$string_output_adapter@D@__crt_stdio_output@@V?$format_validation_base@DV?$string_output_adapter@D@__crt_stdio_output@@@2@@__crt_stdio_output@@CAPADXZ 100275c1 f i libucrt:output.obj
 0001:000265c7       ?narrow_null_string@?$output_processor@DV?$string_output_adapter@D@__crt_stdio_output@@V?$positional_parameter_base@DV?$string_output_adapter@D@__crt_stdio_output@@@2@@__crt_stdio_output@@CAPADXZ 100275c7 f i libucrt:output.obj
 0001:000265cd       ?narrow_null_string@?$output_processor@DV?$string_output_adapter@D@__crt_stdio_output@@V?$standard_base@DV?$string_output_adapter@D@__crt_stdio_output@@@2@@__crt_stdio_output@@CAPADXZ 100275cd f i libucrt:output.obj
 0001:000265d3       ?narrow_null_string@?$output_processor@_WV?$stream_output_adapter@_W@__crt_stdio_output@@V?$format_validation_base@_WV?$stream_output_adapter@_W@__crt_stdio_output@@@2@@__crt_stdio_output@@CAPADXZ 100275d3 f i libucrt:output.obj
 0001:000265d9       ?narrow_null_string@?$output_processor@_WV?$stream_output_adapter@_W@__crt_stdio_output@@V?$positional_parameter_base@_WV?$stream_output_adapter@_W@__crt_stdio_output@@@2@@__crt_stdio_output@@CAPADXZ 100275d9 f i libucrt:output.obj
 0001:000265df       ?narrow_null_string@?$output_processor@_WV?$stream_output_adapter@_W@__crt_stdio_output@@V?$standard_base@_WV?$stream_output_adapter@_W@__crt_stdio_output@@@2@@__crt_stdio_output@@CAPADXZ 100275df f i libucrt:output.obj
 0001:000265e5       ?narrow_null_string@?$output_processor@_WV?$string_output_adapter@_W@__crt_stdio_output@@V?$format_validation_base@_WV?$string_output_adapter@_W@__crt_stdio_output@@@2@@__crt_stdio_output@@CAPADXZ 100275e5 f i libucrt:output.obj
 0001:000265eb       ?narrow_null_string@?$output_processor@_WV?$string_output_adapter@_W@__crt_stdio_output@@V?$positional_parameter_base@_WV?$string_output_adapter@_W@__crt_stdio_output@@@2@@__crt_stdio_output@@CAPADXZ 100275eb f i libucrt:output.obj
 0001:000265f1       ?narrow_null_string@?$output_processor@_WV?$string_output_adapter@_W@__crt_stdio_output@@V?$standard_base@_WV?$string_output_adapter@_W@__crt_stdio_output@@@2@@__crt_stdio_output@@CAPADXZ 100275f1 f i libucrt:output.obj
 0001:000265f7       ?parse_digit@__crt_strtox@@YAID@Z 100275f7 f i libucrt:output.obj
 0001:00026631       ?parse_digit@__crt_strtox@@YAI_W@Z 10027631 f i libucrt:output.obj
 0001:000267f9       ?parse_int_from_format_string@?$output_processor@DV?$stream_output_adapter@D@__crt_stdio_output@@V?$format_validation_base@DV?$stream_output_adapter@D@__crt_stdio_output@@@2@@__crt_stdio_output@@AAE_NQAH@Z 100277f9 f i libucrt:output.obj
 0001:00026871       ?parse_int_from_format_string@?$output_processor@DV?$stream_output_adapter@D@__crt_stdio_output@@V?$positional_parameter_base@DV?$stream_output_adapter@D@__crt_stdio_output@@@2@@__crt_stdio_output@@AAE_NQAH@Z 10027871 f i libucrt:output.obj
 0001:000268e9       ?parse_int_from_format_string@?$output_processor@DV?$stream_output_adapter@D@__crt_stdio_output@@V?$standard_base@DV?$stream_output_adapter@D@__crt_stdio_output@@@2@@__crt_stdio_output@@AAE_NQAH@Z 100278e9 f i libucrt:output.obj
 0001:00026961       ?parse_int_from_format_string@?$output_processor@DV?$string_output_adapter@D@__crt_stdio_output@@V?$format_validation_base@DV?$string_output_adapter@D@__crt_stdio_output@@@2@@__crt_stdio_output@@AAE_NQAH@Z 10027961 f i libucrt:output.obj
 0001:000269d9       ?parse_int_from_format_string@?$output_processor@DV?$string_output_adapter@D@__crt_stdio_output@@V?$positional_parameter_base@DV?$string_output_adapter@D@__crt_stdio_output@@@2@@__crt_stdio_output@@AAE_NQAH@Z 100279d9 f i libucrt:output.obj
 0001:00026a51       ?parse_int_from_format_string@?$output_processor@DV?$string_output_adapter@D@__crt_stdio_output@@V?$standard_base@DV?$string_output_adapter@D@__crt_stdio_output@@@2@@__crt_stdio_output@@AAE_NQAH@Z 10027a51 f i libucrt:output.obj
 0001:00026ac9       ?parse_int_from_format_string@?$output_processor@_WV?$stream_output_adapter@_W@__crt_stdio_output@@V?$format_validation_base@_WV?$stream_output_adapter@_W@__crt_stdio_output@@@2@@__crt_stdio_output@@AAE_NQAH@Z 10027ac9 f i libucrt:output.obj
 0001:00026b43       ?parse_int_from_format_string@?$output_processor@_WV?$stream_output_adapter@_W@__crt_stdio_output@@V?$positional_parameter_base@_WV?$stream_output_adapter@_W@__crt_stdio_output@@@2@@__crt_stdio_output@@AAE_NQAH@Z 10027b43 f i libucrt:output.obj
 0001:00026bbd       ?parse_int_from_format_string@?$output_processor@_WV?$stream_output_adapter@_W@__crt_stdio_output@@V?$standard_base@_WV?$stream_output_adapter@_W@__crt_stdio_output@@@2@@__crt_stdio_output@@AAE_NQAH@Z 10027bbd f i libucrt:output.obj
 0001:00026c37       ?parse_int_from_format_string@?$output_processor@_WV?$string_output_adapter@_W@__crt_stdio_output@@V?$format_validation_base@_WV?$string_output_adapter@_W@__crt_stdio_output@@@2@@__crt_stdio_output@@AAE_NQAH@Z 10027c37 f i libucrt:output.obj
 0001:00026cb1       ?parse_int_from_format_string@?$output_processor@_WV?$string_output_adapter@_W@__crt_stdio_output@@V?$positional_parameter_base@_WV?$string_output_adapter@_W@__crt_stdio_output@@@2@@__crt_stdio_output@@AAE_NQAH@Z 10027cb1 f i libucrt:output.obj
 0001:00026d2b       ?parse_int_from_format_string@?$output_processor@_WV?$string_output_adapter@_W@__crt_stdio_output@@V?$standard_base@_WV?$string_output_adapter@_W@__crt_stdio_output@@@2@@__crt_stdio_output@@AAE_NQAH@Z 10027d2b f i libucrt:output.obj
 0001:00026da5       ?process@?$output_processor@DV?$stream_output_adapter@D@__crt_stdio_output@@V?$format_validation_base@DV?$stream_output_adapter@D@__crt_stdio_output@@@2@@__crt_stdio_output@@QAEHXZ 10027da5 f i libucrt:output.obj
 0001:0002705d       ?process@?$output_processor@DV?$stream_output_adapter@D@__crt_stdio_output@@V?$positional_parameter_base@DV?$stream_output_adapter@D@__crt_stdio_output@@@2@@__crt_stdio_output@@QAEHXZ 1002805d f i libucrt:output.obj
 0001:00027331       ?process@?$output_processor@DV?$stream_output_adapter@D@__crt_stdio_output@@V?$standard_base@DV?$stream_output_adapter@D@__crt_stdio_output@@@2@@__crt_stdio_output@@QAEHXZ 10028331 f i libucrt:output.obj
 0001:000275dd       ?process@?$output_processor@DV?$string_output_adapter@D@__crt_stdio_output@@V?$format_validation_base@DV?$string_output_adapter@D@__crt_stdio_output@@@2@@__crt_stdio_output@@QAEHXZ 100285dd f i libucrt:output.obj
 0001:000278bd       ?process@?$output_processor@DV?$string_output_adapter@D@__crt_stdio_output@@V?$positional_parameter_base@DV?$string_output_adapter@D@__crt_stdio_output@@@2@@__crt_stdio_output@@QAEHXZ 100288bd f i libucrt:output.obj
 0001:00027bbd       ?process@?$output_processor@DV?$string_output_adapter@D@__crt_stdio_output@@V?$standard_base@DV?$string_output_adapter@D@__crt_stdio_output@@@2@@__crt_stdio_output@@QAEHXZ 10028bbd f i libucrt:output.obj
 0001:00027e91       ?process@?$output_processor@_WV?$stream_output_adapter@_W@__crt_stdio_output@@V?$format_validation_base@_WV?$stream_output_adapter@_W@__crt_stdio_output@@@2@@__crt_stdio_output@@QAEHXZ 10028e91 f i libucrt:output.obj
 0001:000280ad       ?process@?$output_processor@_WV?$stream_output_adapter@_W@__crt_stdio_output@@V?$positional_parameter_base@_WV?$stream_output_adapter@_W@__crt_stdio_output@@@2@@__crt_stdio_output@@QAEHXZ 100290ad f i libucrt:output.obj
 0001:00028301       ?process@?$output_processor@_WV?$stream_output_adapter@_W@__crt_stdio_output@@V?$standard_base@_WV?$stream_output_adapter@_W@__crt_stdio_output@@@2@@__crt_stdio_output@@QAEHXZ 10029301 f i libucrt:output.obj
 0001:00028511       ?process@?$output_processor@_WV?$string_output_adapter@_W@__crt_stdio_output@@V?$format_validation_base@_WV?$string_output_adapter@_W@__crt_stdio_output@@@2@@__crt_stdio_output@@QAEHXZ 10029511 f i libucrt:output.obj
 0001:00028761       ?process@?$output_processor@_WV?$string_output_adapter@_W@__crt_stdio_output@@V?$positional_parameter_base@_WV?$string_output_adapter@_W@__crt_stdio_output@@@2@@__crt_stdio_output@@QAEHXZ 10029761 f i libucrt:output.obj
 0001:000289c9       ?process@?$output_processor@_WV?$string_output_adapter@_W@__crt_stdio_output@@V?$standard_base@_WV?$string_output_adapter@_W@__crt_stdio_output@@@2@@__crt_stdio_output@@QAEHXZ 100299c9 f i libucrt:output.obj
 0001:00028c09       ?public_stream@__crt_stdio_stream@@QBEPAU_iobuf@@XZ 10029c09 f i libucrt:output.obj
 0001:00028c0c       ?restore_state@?$c_string_character_source@D@__crt_strtox@@QAE_NQBD@Z 10029c0c f i libucrt:output.obj
 0001:00028c1c       ?restore_state@?$c_string_character_source@_W@__crt_strtox@@QAE_NQB_W@Z 10029c1c f i libucrt:output.obj
 0001:00028c2c       ?save_state@?$c_string_character_source@D@__crt_strtox@@QBEPBDXZ 10029c2c f i libucrt:output.obj
 0001:00028c2f       ?save_state@?$c_string_character_source@_W@__crt_strtox@@QBEPB_WXZ 10029c2f f i libucrt:output.obj
 0001:00028c32       ?set_flag@?$output_processor@DV?$stream_output_adapter@D@__crt_stdio_output@@V?$format_validation_base@DV?$stream_output_adapter@D@__crt_stdio_output@@@2@@__crt_stdio_output@@AAEXI@Z 10029c32 f i libucrt:output.obj
 0001:00028c41       ?set_flag@?$output_processor@DV?$stream_output_adapter@D@__crt_stdio_output@@V?$positional_parameter_base@DV?$stream_output_adapter@D@__crt_stdio_output@@@2@@__crt_stdio_output@@AAEXI@Z 10029c41 f i libucrt:output.obj
 0001:00028c50       ?set_flag@?$output_processor@DV?$stream_output_adapter@D@__crt_stdio_output@@V?$standard_base@DV?$stream_output_adapter@D@__crt_stdio_output@@@2@@__crt_stdio_output@@AAEXI@Z 10029c50 f i libucrt:output.obj
 0001:00028c5f       ?set_flag@?$output_processor@DV?$string_output_adapter@D@__crt_stdio_output@@V?$format_validation_base@DV?$string_output_adapter@D@__crt_stdio_output@@@2@@__crt_stdio_output@@AAEXI@Z 10029c5f f i libucrt:output.obj
 0001:00028c6e       ?set_flag@?$output_processor@DV?$string_output_adapter@D@__crt_stdio_output@@V?$positional_parameter_base@DV?$string_output_adapter@D@__crt_stdio_output@@@2@@__crt_stdio_output@@AAEXI@Z 10029c6e f i libucrt:output.obj
 0001:00028c7d       ?set_flag@?$output_processor@DV?$string_output_adapter@D@__crt_stdio_output@@V?$standard_base@DV?$string_output_adapter@D@__crt_stdio_output@@@2@@__crt_stdio_output@@AAEXI@Z 10029c7d f i libucrt:output.obj
 0001:00028c8c       ?set_flag@?$output_processor@_WV?$stream_output_adapter@_W@__crt_stdio_output@@V?$format_validation_base@_WV?$stream_output_adapter@_W@__crt_stdio_output@@@2@@__crt_stdio_output@@AAEXI@Z 10029c8c f i libucrt:output.obj
 0001:00028c9b       ?set_flag@?$output_processor@_WV?$stream_output_adapter@_W@__crt_stdio_output@@V?$positional_parameter_base@_WV?$stream_output_adapter@_W@__crt_stdio_output@@@2@@__crt_stdio_output@@AAEXI@Z 10029c9b f i libucrt:output.obj
 0001:00028caa       ?set_flag@?$output_processor@_WV?$stream_output_adapter@_W@__crt_stdio_output@@V?$standard_base@_WV?$stream_output_adapter@_W@__crt_stdio_output@@@2@@__crt_stdio_output@@AAEXI@Z 10029caa f i libucrt:output.obj
 0001:00028cb9       ?set_flag@?$output_processor@_WV?$string_output_adapter@_W@__crt_stdio_output@@V?$format_validation_base@_WV?$string_output_adapter@_W@__crt_stdio_output@@@2@@__crt_stdio_output@@AAEXI@Z 10029cb9 f i libucrt:output.obj
 0001:00028cc8       ?set_flag@?$output_processor@_WV?$string_output_adapter@_W@__crt_stdio_output@@V?$positional_parameter_base@_WV?$string_output_adapter@_W@__crt_stdio_output@@@2@@__crt_stdio_output@@AAEXI@Z 10029cc8 f i libucrt:output.obj
 0001:00028cd7       ?set_flag@?$output_processor@_WV?$string_output_adapter@_W@__crt_stdio_output@@V?$standard_base@_WV?$string_output_adapter@_W@__crt_stdio_output@@@2@@__crt_stdio_output@@AAEXI@Z 10029cd7 f i libucrt:output.obj
 0001:00028ce6       ?should_format@?$positional_parameter_base@DV?$stream_output_adapter@D@__crt_stdio_output@@@__crt_stdio_output@@IAE_NXZ 10029ce6 f i libucrt:output.obj
 0001:00028cfc       ?should_format@?$positional_parameter_base@DV?$string_output_adapter@D@__crt_stdio_output@@@__crt_stdio_output@@IAE_NXZ 10029cfc f i libucrt:output.obj
 0001:00028d12       ?should_format@?$positional_parameter_base@_WV?$stream_output_adapter@_W@__crt_stdio_output@@@__crt_stdio_output@@IAE_NXZ 10029d12 f i libucrt:output.obj
 0001:00028d28       ?should_format@?$positional_parameter_base@_WV?$string_output_adapter@_W@__crt_stdio_output@@@__crt_stdio_output@@IAE_NXZ 10029d28 f i libucrt:output.obj
 0001:00028d3e       ?should_format@?$standard_base@DV?$stream_output_adapter@D@__crt_stdio_output@@@__crt_stdio_output@@IAE_NXZ 10029d3e f i libucrt:output.obj
 0001:00028d41       ?should_format@?$standard_base@DV?$string_output_adapter@D@__crt_stdio_output@@@__crt_stdio_output@@IAE_NXZ 10029d41 f i libucrt:output.obj
 0001:00028d44       ?should_format@?$standard_base@_WV?$stream_output_adapter@_W@__crt_stdio_output@@@__crt_stdio_output@@IAE_NXZ 10029d44 f i libucrt:output.obj
 0001:00028d47       ?should_format@?$standard_base@_WV?$string_output_adapter@_W@__crt_stdio_output@@@__crt_stdio_output@@IAE_NXZ 10029d47 f i libucrt:output.obj
 0001:00028d4a       ?should_skip_normal_state_processing@?$positional_parameter_base@DV?$stream_output_adapter@D@__crt_stdio_output@@@__crt_stdio_output@@IAE_NXZ 10029d4a f i libucrt:output.obj
 0001:00028d72       ?should_skip_normal_state_processing@?$positional_parameter_base@DV?$string_output_adapter@D@__crt_stdio_output@@@__crt_stdio_output@@IAE_NXZ 10029d72 f i libucrt:output.obj
 0001:00028d9a       ?should_skip_normal_state_processing@?$positional_parameter_base@_WV?$stream_output_adapter@_W@__crt_stdio_output@@@__crt_stdio_output@@IAE_NXZ 10029d9a f i libucrt:output.obj
 0001:00028dc2       ?should_skip_normal_state_processing@?$positional_parameter_base@_WV?$string_output_adapter@_W@__crt_stdio_output@@@__crt_stdio_output@@IAE_NXZ 10029dc2 f i libucrt:output.obj
 0001:00028dea       ?should_skip_normal_state_processing@?$standard_base@DV?$stream_output_adapter@D@__crt_stdio_output@@@__crt_stdio_output@@IAE_NXZ 10029dea f i libucrt:output.obj
 0001:00028ded       ?should_skip_normal_state_processing@?$standard_base@DV?$string_output_adapter@D@__crt_stdio_output@@@__crt_stdio_output@@IAE_NXZ 10029ded f i libucrt:output.obj
 0001:00028df0       ?should_skip_normal_state_processing@?$standard_base@_WV?$stream_output_adapter@_W@__crt_stdio_output@@@__crt_stdio_output@@IAE_NXZ 10029df0 f i libucrt:output.obj
 0001:00028df3       ?should_skip_normal_state_processing@?$standard_base@_WV?$string_output_adapter@_W@__crt_stdio_output@@@__crt_stdio_output@@IAE_NXZ 10029df3 f i libucrt:output.obj
 0001:00028df6       ?should_skip_type_state_output@?$positional_parameter_base@DV?$stream_output_adapter@D@__crt_stdio_output@@@__crt_stdio_output@@IBE_NXZ 10029df6 f i libucrt:output.obj
 0001:00028e0d       ?should_skip_type_state_output@?$positional_parameter_base@DV?$string_output_adapter@D@__crt_stdio_output@@@__crt_stdio_output@@IBE_NXZ 10029e0d f i libucrt:output.obj
 0001:00028e24       ?should_skip_type_state_output@?$positional_parameter_base@_WV?$stream_output_adapter@_W@__crt_stdio_output@@@__crt_stdio_output@@IBE_NXZ 10029e24 f i libucrt:output.obj
 0001:00028e3b       ?should_skip_type_state_output@?$positional_parameter_base@_WV?$string_output_adapter@_W@__crt_stdio_output@@@__crt_stdio_output@@IBE_NXZ 10029e3b f i libucrt:output.obj
 0001:00028e52       ?should_skip_type_state_output@?$standard_base@DV?$stream_output_adapter@D@__crt_stdio_output@@@__crt_stdio_output@@IBE_NXZ 10029e52 f i libucrt:output.obj
 0001:00028e55       ?should_skip_type_state_output@?$standard_base@DV?$string_output_adapter@D@__crt_stdio_output@@@__crt_stdio_output@@IBE_NXZ 10029e55 f i libucrt:output.obj
 0001:00028e58       ?should_skip_type_state_output@?$standard_base@_WV?$stream_output_adapter@_W@__crt_stdio_output@@@__crt_stdio_output@@IBE_NXZ 10029e58 f i libucrt:output.obj
 0001:00028e5b       ?should_skip_type_state_output@?$standard_base@_WV?$string_output_adapter@_W@__crt_stdio_output@@@__crt_stdio_output@@IBE_NXZ 10029e5b f i libucrt:output.obj
 0001:00028e5e       ?state_case_dot@?$output_processor@DV?$stream_output_adapter@D@__crt_stdio_output@@V?$format_validation_base@DV?$stream_output_adapter@D@__crt_stdio_output@@@2@@__crt_stdio_output@@AAE_NXZ 10029e5e f i libucrt:output.obj
 0001:00028e65       ?state_case_dot@?$output_processor@DV?$stream_output_adapter@D@__crt_stdio_output@@V?$positional_parameter_base@DV?$stream_output_adapter@D@__crt_stdio_output@@@2@@__crt_stdio_output@@AAE_NXZ 10029e65 f i libucrt:output.obj
 0001:00028e6c       ?state_case_dot@?$output_processor@DV?$stream_output_adapter@D@__crt_stdio_output@@V?$standard_base@DV?$stream_output_adapter@D@__crt_stdio_output@@@2@@__crt_stdio_output@@AAE_NXZ 10029e6c f i libucrt:output.obj
 0001:00028e73       ?state_case_dot@?$output_processor@DV?$string_output_adapter@D@__crt_stdio_output@@V?$format_validation_base@DV?$string_output_adapter@D@__crt_stdio_output@@@2@@__crt_stdio_output@@AAE_NXZ 10029e73 f i libucrt:output.obj
 0001:00028e7a       ?state_case_dot@?$output_processor@DV?$string_output_adapter@D@__crt_stdio_output@@V?$positional_parameter_base@DV?$string_output_adapter@D@__crt_stdio_output@@@2@@__crt_stdio_output@@AAE_NXZ 10029e7a f i libucrt:output.obj
 0001:00028e81       ?state_case_dot@?$output_processor@DV?$string_output_adapter@D@__crt_stdio_output@@V?$standard_base@DV?$string_output_adapter@D@__crt_stdio_output@@@2@@__crt_stdio_output@@AAE_NXZ 10029e81 f i libucrt:output.obj
 0001:00028e88       ?state_case_dot@?$output_processor@_WV?$stream_output_adapter@_W@__crt_stdio_output@@V?$format_validation_base@_WV?$stream_output_adapter@_W@__crt_stdio_output@@@2@@__crt_stdio_output@@AAE_NXZ 10029e88 f i libucrt:output.obj
 0001:00028e8f       ?state_case_dot@?$output_processor@_WV?$stream_output_adapter@_W@__crt_stdio_output@@V?$positional_parameter_base@_WV?$stream_output_adapter@_W@__crt_stdio_output@@@2@@__crt_stdio_output@@AAE_NXZ 10029e8f f i libucrt:output.obj
 0001:00028e96       ?state_case_dot@?$output_processor@_WV?$stream_output_adapter@_W@__crt_stdio_output@@V?$standard_base@_WV?$stream_output_adapter@_W@__crt_stdio_output@@@2@@__crt_stdio_output@@AAE_NXZ 10029e96 f i libucrt:output.obj
 0001:00028e9d       ?state_case_dot@?$output_processor@_WV?$string_output_adapter@_W@__crt_stdio_output@@V?$format_validation_base@_WV?$string_output_adapter@_W@__crt_stdio_output@@@2@@__crt_stdio_output@@AAE_NXZ 10029e9d f i libucrt:output.obj
 0001:00028ea4       ?state_case_dot@?$output_processor@_WV?$string_output_adapter@_W@__crt_stdio_output@@V?$positional_parameter_base@_WV?$string_output_adapter@_W@__crt_stdio_output@@@2@@__crt_stdio_output@@AAE_NXZ 10029ea4 f i libucrt:output.obj
 0001:00028eab       ?state_case_dot@?$output_processor@_WV?$string_output_adapter@_W@__crt_stdio_output@@V?$standard_base@_WV?$string_output_adapter@_W@__crt_stdio_output@@@2@@__crt_stdio_output@@AAE_NXZ 10029eab f i libucrt:output.obj
 0001:00028eb2       ?state_case_flag@?$output_processor@DV?$stream_output_adapter@D@__crt_stdio_output@@V?$format_validation_base@DV?$stream_output_adapter@D@__crt_stdio_output@@@2@@__crt_stdio_output@@AAE_NXZ 10029eb2 f i libucrt:output.obj
 0001:00028eef       ?state_case_flag@?$output_processor@DV?$stream_output_adapter@D@__crt_stdio_output@@V?$positional_parameter_base@DV?$stream_output_adapter@D@__crt_stdio_output@@@2@@__crt_stdio_output@@AAE_NXZ 10029eef f i libucrt:output.obj
 0001:00028f2c       ?state_case_flag@?$output_processor@DV?$stream_output_adapter@D@__crt_stdio_output@@V?$standard_base@DV?$stream_output_adapter@D@__crt_stdio_output@@@2@@__crt_stdio_output@@AAE_NXZ 10029f2c f i libucrt:output.obj
 0001:00028f69       ?state_case_flag@?$output_processor@DV?$string_output_adapter@D@__crt_stdio_output@@V?$format_validation_base@DV?$string_output_adapter@D@__crt_stdio_output@@@2@@__crt_stdio_output@@AAE_NXZ 10029f69 f i libucrt:output.obj
 0001:00028fa6       ?state_case_flag@?$output_processor@DV?$string_output_adapter@D@__crt_stdio_output@@V?$positional_parameter_base@DV?$string_output_adapter@D@__crt_stdio_output@@@2@@__crt_stdio_output@@AAE_NXZ 10029fa6 f i libucrt:output.obj
 0001:00028fe3       ?state_case_flag@?$output_processor@DV?$string_output_adapter@D@__crt_stdio_output@@V?$standard_base@DV?$string_output_adapter@D@__crt_stdio_output@@@2@@__crt_stdio_output@@AAE_NXZ 10029fe3 f i libucrt:output.obj
 0001:00029020       ?state_case_flag@?$output_processor@_WV?$stream_output_adapter@_W@__crt_stdio_output@@V?$format_validation_base@_WV?$stream_output_adapter@_W@__crt_stdio_output@@@2@@__crt_stdio_output@@AAE_NXZ 1002a020 f i libucrt:output.obj
 0001:0002905d       ?state_case_flag@?$output_processor@_WV?$stream_output_adapter@_W@__crt_stdio_output@@V?$positional_parameter_base@_WV?$stream_output_adapter@_W@__crt_stdio_output@@@2@@__crt_stdio_output@@AAE_NXZ 1002a05d f i libucrt:output.obj
 0001:0002909a       ?state_case_flag@?$output_processor@_WV?$stream_output_adapter@_W@__crt_stdio_output@@V?$standard_base@_WV?$stream_output_adapter@_W@__crt_stdio_output@@@2@@__crt_stdio_output@@AAE_NXZ 1002a09a f i libucrt:output.obj
 0001:000290d7       ?state_case_flag@?$output_processor@_WV?$string_output_adapter@_W@__crt_stdio_output@@V?$format_validation_base@_WV?$string_output_adapter@_W@__crt_stdio_output@@@2@@__crt_stdio_output@@AAE_NXZ 1002a0d7 f i libucrt:output.obj
 0001:00029114       ?state_case_flag@?$output_processor@_WV?$string_output_adapter@_W@__crt_stdio_output@@V?$positional_parameter_base@_WV?$string_output_adapter@_W@__crt_stdio_output@@@2@@__crt_stdio_output@@AAE_NXZ 1002a114 f i libucrt:output.obj
 0001:00029151       ?state_case_flag@?$output_processor@_WV?$string_output_adapter@_W@__crt_stdio_output@@V?$standard_base@_WV?$string_output_adapter@_W@__crt_stdio_output@@@2@@__crt_stdio_output@@AAE_NXZ 1002a151 f i libucrt:output.obj
 0001:0002918e       ?state_case_normal@?$output_processor@DV?$stream_output_adapter@D@__crt_stdio_output@@V?$format_validation_base@DV?$stream_output_adapter@D@__crt_stdio_output@@@2@@__crt_stdio_output@@AAE_NXZ 1002a18e f i libucrt:output.obj
 0001:0002924e       ?state_case_normal@?$output_processor@DV?$stream_output_adapter@D@__crt_stdio_output@@V?$positional_parameter_base@DV?$stream_output_adapter@D@__crt_stdio_output@@@2@@__crt_stdio_output@@AAE_NXZ 1002a24e f i libucrt:output.obj
 0001:00029319       ?state_case_normal@?$output_processor@DV?$stream_output_adapter@D@__crt_stdio_output@@V?$standard_base@DV?$stream_output_adapter@D@__crt_stdio_output@@@2@@__crt_stdio_output@@AAE_NXZ 1002a319 f i libucrt:output.obj
 0001:000293d9       ?state_case_normal@?$output_processor@DV?$string_output_adapter@D@__crt_stdio_output@@V?$format_validation_base@DV?$string_output_adapter@D@__crt_stdio_output@@@2@@__crt_stdio_output@@AAE_NXZ 1002a3d9 f i libucrt:output.obj
 0001:000294d5       ?state_case_normal@?$output_processor@DV?$string_output_adapter@D@__crt_stdio_output@@V?$positional_parameter_base@DV?$string_output_adapter@D@__crt_stdio_output@@@2@@__crt_stdio_output@@AAE_NXZ 1002a4d5 f i libucrt:output.obj
 0001:000295dc       ?state_case_normal@?$output_processor@DV?$string_output_adapter@D@__crt_stdio_output@@V?$standard_base@DV?$string_output_adapter@D@__crt_stdio_output@@@2@@__crt_stdio_output@@AAE_NXZ 1002a5dc f i libucrt:output.obj
 0001:000296d8       ?state_case_normal@?$output_processor@_WV?$stream_output_adapter@_W@__crt_stdio_output@@V?$format_validation_base@_WV?$stream_output_adapter@_W@__crt_stdio_output@@@2@@__crt_stdio_output@@AAE_NXZ 1002a6d8 f i libucrt:output.obj
 0001:000296f6       ?state_case_normal@?$output_processor@_WV?$stream_output_adapter@_W@__crt_stdio_output@@V?$positional_parameter_base@_WV?$stream_output_adapter@_W@__crt_stdio_output@@@2@@__crt_stdio_output@@AAE_NXZ 1002a6f6 f i libucrt:output.obj
 0001:00029723       ?state_case_normal@?$output_processor@_WV?$stream_output_adapter@_W@__crt_stdio_output@@V?$standard_base@_WV?$stream_output_adapter@_W@__crt_stdio_output@@@2@@__crt_stdio_output@@AAE_NXZ 1002a723 f i libucrt:output.obj
 0001:00029741       ?state_case_normal@?$output_processor@_WV?$string_output_adapter@_W@__crt_stdio_output@@V?$format_validation_base@_WV?$string_output_adapter@_W@__crt_stdio_output@@@2@@__crt_stdio_output@@AAE_NXZ 1002a741 f i libucrt:output.obj
 0001:00029789       ?state_case_normal@?$output_processor@_WV?$string_output_adapter@_W@__crt_stdio_output@@V?$positional_parameter_base@_WV?$string_output_adapter@_W@__crt_stdio_output@@@2@@__crt_stdio_output@@AAE_NXZ 1002a789 f i libucrt:output.obj
 0001:000297dc       ?state_case_normal@?$output_processor@_WV?$string_output_adapter@_W@__crt_stdio_output@@V?$standard_base@_WV?$string_output_adapter@_W@__crt_stdio_output@@@2@@__crt_stdio_output@@AAE_NXZ 1002a7dc f i libucrt:output.obj
 0001:00029824       ?state_case_normal_common@?$output_processor@DV?$stream_output_adapter@D@__crt_stdio_output@@V?$format_validation_base@DV?$stream_output_adapter@D@__crt_stdio_output@@@2@@__crt_stdio_output@@AAE_NXZ 1002a824 f i libucrt:output.obj
 0001:000298bb       ?state_case_normal_common@?$output_processor@DV?$stream_output_adapter@D@__crt_stdio_output@@V?$positional_parameter_base@DV?$stream_output_adapter@D@__crt_stdio_output@@@2@@__crt_stdio_output@@AAE_NXZ 1002a8bb f i libucrt:output.obj
 0001:00029952       ?state_case_normal_common@?$output_processor@DV?$stream_output_adapter@D@__crt_stdio_output@@V?$standard_base@DV?$stream_output_adapter@D@__crt_stdio_output@@@2@@__crt_stdio_output@@AAE_NXZ 1002a952 f i libucrt:output.obj
 0001:000299e9       ?state_case_normal_common@?$output_processor@DV?$string_output_adapter@D@__crt_stdio_output@@V?$format_validation_base@DV?$string_output_adapter@D@__crt_stdio_output@@@2@@__crt_stdio_output@@AAE_NXZ 1002a9e9 f i libucrt:output.obj
 0001:00029ac9       ?state_case_normal_common@?$output_processor@DV?$string_output_adapter@D@__crt_stdio_output@@V?$positional_parameter_base@DV?$string_output_adapter@D@__crt_stdio_output@@@2@@__crt_stdio_output@@AAE_NXZ 1002aac9 f i libucrt:output.obj
 0001:00029ba9       ?state_case_normal_common@?$output_processor@DV?$string_output_adapter@D@__crt_stdio_output@@V?$standard_base@DV?$string_output_adapter@D@__crt_stdio_output@@@2@@__crt_stdio_output@@AAE_NXZ 1002aba9 f i libucrt:output.obj
 0001:00029c89       ?state_case_normal_common@?$output_processor@_WV?$stream_output_adapter@_W@__crt_stdio_output@@V?$format_validation_base@_WV?$stream_output_adapter@_W@__crt_stdio_output@@@2@@__crt_stdio_output@@AAE_NXZ 1002ac89 f i libucrt:output.obj
 0001:00029ca7       ?state_case_normal_common@?$output_processor@_WV?$stream_output_adapter@_W@__crt_stdio_output@@V?$positional_parameter_base@_WV?$stream_output_adapter@_W@__crt_stdio_output@@@2@@__crt_stdio_output@@AAE_NXZ 1002aca7 f i libucrt:output.obj
 0001:00029cc5       ?state_case_normal_common@?$output_processor@_WV?$stream_output_adapter@_W@__crt_stdio_output@@V?$standard_base@_WV?$stream_output_adapter@_W@__crt_stdio_output@@@2@@__crt_stdio_output@@AAE_NXZ 1002acc5 f i libucrt:output.obj
 0001:00029ce3       ?state_case_normal_common@?$output_processor@_WV?$string_output_adapter@_W@__crt_stdio_output@@V?$format_validation_base@_WV?$string_output_adapter@_W@__crt_stdio_output@@@2@@__crt_stdio_output@@AAE_NXZ 1002ace3 f i libucrt:output.obj
 0001:00029d2b       ?state_case_normal_common@?$output_processor@_WV?$string_output_adapter@_W@__crt_stdio_output@@V?$positional_parameter_base@_WV?$string_output_adapter@_W@__crt_stdio_output@@@2@@__crt_stdio_output@@AAE_NXZ 1002ad2b f i libucrt:output.obj
 0001:00029d73       ?state_case_normal_common@?$output_processor@_WV?$string_output_adapter@_W@__crt_stdio_output@@V?$standard_base@_WV?$string_output_adapter@_W@__crt_stdio_output@@@2@@__crt_stdio_output@@AAE_NXZ 1002ad73 f i libucrt:output.obj
 0001:00029dbb       ?state_case_normal_tchar@?$output_processor@DV?$stream_output_adapter@D@__crt_stdio_output@@V?$format_validation_base@DV?$stream_output_adapter@D@__crt_stdio_output@@@2@@__crt_stdio_output@@AAE_ND@Z 1002adbb f i libucrt:output.obj
 0001:00029e42       ?state_case_normal_tchar@?$output_processor@DV?$stream_output_adapter@D@__crt_stdio_output@@V?$positional_parameter_base@DV?$stream_output_adapter@D@__crt_stdio_output@@@2@@__crt_stdio_output@@AAE_ND@Z 1002ae42 f i libucrt:output.obj
 0001:00029ec9       ?state_case_normal_tchar@?$output_processor@DV?$stream_output_adapter@D@__crt_stdio_output@@V?$standard_base@DV?$stream_output_adapter@D@__crt_stdio_output@@@2@@__crt_stdio_output@@AAE_ND@Z 1002aec9 f i libucrt:output.obj
 0001:00029f50       ?state_case_normal_tchar@?$output_processor@DV?$string_output_adapter@D@__crt_stdio_output@@V?$format_validation_base@DV?$string_output_adapter@D@__crt_stdio_output@@@2@@__crt_stdio_output@@AAE_ND@Z 1002af50 f i libucrt:output.obj
 0001:00029ffb       ?state_case_normal_tchar@?$output_processor@DV?$string_output_adapter@D@__crt_stdio_output@@V?$positional_parameter_base@DV?$string_output_adapter@D@__crt_stdio_output@@@2@@__crt_stdio_output@@AAE_ND@Z 1002affb f i libucrt:output.obj
 0001:0002a0a6       ?state_case_normal_tchar@?$output_processor@DV?$string_output_adapter@D@__crt_stdio_output@@V?$standard_base@DV?$string_output_adapter@D@__crt_stdio_output@@@2@@__crt_stdio_output@@AAE_ND@Z 1002b0a6 f i libucrt:output.obj
 0001:0002a151       ?state_case_normal_tchar@?$output_processor@_WV?$stream_output_adapter@_W@__crt_stdio_output@@V?$format_validation_base@_WV?$stream_output_adapter@_W@__crt_stdio_output@@@2@@__crt_stdio_output@@AAE_N_W@Z 1002b151 f i libucrt:output.obj
 0001:0002a15a       ?state_case_normal_tchar@?$output_processor@_WV?$stream_output_adapter@_W@__crt_stdio_output@@V?$positional_parameter_base@_WV?$stream_output_adapter@_W@__crt_stdio_output@@@2@@__crt_stdio_output@@AAE_N_W@Z 1002b15a f i libucrt:output.obj
 0001:0002a163       ?state_case_normal_tchar@?$output_processor@_WV?$stream_output_adapter@_W@__crt_stdio_output@@V?$standard_base@_WV?$stream_output_adapter@_W@__crt_stdio_output@@@2@@__crt_stdio_output@@AAE_N_W@Z 1002b163 f i libucrt:output.obj
 0001:0002a16c       ?state_case_normal_tchar@?$output_processor@_WV?$string_output_adapter@_W@__crt_stdio_output@@V?$format_validation_base@_WV?$string_output_adapter@_W@__crt_stdio_output@@@2@@__crt_stdio_output@@AAE_N_W@Z 1002b16c f i libucrt:output.obj
 0001:0002a175       ?state_case_normal_tchar@?$output_processor@_WV?$string_output_adapter@_W@__crt_stdio_output@@V?$positional_parameter_base@_WV?$string_output_adapter@_W@__crt_stdio_output@@@2@@__crt_stdio_output@@AAE_N_W@Z 1002b175 f i libucrt:output.obj
 0001:0002a17e       ?state_case_normal_tchar@?$output_processor@_WV?$string_output_adapter@_W@__crt_stdio_output@@V?$standard_base@_WV?$string_output_adapter@_W@__crt_stdio_output@@@2@@__crt_stdio_output@@AAE_N_W@Z 1002b17e f i libucrt:output.obj
 0001:0002a187       ?state_case_percent@?$output_processor@DV?$stream_output_adapter@D@__crt_stdio_output@@V?$format_validation_base@DV?$stream_output_adapter@D@__crt_stdio_output@@@2@@__crt_stdio_output@@AAE_NXZ 1002b187 f i libucrt:output.obj
 0001:0002a19f       ?state_case_percent@?$output_processor@DV?$stream_output_adapter@D@__crt_stdio_output@@V?$positional_parameter_base@DV?$stream_output_adapter@D@__crt_stdio_output@@@2@@__crt_stdio_output@@AAE_NXZ 1002b19f f i libucrt:output.obj
 0001:0002a1b7       ?state_case_percent@?$output_processor@DV?$stream_output_adapter@D@__crt_stdio_output@@V?$standard_base@DV?$stream_output_adapter@D@__crt_stdio_output@@@2@@__crt_stdio_output@@AAE_NXZ 1002b1b7 f i libucrt:output.obj
 0001:0002a1cf       ?state_case_percent@?$output_processor@DV?$string_output_adapter@D@__crt_stdio_output@@V?$format_validation_base@DV?$string_output_adapter@D@__crt_stdio_output@@@2@@__crt_stdio_output@@AAE_NXZ 1002b1cf f i libucrt:output.obj
 0001:0002a1e7       ?state_case_percent@?$output_processor@DV?$string_output_adapter@D@__crt_stdio_output@@V?$positional_parameter_base@DV?$string_output_adapter@D@__crt_stdio_output@@@2@@__crt_stdio_output@@AAE_NXZ 1002b1e7 f i libucrt:output.obj
 0001:0002a1ff       ?state_case_percent@?$output_processor@DV?$string_output_adapter@D@__crt_stdio_output@@V?$standard_base@DV?$string_output_adapter@D@__crt_stdio_output@@@2@@__crt_stdio_output@@AAE_NXZ 1002b1ff f i libucrt:output.obj
 0001:0002a217       ?state_case_percent@?$output_processor@_WV?$stream_output_adapter@_W@__crt_stdio_output@@V?$format_validation_base@_WV?$stream_output_adapter@_W@__crt_stdio_output@@@2@@__crt_stdio_output@@AAE_NXZ 1002b217 f i libucrt:output.obj
 0001:0002a22f       ?state_case_percent@?$output_processor@_WV?$stream_output_adapter@_W@__crt_stdio_output@@V?$positional_parameter_base@_WV?$stream_output_adapter@_W@__crt_stdio_output@@@2@@__crt_stdio_output@@AAE_NXZ 1002b22f f i libucrt:output.obj
 0001:0002a247       ?state_case_percent@?$output_processor@_WV?$stream_output_adapter@_W@__crt_stdio_output@@V?$standard_base@_WV?$stream_output_adapter@_W@__crt_stdio_output@@@2@@__crt_stdio_output@@AAE_NXZ 1002b247 f i libucrt:output.obj
 0001:0002a25f       ?state_case_percent@?$output_processor@_WV?$string_output_adapter@_W@__crt_stdio_output@@V?$format_validation_base@_WV?$string_output_adapter@_W@__crt_stdio_output@@@2@@__crt_stdio_output@@AAE_NXZ 1002b25f f i libucrt:output.obj
 0001:0002a277       ?state_case_percent@?$output_processor@_WV?$string_output_adapter@_W@__crt_stdio_output@@V?$positional_parameter_base@_WV?$string_output_adapter@_W@__crt_stdio_output@@@2@@__crt_stdio_output@@AAE_NXZ 1002b277 f i libucrt:output.obj
 0001:0002a28f       ?state_case_percent@?$output_processor@_WV?$string_output_adapter@_W@__crt_stdio_output@@V?$standard_base@_WV?$string_output_adapter@_W@__crt_stdio_output@@@2@@__crt_stdio_output@@AAE_NXZ 1002b28f f i libucrt:output.obj
 0001:0002a2a7       ?state_case_precision@?$output_processor@DV?$stream_output_adapter@D@__crt_stdio_output@@V?$format_validation_base@DV?$stream_output_adapter@D@__crt_stdio_output@@@2@@__crt_stdio_output@@AAE_NXZ 1002b2a7 f i libucrt:output.obj
 0001:0002a2cd       ?state_case_precision@?$output_processor@DV?$stream_output_adapter@D@__crt_stdio_output@@V?$positional_parameter_base@DV?$stream_output_adapter@D@__crt_stdio_output@@@2@@__crt_stdio_output@@AAE_NXZ 1002b2cd f i libucrt:output.obj
 0001:0002a307       ?state_case_precision@?$output_processor@DV?$stream_output_adapter@D@__crt_stdio_output@@V?$standard_base@DV?$stream_output_adapter@D@__crt_stdio_output@@@2@@__crt_stdio_output@@AAE_NXZ 1002b307 f i libucrt:output.obj
 0001:0002a32d       ?state_case_precision@?$output_processor@DV?$string_output_adapter@D@__crt_stdio_output@@V?$format_validation_base@DV?$string_output_adapter@D@__crt_stdio_output@@@2@@__crt_stdio_output@@AAE_NXZ 1002b32d f i libucrt:output.obj
 0001:0002a353       ?state_case_precision@?$output_processor@DV?$string_output_adapter@D@__crt_stdio_output@@V?$positional_parameter_base@DV?$string_output_adapter@D@__crt_stdio_output@@@2@@__crt_stdio_output@@AAE_NXZ 1002b353 f i libucrt:output.obj
 0001:0002a38d       ?state_case_precision@?$output_processor@DV?$string_output_adapter@D@__crt_stdio_output@@V?$standard_base@DV?$string_output_adapter@D@__crt_stdio_output@@@2@@__crt_stdio_output@@AAE_NXZ 1002b38d f i libucrt:output.obj
 0001:0002a3b3       ?state_case_precision@?$output_processor@_WV?$stream_output_adapter@_W@__crt_stdio_output@@V?$format_validation_base@_WV?$stream_output_adapter@_W@__crt_stdio_output@@@2@@__crt_stdio_output@@AAE_NXZ 1002b3b3 f i libucrt:output.obj
 0001:0002a3da       ?state_case_precision@?$output_processor@_WV?$stream_output_adapter@_W@__crt_stdio_output@@V?$positional_parameter_base@_WV?$stream_output_adapter@_W@__crt_stdio_output@@@2@@__crt_stdio_output@@AAE_NXZ 1002b3da f i libucrt:output.obj
 0001:0002a415       ?state_case_precision@?$output_processor@_WV?$stream_output_adapter@_W@__crt_stdio_output@@V?$standard_base@_WV?$stream_output_adapter@_W@__crt_stdio_output@@@2@@__crt_stdio_output@@AAE_NXZ 1002b415 f i libucrt:output.obj
 0001:0002a43c       ?state_case_precision@?$output_processor@_WV?$string_output_adapter@_W@__crt_stdio_output@@V?$format_validation_base@_WV?$string_output_adapter@_W@__crt_stdio_output@@@2@@__crt_stdio_output@@AAE_NXZ 1002b43c f i libucrt:output.obj
 0001:0002a463       ?state_case_precision@?$output_processor@_WV?$string_output_adapter@_W@__crt_stdio_output@@V?$positional_parameter_base@_WV?$string_output_adapter@_W@__crt_stdio_output@@@2@@__crt_stdio_output@@AAE_NXZ 1002b463 f i libucrt:output.obj
 0001:0002a49e       ?state_case_precision@?$output_processor@_WV?$string_output_adapter@_W@__crt_stdio_output@@V?$standard_base@_WV?$string_output_adapter@_W@__crt_stdio_output@@@2@@__crt_stdio_output@@AAE_NXZ 1002b49e f i libucrt:output.obj
 0001:0002a4c5       ?state_case_size@?$output_processor@DV?$stream_output_adapter@D@__crt_stdio_output@@V?$format_validation_base@DV?$stream_output_adapter@D@__crt_stdio_output@@@2@@__crt_stdio_output@@AAE_NXZ 1002b4c5 f i libucrt:output.obj
 0001:0002a623       ?state_case_size@?$output_processor@DV?$stream_output_adapter@D@__crt_stdio_output@@V?$positional_parameter_base@DV?$stream_output_adapter@D@__crt_stdio_output@@@2@@__crt_stdio_output@@AAE_NXZ 1002b623 f i libucrt:output.obj
 0001:0002a781       ?state_case_size@?$output_processor@DV?$stream_output_adapter@D@__crt_stdio_output@@V?$standard_base@DV?$stream_output_adapter@D@__crt_stdio_output@@@2@@__crt_stdio_output@@AAE_NXZ 1002b781 f i libucrt:output.obj
 0001:0002a8df       ?state_case_size@?$output_processor@DV?$string_output_adapter@D@__crt_stdio_output@@V?$format_validation_base@DV?$string_output_adapter@D@__crt_stdio_output@@@2@@__crt_stdio_output@@AAE_NXZ 1002b8df f i libucrt:output.obj
 0001:0002aa3d       ?state_case_size@?$output_processor@DV?$string_output_adapter@D@__crt_stdio_output@@V?$positional_parameter_base@DV?$string_output_adapter@D@__crt_stdio_output@@@2@@__crt_stdio_output@@AAE_NXZ 1002ba3d f i libucrt:output.obj
 0001:0002ab9b       ?state_case_size@?$output_processor@DV?$string_output_adapter@D@__crt_stdio_output@@V?$standard_base@DV?$string_output_adapter@D@__crt_stdio_output@@@2@@__crt_stdio_output@@AAE_NXZ 1002bb9b f i libucrt:output.obj
 0001:0002acf9       ?state_case_size@?$output_processor@_WV?$stream_output_adapter@_W@__crt_stdio_output@@V?$format_validation_base@_WV?$stream_output_adapter@_W@__crt_stdio_output@@@2@@__crt_stdio_output@@AAE_NXZ 1002bcf9 f i libucrt:output.obj
 0001:0002ae87       ?state_case_size@?$output_processor@_WV?$stream_output_adapter@_W@__crt_stdio_output@@V?$positional_parameter_base@_WV?$stream_output_adapter@_W@__crt_stdio_output@@@2@@__crt_stdio_output@@AAE_NXZ 1002be87 f i libucrt:output.obj
 0001:0002b015       ?state_case_size@?$output_processor@_WV?$stream_output_adapter@_W@__crt_stdio_output@@V?$standard_base@_WV?$stream_output_adapter@_W@__crt_stdio_output@@@2@@__crt_stdio_output@@AAE_NXZ 1002c015 f i libucrt:output.obj
 0001:0002b1a3       ?state_case_size@?$output_processor@_WV?$string_output_adapter@_W@__crt_stdio_output@@V?$format_validation_base@_WV?$string_output_adapter@_W@__crt_stdio_output@@@2@@__crt_stdio_output@@AAE_NXZ 1002c1a3 f i libucrt:output.obj
 0001:0002b331       ?state_case_size@?$output_processor@_WV?$string_output_adapter@_W@__crt_stdio_output@@V?$positional_parameter_base@_WV?$string_output_adapter@_W@__crt_stdio_output@@@2@@__crt_stdio_output@@AAE_NXZ 1002c331 f i libucrt:output.obj
 0001:0002b4bf       ?state_case_size@?$output_processor@_WV?$string_output_adapter@_W@__crt_stdio_output@@V?$standard_base@_WV?$string_output_adapter@_W@__crt_stdio_output@@@2@@__crt_stdio_output@@AAE_NXZ 1002c4bf f i libucrt:output.obj
 0001:0002b64d       ?state_case_type@?$output_processor@DV?$stream_output_adapter@D@__crt_stdio_output@@V?$format_validation_base@DV?$stream_output_adapter@D@__crt_stdio_output@@@2@@__crt_stdio_output@@AAE_NXZ 1002c64d f i libucrt:output.obj
 0001:0002b995       ?state_case_type@?$output_processor@DV?$stream_output_adapter@D@__crt_stdio_output@@V?$positional_parameter_base@DV?$stream_output_adapter@D@__crt_stdio_output@@@2@@__crt_stdio_output@@AAE_NXZ 1002c995 f i libucrt:output.obj
 0001:0002bcec       ?state_case_type@?$output_processor@DV?$stream_output_adapter@D@__crt_stdio_output@@V?$standard_base@DV?$stream_output_adapter@D@__crt_stdio_output@@@2@@__crt_stdio_output@@AAE_NXZ 1002ccec f i libucrt:output.obj
 0001:0002c034       ?state_case_type@?$output_processor@DV?$string_output_adapter@D@__crt_stdio_output@@V?$format_validation_base@DV?$string_output_adapter@D@__crt_stdio_output@@@2@@__crt_stdio_output@@AAE_NXZ 1002d034 f i libucrt:output.obj
 0001:0002c3c2       ?state_case_type@?$output_processor@DV?$string_output_adapter@D@__crt_stdio_output@@V?$positional_parameter_base@DV?$string_output_adapter@D@__crt_stdio_output@@@2@@__crt_stdio_output@@AAE_NXZ 1002d3c2 f i libucrt:output.obj
 0001:0002c75f       ?state_case_type@?$output_processor@DV?$string_output_adapter@D@__crt_stdio_output@@V?$standard_base@DV?$string_output_adapter@D@__crt_stdio_output@@@2@@__crt_stdio_output@@AAE_NXZ 1002d75f f i libucrt:output.obj
 0001:0002caed       ?state_case_type@?$output_processor@_WV?$stream_output_adapter@_W@__crt_stdio_output@@V?$format_validation_base@_WV?$stream_output_adapter@_W@__crt_stdio_output@@@2@@__crt_stdio_output@@AAE_NXZ 1002daed f i libucrt:output.obj
 0001:0002ce52       ?state_case_type@?$output_processor@_WV?$stream_output_adapter@_W@__crt_stdio_output@@V?$positional_parameter_base@_WV?$stream_output_adapter@_W@__crt_stdio_output@@@2@@__crt_stdio_output@@AAE_NXZ 1002de52 f i libucrt:output.obj
 0001:0002d1c6       ?state_case_type@?$output_processor@_WV?$stream_output_adapter@_W@__crt_stdio_output@@V?$standard_base@_WV?$stream_output_adapter@_W@__crt_stdio_output@@@2@@__crt_stdio_output@@AAE_NXZ 1002e1c6 f i libucrt:output.obj
 0001:0002d52b       ?state_case_type@?$output_processor@_WV?$string_output_adapter@_W@__crt_stdio_output@@V?$format_validation_base@_WV?$string_output_adapter@_W@__crt_stdio_output@@@2@@__crt_stdio_output@@AAE_NXZ 1002e52b f i libucrt:output.obj
 0001:0002d94c       ?state_case_type@?$output_processor@_WV?$string_output_adapter@_W@__crt_stdio_output@@V?$positional_parameter_base@_WV?$string_output_adapter@_W@__crt_stdio_output@@@2@@__crt_stdio_output@@AAE_NXZ 1002e94c f i libucrt:output.obj
 0001:0002dd7c       ?state_case_type@?$output_processor@_WV?$string_output_adapter@_W@__crt_stdio_output@@V?$standard_base@_WV?$string_output_adapter@_W@__crt_stdio_output@@@2@@__crt_stdio_output@@AAE_NXZ 1002ed7c f i libucrt:output.obj
 0001:0002e19d       ?state_case_width@?$output_processor@DV?$stream_output_adapter@D@__crt_stdio_output@@V?$format_validation_base@DV?$stream_output_adapter@D@__crt_stdio_output@@@2@@__crt_stdio_output@@AAE_NXZ 1002f19d f i libucrt:output.obj
 0001:0002e1c8       ?state_case_width@?$output_processor@DV?$stream_output_adapter@D@__crt_stdio_output@@V?$positional_parameter_base@DV?$stream_output_adapter@D@__crt_stdio_output@@@2@@__crt_stdio_output@@AAE_NXZ 1002f1c8 f i libucrt:output.obj
 0001:0002e208       ?state_case_width@?$output_processor@DV?$stream_output_adapter@D@__crt_stdio_output@@V?$standard_base@DV?$stream_output_adapter@D@__crt_stdio_output@@@2@@__crt_stdio_output@@AAE_NXZ 1002f208 f i libucrt:output.obj
 0001:0002e233       ?state_case_width@?$output_processor@DV?$string_output_adapter@D@__crt_stdio_output@@V?$format_validation_base@DV?$string_output_adapter@D@__crt_stdio_output@@@2@@__crt_stdio_output@@AAE_NXZ 1002f233 f i libucrt:output.obj
 0001:0002e25e       ?state_case_width@?$output_processor@DV?$string_output_adapter@D@__crt_stdio_output@@V?$positional_parameter_base@DV?$string_output_adapter@D@__crt_stdio_output@@@2@@__crt_stdio_output@@AAE_NXZ 1002f25e f i libucrt:output.obj
 0001:0002e29e       ?state_case_width@?$output_processor@DV?$string_output_adapter@D@__crt_stdio_output@@V?$standard_base@DV?$string_output_adapter@D@__crt_stdio_output@@@2@@__crt_stdio_output@@AAE_NXZ 1002f29e f i libucrt:output.obj
 0001:0002e2c9       ?state_case_width@?$output_processor@_WV?$stream_output_adapter@_W@__crt_stdio_output@@V?$format_validation_base@_WV?$stream_output_adapter@_W@__crt_stdio_output@@@2@@__crt_stdio_output@@AAE_NXZ 1002f2c9 f i libucrt:output.obj
 0001:0002e2f5       ?state_case_width@?$output_processor@_WV?$stream_output_adapter@_W@__crt_stdio_output@@V?$positional_parameter_base@_WV?$stream_output_adapter@_W@__crt_stdio_output@@@2@@__crt_stdio_output@@AAE_NXZ 1002f2f5 f i libucrt:output.obj
 0001:0002e336       ?state_case_width@?$output_processor@_WV?$stream_output_adapter@_W@__crt_stdio_output@@V?$standard_base@_WV?$stream_output_adapter@_W@__crt_stdio_output@@@2@@__crt_stdio_output@@AAE_NXZ 1002f336 f i libucrt:output.obj
 0001:0002e362       ?state_case_width@?$output_processor@_WV?$string_output_adapter@_W@__crt_stdio_output@@V?$format_validation_base@_WV?$string_output_adapter@_W@__crt_stdio_output@@@2@@__crt_stdio_output@@AAE_NXZ 1002f362 f i libucrt:output.obj
 0001:0002e38e       ?state_case_width@?$output_processor@_WV?$string_output_adapter@_W@__crt_stdio_output@@V?$positional_parameter_base@_WV?$string_output_adapter@_W@__crt_stdio_output@@@2@@__crt_stdio_output@@AAE_NXZ 1002f38e f i libucrt:output.obj
 0001:0002e3cf       ?state_case_width@?$output_processor@_WV?$string_output_adapter@_W@__crt_stdio_output@@V?$standard_base@_WV?$string_output_adapter@_W@__crt_stdio_output@@@2@@__crt_stdio_output@@AAE_NXZ 1002f3cf f i libucrt:output.obj
 0001:0002e3fb       ?state_count@?$format_validation_base@DV?$stream_output_adapter@D@__crt_stdio_output@@@__crt_stdio_output@@KAIXZ 1002f3fb f i libucrt:output.obj
 0001:0002e3ff       ?state_count@?$format_validation_base@DV?$string_output_adapter@D@__crt_stdio_output@@@__crt_stdio_output@@KAIXZ 1002f3ff f i libucrt:output.obj
 0001:0002e403       ?state_count@?$format_validation_base@_WV?$stream_output_adapter@_W@__crt_stdio_output@@@__crt_stdio_output@@KAIXZ 1002f403 f i libucrt:output.obj
 0001:0002e407       ?state_count@?$format_validation_base@_WV?$string_output_adapter@_W@__crt_stdio_output@@@__crt_stdio_output@@KAIXZ 1002f407 f i libucrt:output.obj
 0001:0002e40b       ?state_count@?$standard_base@DV?$stream_output_adapter@D@__crt_stdio_output@@@__crt_stdio_output@@KAIXZ 1002f40b f i libucrt:output.obj
 0001:0002e40f       ?state_count@?$standard_base@DV?$string_output_adapter@D@__crt_stdio_output@@@__crt_stdio_output@@KAIXZ 1002f40f f i libucrt:output.obj
 0001:0002e413       ?state_count@?$standard_base@_WV?$stream_output_adapter@_W@__crt_stdio_output@@@__crt_stdio_output@@KAIXZ 1002f413 f i libucrt:output.obj
 0001:0002e417       ?state_count@?$standard_base@_WV?$string_output_adapter@_W@__crt_stdio_output@@@__crt_stdio_output@@KAIXZ 1002f417 f i libucrt:output.obj
 0001:0002e41b       ?state_transition_table@?$format_validation_base@DV?$stream_output_adapter@D@__crt_stdio_output@@@__crt_stdio_output@@KAABV?$spectre_mitigated_lookup_table@Ustate_transition_pair@__crt_stdio_output@@$0IA@@2@XZ 1002f41b f i libucrt:output.obj
 0001:0002e421       ?state_transition_table@?$format_validation_base@DV?$string_output_adapter@D@__crt_stdio_output@@@__crt_stdio_output@@KAABV?$spectre_mitigated_lookup_table@Ustate_transition_pair@__crt_stdio_output@@$0IA@@2@XZ 1002f421 f i libucrt:output.obj
 0001:0002e427       ?state_transition_table@?$format_validation_base@_WV?$stream_output_adapter@_W@__crt_stdio_output@@@__crt_stdio_output@@KAABV?$spectre_mitigated_lookup_table@Ustate_transition_pair@__crt_stdio_output@@$0IA@@2@XZ 1002f427 f i libucrt:output.obj
 0001:0002e42d       ?state_transition_table@?$format_validation_base@_WV?$string_output_adapter@_W@__crt_stdio_output@@@__crt_stdio_output@@KAABV?$spectre_mitigated_lookup_table@Ustate_transition_pair@__crt_stdio_output@@$0IA@@2@XZ 1002f42d f i libucrt:output.obj
 0001:0002e433       ?state_transition_table@?$standard_base@DV?$stream_output_adapter@D@__crt_stdio_output@@@__crt_stdio_output@@KAABV?$spectre_mitigated_lookup_table@Ustate_transition_pair@__crt_stdio_output@@$0IA@@2@XZ 1002f433 f i libucrt:output.obj
 0001:0002e439       ?state_transition_table@?$standard_base@DV?$string_output_adapter@D@__crt_stdio_output@@@__crt_stdio_output@@KAABV?$spectre_mitigated_lookup_table@Ustate_transition_pair@__crt_stdio_output@@$0IA@@2@XZ 1002f439 f i libucrt:output.obj
 0001:0002e43f       ?state_transition_table@?$standard_base@_WV?$stream_output_adapter@_W@__crt_stdio_output@@@__crt_stdio_output@@KAABV?$spectre_mitigated_lookup_table@Ustate_transition_pair@__crt_stdio_output@@$0IA@@2@XZ 1002f43f f i libucrt:output.obj
 0001:0002e445       ?state_transition_table@?$standard_base@_WV?$string_output_adapter@_W@__crt_stdio_output@@@__crt_stdio_output@@KAABV?$spectre_mitigated_lookup_table@Ustate_transition_pair@__crt_stdio_output@@$0IA@@2@XZ 1002f445 f i libucrt:output.obj
 0001:0002e44b       ?tchar_string@?$common_data@D@__crt_stdio_output@@IAEAAPADD@Z 1002f44b f i libucrt:output.obj
 0001:0002e451       ?tchar_string@?$common_data@D@__crt_stdio_output@@IAEAAPADXZ 1002f451 f i libucrt:output.obj
 0001:0002e455       ?tchar_string@?$common_data@_W@__crt_stdio_output@@IAEAAPA_WXZ 1002f455 f i libucrt:output.obj
 0001:0002e459       ?tchar_string@?$common_data@_W@__crt_stdio_output@@IAEAAPA_W_W@Z 1002f459 f i libucrt:output.obj
 0001:0002e45f       ?to_integer_size@__crt_stdio_output@@YAIW4length_modifier@1@@Z 1002f45f f i libucrt:output.obj
 0001:0002e4b3       ?type_case_X@?$output_processor@DV?$stream_output_adapter@D@__crt_stdio_output@@V?$format_validation_base@DV?$stream_output_adapter@D@__crt_stdio_output@@@2@@__crt_stdio_output@@AAE_NXZ 1002f4b3 f i libucrt:output.obj
 0001:0002e4bb       ?type_case_X@?$output_processor@DV?$stream_output_adapter@D@__crt_stdio_output@@V?$positional_parameter_base@DV?$stream_output_adapter@D@__crt_stdio_output@@@2@@__crt_stdio_output@@AAE_NXZ 1002f4bb f i libucrt:output.obj
 0001:0002e4c3       ?type_case_X@?$output_processor@DV?$stream_output_adapter@D@__crt_stdio_output@@V?$standard_base@DV?$stream_output_adapter@D@__crt_stdio_output@@@2@@__crt_stdio_output@@AAE_NXZ 1002f4c3 f i libucrt:output.obj
 0001:0002e4cb       ?type_case_X@?$output_processor@DV?$string_output_adapter@D@__crt_stdio_output@@V?$format_validation_base@DV?$string_output_adapter@D@__crt_stdio_output@@@2@@__crt_stdio_output@@AAE_NXZ 1002f4cb f i libucrt:output.obj
 0001:0002e4d3       ?type_case_X@?$output_processor@DV?$string_output_adapter@D@__crt_stdio_output@@V?$positional_parameter_base@DV?$string_output_adapter@D@__crt_stdio_output@@@2@@__crt_stdio_output@@AAE_NXZ 1002f4d3 f i libucrt:output.obj
 0001:0002e4db       ?type_case_X@?$output_processor@DV?$string_output_adapter@D@__crt_stdio_output@@V?$standard_base@DV?$string_output_adapter@D@__crt_stdio_output@@@2@@__crt_stdio_output@@AAE_NXZ 1002f4db f i libucrt:output.obj
 0001:0002e4e3       ?type_case_X@?$output_processor@_WV?$stream_output_adapter@_W@__crt_stdio_output@@V?$format_validation_base@_WV?$stream_output_adapter@_W@__crt_stdio_output@@@2@@__crt_stdio_output@@AAE_NXZ 1002f4e3 f i libucrt:output.obj
 0001:0002e4eb       ?type_case_X@?$output_processor@_WV?$stream_output_adapter@_W@__crt_stdio_output@@V?$positional_parameter_base@_WV?$stream_output_adapter@_W@__crt_stdio_output@@@2@@__crt_stdio_output@@AAE_NXZ 1002f4eb f i libucrt:output.obj
 0001:0002e4f3       ?type_case_X@?$output_processor@_WV?$stream_output_adapter@_W@__crt_stdio_output@@V?$standard_base@_WV?$stream_output_adapter@_W@__crt_stdio_output@@@2@@__crt_stdio_output@@AAE_NXZ 1002f4f3 f i libucrt:output.obj
 0001:0002e4fb       ?type_case_X@?$output_processor@_WV?$string_output_adapter@_W@__crt_stdio_output@@V?$format_validation_base@_WV?$string_output_adapter@_W@__crt_stdio_output@@@2@@__crt_stdio_output@@AAE_NXZ 1002f4fb f i libucrt:output.obj
 0001:0002e503       ?type_case_X@?$output_processor@_WV?$string_output_adapter@_W@__crt_stdio_output@@V?$positional_parameter_base@_WV?$string_output_adapter@_W@__crt_stdio_output@@@2@@__crt_stdio_output@@AAE_NXZ 1002f503 f i libucrt:output.obj
 0001:0002e50b       ?type_case_X@?$output_processor@_WV?$string_output_adapter@_W@__crt_stdio_output@@V?$standard_base@_WV?$string_output_adapter@_W@__crt_stdio_output@@@2@@__crt_stdio_output@@AAE_NXZ 1002f50b f i libucrt:output.obj
 0001:0002e513       ?type_case_Z@?$output_processor@DV?$stream_output_adapter@D@__crt_stdio_output@@V?$format_validation_base@DV?$stream_output_adapter@D@__crt_stdio_output@@@2@@__crt_stdio_output@@AAE_NXZ 1002f513 f i libucrt:output.obj
 0001:0002e56d       ?type_case_Z@?$output_processor@DV?$stream_output_adapter@D@__crt_stdio_output@@V?$positional_parameter_base@DV?$stream_output_adapter@D@__crt_stdio_output@@@2@@__crt_stdio_output@@AAE_NXZ 1002f56d f i libucrt:output.obj
 0001:0002e5e1       ?type_case_Z@?$output_processor@DV?$stream_output_adapter@D@__crt_stdio_output@@V?$standard_base@DV?$stream_output_adapter@D@__crt_stdio_output@@@2@@__crt_stdio_output@@AAE_NXZ 1002f5e1 f i libucrt:output.obj
 0001:0002e63b       ?type_case_Z@?$output_processor@DV?$string_output_adapter@D@__crt_stdio_output@@V?$format_validation_base@DV?$string_output_adapter@D@__crt_stdio_output@@@2@@__crt_stdio_output@@AAE_NXZ 1002f63b f i libucrt:output.obj
 0001:0002e695       ?type_case_Z@?$output_processor@DV?$string_output_adapter@D@__crt_stdio_output@@V?$positional_parameter_base@DV?$string_output_adapter@D@__crt_stdio_output@@@2@@__crt_stdio_output@@AAE_NXZ 1002f695 f i libucrt:output.obj
 0001:0002e709       ?type_case_Z@?$output_processor@DV?$string_output_adapter@D@__crt_stdio_output@@V?$standard_base@DV?$string_output_adapter@D@__crt_stdio_output@@@2@@__crt_stdio_output@@AAE_NXZ 1002f709 f i libucrt:output.obj
 0001:0002e763       ?type_case_Z@?$output_processor@_WV?$stream_output_adapter@_W@__crt_stdio_output@@V?$format_validation_base@_WV?$stream_output_adapter@_W@__crt_stdio_output@@@2@@__crt_stdio_output@@AAE_NXZ 1002f763 f i libucrt:output.obj
 0001:0002e7bd       ?type_case_Z@?$output_processor@_WV?$stream_output_adapter@_W@__crt_stdio_output@@V?$positional_parameter_base@_WV?$stream_output_adapter@_W@__crt_stdio_output@@@2@@__crt_stdio_output@@AAE_NXZ 1002f7bd f i libucrt:output.obj
 0001:0002e831       ?type_case_Z@?$output_processor@_WV?$stream_output_adapter@_W@__crt_stdio_output@@V?$standard_base@_WV?$stream_output_adapter@_W@__crt_stdio_output@@@2@@__crt_stdio_output@@AAE_NXZ 1002f831 f i libucrt:output.obj
 0001:0002e88b       ?type_case_Z@?$output_processor@_WV?$string_output_adapter@_W@__crt_stdio_output@@V?$format_validation_base@_WV?$string_output_adapter@_W@__crt_stdio_output@@@2@@__crt_stdio_output@@AAE_NXZ 1002f88b f i libucrt:output.obj
 0001:0002e8e5       ?type_case_Z@?$output_processor@_WV?$string_output_adapter@_W@__crt_stdio_output@@V?$positional_parameter_base@_WV?$string_output_adapter@_W@__crt_stdio_output@@@2@@__crt_stdio_output@@AAE_NXZ 1002f8e5 f i libucrt:output.obj
 0001:0002e959       ?type_case_Z@?$output_processor@_WV?$string_output_adapter@_W@__crt_stdio_output@@V?$standard_base@_WV?$string_output_adapter@_W@__crt_stdio_output@@@2@@__crt_stdio_output@@AAE_NXZ 1002f959 f i libucrt:output.obj
 0001:0002e9b3       ?type_case_a@?$output_processor@DV?$stream_output_adapter@D@__crt_stdio_output@@V?$format_validation_base@DV?$stream_output_adapter@D@__crt_stdio_output@@@2@@__crt_stdio_output@@AAE_NXZ 1002f9b3 f i libucrt:output.obj
 0001:0002eb3d       ?type_case_a@?$output_processor@DV?$stream_output_adapter@D@__crt_stdio_output@@V?$positional_parameter_base@DV?$stream_output_adapter@D@__crt_stdio_output@@@2@@__crt_stdio_output@@AAE_NXZ 1002fb3d f i libucrt:output.obj
 0001:0002ece8       ?type_case_a@?$output_processor@DV?$stream_output_adapter@D@__crt_stdio_output@@V?$standard_base@DV?$stream_output_adapter@D@__crt_stdio_output@@@2@@__crt_stdio_output@@AAE_NXZ 1002fce8 f i libucrt:output.obj
 0001:0002ee72       ?type_case_a@?$output_processor@DV?$string_output_adapter@D@__crt_stdio_output@@V?$format_validation_base@DV?$string_output_adapter@D@__crt_stdio_output@@@2@@__crt_stdio_output@@AAE_NXZ 1002fe72 f i libucrt:output.obj
 0001:0002effc       ?type_case_a@?$output_processor@DV?$string_output_adapter@D@__crt_stdio_output@@V?$positional_parameter_base@DV?$string_output_adapter@D@__crt_stdio_output@@@2@@__crt_stdio_output@@AAE_NXZ 1002fffc f i libucrt:output.obj
 0001:0002f1a7       ?type_case_a@?$output_processor@DV?$string_output_adapter@D@__crt_stdio_output@@V?$standard_base@DV?$string_output_adapter@D@__crt_stdio_output@@@2@@__crt_stdio_output@@AAE_NXZ 100301a7 f i libucrt:output.obj
 0001:0002f331       ?type_case_a@?$output_processor@_WV?$stream_output_adapter@_W@__crt_stdio_output@@V?$format_validation_base@_WV?$stream_output_adapter@_W@__crt_stdio_output@@@2@@__crt_stdio_output@@AAE_NXZ 10030331 f i libucrt:output.obj
 0001:0002f4d1       ?type_case_a@?$output_processor@_WV?$stream_output_adapter@_W@__crt_stdio_output@@V?$positional_parameter_base@_WV?$stream_output_adapter@_W@__crt_stdio_output@@@2@@__crt_stdio_output@@AAE_NXZ 100304d1 f i libucrt:output.obj
 0001:0002f692       ?type_case_a@?$output_processor@_WV?$stream_output_adapter@_W@__crt_stdio_output@@V?$standard_base@_WV?$stream_output_adapter@_W@__crt_stdio_output@@@2@@__crt_stdio_output@@AAE_NXZ 10030692 f i libucrt:output.obj
 0001:0002f832       ?type_case_a@?$output_processor@_WV?$string_output_adapter@_W@__crt_stdio_output@@V?$format_validation_base@_WV?$string_output_adapter@_W@__crt_stdio_output@@@2@@__crt_stdio_output@@AAE_NXZ 10030832 f i libucrt:output.obj
 0001:0002f9d2       ?type_case_a@?$output_processor@_WV?$string_output_adapter@_W@__crt_stdio_output@@V?$positional_parameter_base@_WV?$string_output_adapter@_W@__crt_stdio_output@@@2@@__crt_stdio_output@@AAE_NXZ 100309d2 f i libucrt:output.obj
 0001:0002fb93       ?type_case_a@?$output_processor@_WV?$string_output_adapter@_W@__crt_stdio_output@@V?$standard_base@_WV?$string_output_adapter@_W@__crt_stdio_output@@@2@@__crt_stdio_output@@AAE_NXZ 10030b93 f i libucrt:output.obj
 0001:0002fd33       ?type_case_c@?$output_processor@DV?$stream_output_adapter@D@__crt_stdio_output@@V?$format_validation_base@DV?$stream_output_adapter@D@__crt_stdio_output@@@2@@__crt_stdio_output@@AAE_NXZ 10030d33 f i libucrt:output.obj
 0001:0002fd3b       ?type_case_c@?$output_processor@DV?$stream_output_adapter@D@__crt_stdio_output@@V?$positional_parameter_base@DV?$stream_output_adapter@D@__crt_stdio_output@@@2@@__crt_stdio_output@@AAE_NXZ 10030d3b f i libucrt:output.obj
 0001:0002fd43       ?type_case_c@?$output_processor@DV?$stream_output_adapter@D@__crt_stdio_output@@V?$standard_base@DV?$stream_output_adapter@D@__crt_stdio_output@@@2@@__crt_stdio_output@@AAE_NXZ 10030d43 f i libucrt:output.obj
 0001:0002fd4b       ?type_case_c@?$output_processor@DV?$string_output_adapter@D@__crt_stdio_output@@V?$format_validation_base@DV?$string_output_adapter@D@__crt_stdio_output@@@2@@__crt_stdio_output@@AAE_NXZ 10030d4b f i libucrt:output.obj
 0001:0002fd53       ?type_case_c@?$output_processor@DV?$string_output_adapter@D@__crt_stdio_output@@V?$positional_parameter_base@DV?$string_output_adapter@D@__crt_stdio_output@@@2@@__crt_stdio_output@@AAE_NXZ 10030d53 f i libucrt:output.obj
 0001:0002fd5b       ?type_case_c@?$output_processor@DV?$string_output_adapter@D@__crt_stdio_output@@V?$standard_base@DV?$string_output_adapter@D@__crt_stdio_output@@@2@@__crt_stdio_output@@AAE_NXZ 10030d5b f i libucrt:output.obj
 0001:0002fd63       ?type_case_c@?$output_processor@_WV?$stream_output_adapter@_W@__crt_stdio_output@@V?$format_validation_base@_WV?$stream_output_adapter@_W@__crt_stdio_output@@@2@@__crt_stdio_output@@AAE_NXZ 10030d63 f i libucrt:output.obj
 0001:0002fd6b       ?type_case_c@?$output_processor@_WV?$stream_output_adapter@_W@__crt_stdio_output@@V?$positional_parameter_base@_WV?$stream_output_adapter@_W@__crt_stdio_output@@@2@@__crt_stdio_output@@AAE_NXZ 10030d6b f i libucrt:output.obj
 0001:0002fd73       ?type_case_c@?$output_processor@_WV?$stream_output_adapter@_W@__crt_stdio_output@@V?$standard_base@_WV?$stream_output_adapter@_W@__crt_stdio_output@@@2@@__crt_stdio_output@@AAE_NXZ 10030d73 f i libucrt:output.obj
 0001:0002fd7b       ?type_case_c@?$output_processor@_WV?$string_output_adapter@_W@__crt_stdio_output@@V?$format_validation_base@_WV?$string_output_adapter@_W@__crt_stdio_output@@@2@@__crt_stdio_output@@AAE_NXZ 10030d7b f i libucrt:output.obj
 0001:0002fd83       ?type_case_c@?$output_processor@_WV?$string_output_adapter@_W@__crt_stdio_output@@V?$positional_parameter_base@_WV?$string_output_adapter@_W@__crt_stdio_output@@@2@@__crt_stdio_output@@AAE_NXZ 10030d83 f i libucrt:output.obj
 0001:0002fd8b       ?type_case_c@?$output_processor@_WV?$string_output_adapter@_W@__crt_stdio_output@@V?$standard_base@_WV?$string_output_adapter@_W@__crt_stdio_output@@@2@@__crt_stdio_output@@AAE_NXZ 10030d8b f i libucrt:output.obj
 0001:0002fd93       ?type_case_c_tchar@?$output_processor@DV?$stream_output_adapter@D@__crt_stdio_output@@V?$format_validation_base@DV?$stream_output_adapter@D@__crt_stdio_output@@@2@@__crt_stdio_output@@AAE_ND@Z 10030d93 f i libucrt:output.obj
 0001:0002fe28       ?type_case_c_tchar@?$output_processor@DV?$stream_output_adapter@D@__crt_stdio_output@@V?$positional_parameter_base@DV?$stream_output_adapter@D@__crt_stdio_output@@@2@@__crt_stdio_output@@AAE_ND@Z 10030e28 f i libucrt:output.obj
 0001:0002fee9       ?type_case_c_tchar@?$output_processor@DV?$stream_output_adapter@D@__crt_stdio_output@@V?$standard_base@DV?$stream_output_adapter@D@__crt_stdio_output@@@2@@__crt_stdio_output@@AAE_ND@Z 10030ee9 f i libucrt:output.obj
 0001:0002ff7e       ?type_case_c_tchar@?$output_processor@DV?$string_output_adapter@D@__crt_stdio_output@@V?$format_validation_base@DV?$string_output_adapter@D@__crt_stdio_output@@@2@@__crt_stdio_output@@AAE_ND@Z 10030f7e f i libucrt:output.obj
 0001:00030013       ?type_case_c_tchar@?$output_processor@DV?$string_output_adapter@D@__crt_stdio_output@@V?$positional_parameter_base@DV?$string_output_adapter@D@__crt_stdio_output@@@2@@__crt_stdio_output@@AAE_ND@Z 10031013 f i libucrt:output.obj
 0001:000300d4       ?type_case_c_tchar@?$output_processor@DV?$string_output_adapter@D@__crt_stdio_output@@V?$standard_base@DV?$string_output_adapter@D@__crt_stdio_output@@@2@@__crt_stdio_output@@AAE_ND@Z 100310d4 f i libucrt:output.obj
 0001:00030169       ?type_case_c_tchar@?$output_processor@_WV?$stream_output_adapter@_W@__crt_stdio_output@@V?$format_validation_base@_WV?$stream_output_adapter@_W@__crt_stdio_output@@@2@@__crt_stdio_output@@AAE_N_W@Z 10031169 f i libucrt:output.obj
 0001:00030210       ?type_case_c_tchar@?$output_processor@_WV?$stream_output_adapter@_W@__crt_stdio_output@@V?$positional_parameter_base@_WV?$stream_output_adapter@_W@__crt_stdio_output@@@2@@__crt_stdio_output@@AAE_N_W@Z 10031210 f i libucrt:output.obj
 0001:000302db       ?type_case_c_tchar@?$output_processor@_WV?$stream_output_adapter@_W@__crt_stdio_output@@V?$standard_base@_WV?$stream_output_adapter@_W@__crt_stdio_output@@@2@@__crt_stdio_output@@AAE_N_W@Z 100312db f i libucrt:output.obj
 0001:00030382       ?type_case_c_tchar@?$output_processor@_WV?$string_output_adapter@_W@__crt_stdio_output@@V?$format_validation_base@_WV?$string_output_adapter@_W@__crt_stdio_output@@@2@@__crt_stdio_output@@AAE_N_W@Z 10031382 f i libucrt:output.obj
 0001:00030429       ?type_case_c_tchar@?$output_processor@_WV?$string_output_adapter@_W@__crt_stdio_output@@V?$positional_parameter_base@_WV?$string_output_adapter@_W@__crt_stdio_output@@@2@@__crt_stdio_output@@AAE_N_W@Z 10031429 f i libucrt:output.obj
 0001:000304f4       ?type_case_c_tchar@?$output_processor@_WV?$string_output_adapter@_W@__crt_stdio_output@@V?$standard_base@_WV?$string_output_adapter@_W@__crt_stdio_output@@@2@@__crt_stdio_output@@AAE_N_W@Z 100314f4 f i libucrt:output.obj
 0001:0003059b       ?type_case_d@?$output_processor@DV?$stream_output_adapter@D@__crt_stdio_output@@V?$format_validation_base@DV?$stream_output_adapter@D@__crt_stdio_output@@@2@@__crt_stdio_output@@AAE_NXZ 1003159b f i libucrt:output.obj
 0001:000305a7       ?type_case_d@?$output_processor@DV?$stream_output_adapter@D@__crt_stdio_output@@V?$positional_parameter_base@DV?$stream_output_adapter@D@__crt_stdio_output@@@2@@__crt_stdio_output@@AAE_NXZ 100315a7 f i libucrt:output.obj
 0001:000305b3       ?type_case_d@?$output_processor@DV?$stream_output_adapter@D@__crt_stdio_output@@V?$standard_base@DV?$stream_output_adapter@D@__crt_stdio_output@@@2@@__crt_stdio_output@@AAE_NXZ 100315b3 f i libucrt:output.obj
 0001:000305bf       ?type_case_d@?$output_processor@DV?$string_output_adapter@D@__crt_stdio_output@@V?$format_validation_base@DV?$string_output_adapter@D@__crt_stdio_output@@@2@@__crt_stdio_output@@AAE_NXZ 100315bf f i libucrt:output.obj
 0001:000305cb       ?type_case_d@?$output_processor@DV?$string_output_adapter@D@__crt_stdio_output@@V?$positional_parameter_base@DV?$string_output_adapter@D@__crt_stdio_output@@@2@@__crt_stdio_output@@AAE_NXZ 100315cb f i libucrt:output.obj
 0001:000305d7       ?type_case_d@?$output_processor@DV?$string_output_adapter@D@__crt_stdio_output@@V?$standard_base@DV?$string_output_adapter@D@__crt_stdio_output@@@2@@__crt_stdio_output@@AAE_NXZ 100315d7 f i libucrt:output.obj
 0001:000305e3       ?type_case_d@?$output_processor@_WV?$stream_output_adapter@_W@__crt_stdio_output@@V?$format_validation_base@_WV?$stream_output_adapter@_W@__crt_stdio_output@@@2@@__crt_stdio_output@@AAE_NXZ 100315e3 f i libucrt:output.obj
 0001:000305ef       ?type_case_d@?$output_processor@_WV?$stream_output_adapter@_W@__crt_stdio_output@@V?$positional_parameter_base@_WV?$stream_output_adapter@_W@__crt_stdio_output@@@2@@__crt_stdio_output@@AAE_NXZ 100315ef f i libucrt:output.obj
 0001:000305fb       ?type_case_d@?$output_processor@_WV?$stream_output_adapter@_W@__crt_stdio_output@@V?$standard_base@_WV?$stream_output_adapter@_W@__crt_stdio_output@@@2@@__crt_stdio_output@@AAE_NXZ 100315fb f i libucrt:output.obj
 0001:00030607       ?type_case_d@?$output_processor@_WV?$string_output_adapter@_W@__crt_stdio_output@@V?$format_validation_base@_WV?$string_output_adapter@_W@__crt_stdio_output@@@2@@__crt_stdio_output@@AAE_NXZ 10031607 f i libucrt:output.obj
 0001:00030613       ?type_case_d@?$output_processor@_WV?$string_output_adapter@_W@__crt_stdio_output@@V?$positional_parameter_base@_WV?$string_output_adapter@_W@__crt_stdio_output@@@2@@__crt_stdio_output@@AAE_NXZ 10031613 f i libucrt:output.obj
 0001:0003061f       ?type_case_d@?$output_processor@_WV?$string_output_adapter@_W@__crt_stdio_output@@V?$standard_base@_WV?$string_output_adapter@_W@__crt_stdio_output@@@2@@__crt_stdio_output@@AAE_NXZ 1003161f f i libucrt:output.obj
 0001:0003062b       ?type_case_n@?$output_processor@DV?$stream_output_adapter@D@__crt_stdio_output@@V?$format_validation_base@DV?$stream_output_adapter@D@__crt_stdio_output@@@2@@__crt_stdio_output@@AAE_NXZ 1003162b f i libucrt:output.obj
 0001:000306af       ?type_case_n@?$output_processor@DV?$stream_output_adapter@D@__crt_stdio_output@@V?$positional_parameter_base@DV?$stream_output_adapter@D@__crt_stdio_output@@@2@@__crt_stdio_output@@AAE_NXZ 100316af f i libucrt:output.obj
 0001:0003075c       ?type_case_n@?$output_processor@DV?$stream_output_adapter@D@__crt_stdio_output@@V?$standard_base@DV?$stream_output_adapter@D@__crt_stdio_output@@@2@@__crt_stdio_output@@AAE_NXZ 1003175c f i libucrt:output.obj
 0001:000307e0       ?type_case_n@?$output_processor@DV?$string_output_adapter@D@__crt_stdio_output@@V?$format_validation_base@DV?$string_output_adapter@D@__crt_stdio_output@@@2@@__crt_stdio_output@@AAE_NXZ 100317e0 f i libucrt:output.obj
 0001:00030864       ?type_case_n@?$output_processor@DV?$string_output_adapter@D@__crt_stdio_output@@V?$positional_parameter_base@DV?$string_output_adapter@D@__crt_stdio_output@@@2@@__crt_stdio_output@@AAE_NXZ 10031864 f i libucrt:output.obj
 0001:00030911       ?type_case_n@?$output_processor@DV?$string_output_adapter@D@__crt_stdio_output@@V?$standard_base@DV?$string_output_adapter@D@__crt_stdio_output@@@2@@__crt_stdio_output@@AAE_NXZ 10031911 f i libucrt:output.obj
 0001:00030995       ?type_case_n@?$output_processor@_WV?$stream_output_adapter@_W@__crt_stdio_output@@V?$format_validation_base@_WV?$stream_output_adapter@_W@__crt_stdio_output@@@2@@__crt_stdio_output@@AAE_NXZ 10031995 f i libucrt:output.obj
 0001:00030a19       ?type_case_n@?$output_processor@_WV?$stream_output_adapter@_W@__crt_stdio_output@@V?$positional_parameter_base@_WV?$stream_output_adapter@_W@__crt_stdio_output@@@2@@__crt_stdio_output@@AAE_NXZ 10031a19 f i libucrt:output.obj
 0001:00030ac6       ?type_case_n@?$output_processor@_WV?$stream_output_adapter@_W@__crt_stdio_output@@V?$standard_base@_WV?$stream_output_adapter@_W@__crt_stdio_output@@@2@@__crt_stdio_output@@AAE_NXZ 10031ac6 f i libucrt:output.obj
 0001:00030b4a       ?type_case_n@?$output_processor@_WV?$string_output_adapter@_W@__crt_stdio_output@@V?$format_validation_base@_WV?$string_output_adapter@_W@__crt_stdio_output@@@2@@__crt_stdio_output@@AAE_NXZ 10031b4a f i libucrt:output.obj
 0001:00030bce       ?type_case_n@?$output_processor@_WV?$string_output_adapter@_W@__crt_stdio_output@@V?$positional_parameter_base@_WV?$string_output_adapter@_W@__crt_stdio_output@@@2@@__crt_stdio_output@@AAE_NXZ 10031bce f i libucrt:output.obj
 0001:00030c7b       ?type_case_n@?$output_processor@_WV?$string_output_adapter@_W@__crt_stdio_output@@V?$standard_base@_WV?$string_output_adapter@_W@__crt_stdio_output@@@2@@__crt_stdio_output@@AAE_NXZ 10031c7b f i libucrt:output.obj
 0001:00030cff       ?type_case_o@?$output_processor@DV?$stream_output_adapter@D@__crt_stdio_output@@V?$format_validation_base@DV?$stream_output_adapter@D@__crt_stdio_output@@@2@@__crt_stdio_output@@AAE_NXZ 10031cff f i libucrt:output.obj
 0001:00030d1c       ?type_case_o@?$output_processor@DV?$stream_output_adapter@D@__crt_stdio_output@@V?$positional_parameter_base@DV?$stream_output_adapter@D@__crt_stdio_output@@@2@@__crt_stdio_output@@AAE_NXZ 10031d1c f i libucrt:output.obj
 0001:00030d39       ?type_case_o@?$output_processor@DV?$stream_output_adapter@D@__crt_stdio_output@@V?$standard_base@DV?$stream_output_adapter@D@__crt_stdio_output@@@2@@__crt_stdio_output@@AAE_NXZ 10031d39 f i libucrt:output.obj
 0001:00030d56       ?type_case_o@?$output_processor@DV?$string_output_adapter@D@__crt_stdio_output@@V?$format_validation_base@DV?$string_output_adapter@D@__crt_stdio_output@@@2@@__crt_stdio_output@@AAE_NXZ 10031d56 f i libucrt:output.obj
 0001:00030d73       ?type_case_o@?$output_processor@DV?$string_output_adapter@D@__crt_stdio_output@@V?$positional_parameter_base@DV?$string_output_adapter@D@__crt_stdio_output@@@2@@__crt_stdio_output@@AAE_NXZ 10031d73 f i libucrt:output.obj
 0001:00030d90       ?type_case_o@?$output_processor@DV?$string_output_adapter@D@__crt_stdio_output@@V?$standard_base@DV?$string_output_adapter@D@__crt_stdio_output@@@2@@__crt_stdio_output@@AAE_NXZ 10031d90 f i libucrt:output.obj
 0001:00030dad       ?type_case_o@?$output_processor@_WV?$stream_output_adapter@_W@__crt_stdio_output@@V?$format_validation_base@_WV?$stream_output_adapter@_W@__crt_stdio_output@@@2@@__crt_stdio_output@@AAE_NXZ 10031dad f i libucrt:output.obj
 0001:00030dca       ?type_case_o@?$output_processor@_WV?$stream_output_adapter@_W@__crt_stdio_output@@V?$positional_parameter_base@_WV?$stream_output_adapter@_W@__crt_stdio_output@@@2@@__crt_stdio_output@@AAE_NXZ 10031dca f i libucrt:output.obj
 0001:00030de7       ?type_case_o@?$output_processor@_WV?$stream_output_adapter@_W@__crt_stdio_output@@V?$standard_base@_WV?$stream_output_adapter@_W@__crt_stdio_output@@@2@@__crt_stdio_output@@AAE_NXZ 10031de7 f i libucrt:output.obj
 0001:00030e04       ?type_case_o@?$output_processor@_WV?$string_output_adapter@_W@__crt_stdio_output@@V?$format_validation_base@_WV?$string_output_adapter@_W@__crt_stdio_output@@@2@@__crt_stdio_output@@AAE_NXZ 10031e04 f i libucrt:output.obj
 0001:00030e21       ?type_case_o@?$output_processor@_WV?$string_output_adapter@_W@__crt_stdio_output@@V?$positional_parameter_base@_WV?$string_output_adapter@_W@__crt_stdio_output@@@2@@__crt_stdio_output@@AAE_NXZ 10031e21 f i libucrt:output.obj
 0001:00030e3e       ?type_case_o@?$output_processor@_WV?$string_output_adapter@_W@__crt_stdio_output@@V?$standard_base@_WV?$string_output_adapter@_W@__crt_stdio_output@@@2@@__crt_stdio_output@@AAE_NXZ 10031e3e f i libucrt:output.obj
 0001:00030e5b       ?type_case_p@?$output_processor@DV?$stream_output_adapter@D@__crt_stdio_output@@V?$format_validation_base@DV?$stream_output_adapter@D@__crt_stdio_output@@@2@@__crt_stdio_output@@AAE_NXZ 10031e5b f i libucrt:output.obj
 0001:00030e71       ?type_case_p@?$output_processor@DV?$stream_output_adapter@D@__crt_stdio_output@@V?$positional_parameter_base@DV?$stream_output_adapter@D@__crt_stdio_output@@@2@@__crt_stdio_output@@AAE_NXZ 10031e71 f i libucrt:output.obj
 0001:00030e87       ?type_case_p@?$output_processor@DV?$stream_output_adapter@D@__crt_stdio_output@@V?$standard_base@DV?$stream_output_adapter@D@__crt_stdio_output@@@2@@__crt_stdio_output@@AAE_NXZ 10031e87 f i libucrt:output.obj
 0001:00030e9d       ?type_case_p@?$output_processor@DV?$string_output_adapter@D@__crt_stdio_output@@V?$format_validation_base@DV?$string_output_adapter@D@__crt_stdio_output@@@2@@__crt_stdio_output@@AAE_NXZ 10031e9d f i libucrt:output.obj
 0001:00030eb3       ?type_case_p@?$output_processor@DV?$string_output_adapter@D@__crt_stdio_output@@V?$positional_parameter_base@DV?$string_output_adapter@D@__crt_stdio_output@@@2@@__crt_stdio_output@@AAE_NXZ 10031eb3 f i libucrt:output.obj
 0001:00030ec9       ?type_case_p@?$output_processor@DV?$string_output_adapter@D@__crt_stdio_output@@V?$standard_base@DV?$string_output_adapter@D@__crt_stdio_output@@@2@@__crt_stdio_output@@AAE_NXZ 10031ec9 f i libucrt:output.obj
 0001:00030edf       ?type_case_p@?$output_processor@_WV?$stream_output_adapter@_W@__crt_stdio_output@@V?$format_validation_base@_WV?$stream_output_adapter@_W@__crt_stdio_output@@@2@@__crt_stdio_output@@AAE_NXZ 10031edf f i libucrt:output.obj
 0001:00030ef5       ?type_case_p@?$output_processor@_WV?$stream_output_adapter@_W@__crt_stdio_output@@V?$positional_parameter_base@_WV?$stream_output_adapter@_W@__crt_stdio_output@@@2@@__crt_stdio_output@@AAE_NXZ 10031ef5 f i libucrt:output.obj
 0001:00030f0b       ?type_case_p@?$output_processor@_WV?$stream_output_adapter@_W@__crt_stdio_output@@V?$standard_base@_WV?$stream_output_adapter@_W@__crt_stdio_output@@@2@@__crt_stdio_output@@AAE_NXZ 10031f0b f i libucrt:output.obj
 0001:00030f21       ?type_case_p@?$output_processor@_WV?$string_output_adapter@_W@__crt_stdio_output@@V?$format_validation_base@_WV?$string_output_adapter@_W@__crt_stdio_output@@@2@@__crt_stdio_output@@AAE_NXZ 10031f21 f i libucrt:output.obj
 0001:00030f37       ?type_case_p@?$output_processor@_WV?$string_output_adapter@_W@__crt_stdio_output@@V?$positional_parameter_base@_WV?$string_output_adapter@_W@__crt_stdio_output@@@2@@__crt_stdio_output@@AAE_NXZ 10031f37 f i libucrt:output.obj
 0001:00030f4d       ?type_case_p@?$output_processor@_WV?$string_output_adapter@_W@__crt_stdio_output@@V?$standard_base@_WV?$string_output_adapter@_W@__crt_stdio_output@@@2@@__crt_stdio_output@@AAE_NXZ 10031f4d f i libucrt:output.obj
 0001:00030f63       ?type_case_s@?$output_processor@DV?$stream_output_adapter@D@__crt_stdio_output@@V?$format_validation_base@DV?$stream_output_adapter@D@__crt_stdio_output@@@2@@__crt_stdio_output@@AAE_NXZ 10031f63 f i libucrt:output.obj
 0001:00030fd4       ?type_case_s@?$output_processor@DV?$stream_output_adapter@D@__crt_stdio_output@@V?$positional_parameter_base@DV?$stream_output_adapter@D@__crt_stdio_output@@@2@@__crt_stdio_output@@AAE_NXZ 10031fd4 f i libucrt:output.obj
 0001:00031052       ?type_case_s@?$output_processor@DV?$stream_output_adapter@D@__crt_stdio_output@@V?$standard_base@DV?$stream_output_adapter@D@__crt_stdio_output@@@2@@__crt_stdio_output@@AAE_NXZ 10032052 f i libucrt:output.obj
 0001:000310c3       ?type_case_s@?$output_processor@DV?$string_output_adapter@D@__crt_stdio_output@@V?$format_validation_base@DV?$string_output_adapter@D@__crt_stdio_output@@@2@@__crt_stdio_output@@AAE_NXZ 100320c3 f i libucrt:output.obj
 0001:00031134       ?type_case_s@?$output_processor@DV?$string_output_adapter@D@__crt_stdio_output@@V?$positional_parameter_base@DV?$string_output_adapter@D@__crt_stdio_output@@@2@@__crt_stdio_output@@AAE_NXZ 10032134 f i libucrt:output.obj
 0001:000311b2       ?type_case_s@?$output_processor@DV?$string_output_adapter@D@__crt_stdio_output@@V?$standard_base@DV?$string_output_adapter@D@__crt_stdio_output@@@2@@__crt_stdio_output@@AAE_NXZ 100321b2 f i libucrt:output.obj
 0001:00031223       ?type_case_s@?$output_processor@_WV?$stream_output_adapter@_W@__crt_stdio_output@@V?$format_validation_base@_WV?$stream_output_adapter@_W@__crt_stdio_output@@@2@@__crt_stdio_output@@AAE_NXZ 10032223 f i libucrt:output.obj
 0001:00031296       ?type_case_s@?$output_processor@_WV?$stream_output_adapter@_W@__crt_stdio_output@@V?$positional_parameter_base@_WV?$stream_output_adapter@_W@__crt_stdio_output@@@2@@__crt_stdio_output@@AAE_NXZ 10032296 f i libucrt:output.obj
 0001:00031316       ?type_case_s@?$output_processor@_WV?$stream_output_adapter@_W@__crt_stdio_output@@V?$standard_base@_WV?$stream_output_adapter@_W@__crt_stdio_output@@@2@@__crt_stdio_output@@AAE_NXZ 10032316 f i libucrt:output.obj
 0001:00031389       ?type_case_s@?$output_processor@_WV?$string_output_adapter@_W@__crt_stdio_output@@V?$format_validation_base@_WV?$string_output_adapter@_W@__crt_stdio_output@@@2@@__crt_stdio_output@@AAE_NXZ 10032389 f i libucrt:output.obj
 0001:000313fc       ?type_case_s@?$output_processor@_WV?$string_output_adapter@_W@__crt_stdio_output@@V?$positional_parameter_base@_WV?$string_output_adapter@_W@__crt_stdio_output@@@2@@__crt_stdio_output@@AAE_NXZ 100323fc f i libucrt:output.obj
 0001:0003147c       ?type_case_s@?$output_processor@_WV?$string_output_adapter@_W@__crt_stdio_output@@V?$standard_base@_WV?$string_output_adapter@_W@__crt_stdio_output@@@2@@__crt_stdio_output@@AAE_NXZ 1003247c f i libucrt:output.obj
 0001:000314ef       ?type_case_s_compute_narrow_string_length@?$output_processor@DV?$stream_output_adapter@D@__crt_stdio_output@@V?$format_validation_base@DV?$stream_output_adapter@D@__crt_stdio_output@@@2@@__crt_stdio_output@@AAEHHD@Z 100324ef f i libucrt:output.obj
 0001:00031505       ?type_case_s_compute_narrow_string_length@?$output_processor@DV?$stream_output_adapter@D@__crt_stdio_output@@V?$positional_parameter_base@DV?$stream_output_adapter@D@__crt_stdio_output@@@2@@__crt_stdio_output@@AAEHHD@Z 10032505 f i libucrt:output.obj
 0001:0003151b       ?type_case_s_compute_narrow_string_length@?$output_processor@DV?$stream_output_adapter@D@__crt_stdio_output@@V?$standard_base@DV?$stream_output_adapter@D@__crt_stdio_output@@@2@@__crt_stdio_output@@AAEHHD@Z 1003251b f i libucrt:output.obj
 0001:00031531       ?type_case_s_compute_narrow_string_length@?$output_processor@DV?$string_output_adapter@D@__crt_stdio_output@@V?$format_validation_base@DV?$string_output_adapter@D@__crt_stdio_output@@@2@@__crt_stdio_output@@AAEHHD@Z 10032531 f i libucrt:output.obj
 0001:00031547       ?type_case_s_compute_narrow_string_length@?$output_processor@DV?$string_output_adapter@D@__crt_stdio_output@@V?$positional_parameter_base@DV?$string_output_adapter@D@__crt_stdio_output@@@2@@__crt_stdio_output@@AAEHHD@Z 10032547 f i libucrt:output.obj
 0001:0003155d       ?type_case_s_compute_narrow_string_length@?$output_processor@DV?$string_output_adapter@D@__crt_stdio_output@@V?$standard_base@DV?$string_output_adapter@D@__crt_stdio_output@@@2@@__crt_stdio_output@@AAEHHD@Z 1003255d f i libucrt:output.obj
 0001:00031573       ?type_case_s_compute_narrow_string_length@?$output_processor@_WV?$stream_output_adapter@_W@__crt_stdio_output@@V?$format_validation_base@_WV?$stream_output_adapter@_W@__crt_stdio_output@@@2@@__crt_stdio_output@@AAEHH_W@Z 10032573 f i libucrt:output.obj
 0001:000315c8       ?type_case_s_compute_narrow_string_length@?$output_processor@_WV?$stream_output_adapter@_W@__crt_stdio_output@@V?$positional_parameter_base@_WV?$stream_output_adapter@_W@__crt_stdio_output@@@2@@__crt_stdio_output@@AAEHH_W@Z 100325c8 f i libucrt:output.obj
 0001:0003161d       ?type_case_s_compute_narrow_string_length@?$output_processor@_WV?$stream_output_adapter@_W@__crt_stdio_output@@V?$standard_base@_WV?$stream_output_adapter@_W@__crt_stdio_output@@@2@@__crt_stdio_output@@AAEHH_W@Z 1003261d f i libucrt:output.obj
 0001:00031672       ?type_case_s_compute_narrow_string_length@?$output_processor@_WV?$string_output_adapter@_W@__crt_stdio_output@@V?$format_validation_base@_WV?$string_output_adapter@_W@__crt_stdio_output@@@2@@__crt_stdio_output@@AAEHH_W@Z 10032672 f i libucrt:output.obj
 0001:000316c7       ?type_case_s_compute_narrow_string_length@?$output_processor@_WV?$string_output_adapter@_W@__crt_stdio_output@@V?$positional_parameter_base@_WV?$string_output_adapter@_W@__crt_stdio_output@@@2@@__crt_stdio_output@@AAEHH_W@Z 100326c7 f i libucrt:output.obj
 0001:0003171c       ?type_case_s_compute_narrow_string_length@?$output_processor@_WV?$string_output_adapter@_W@__crt_stdio_output@@V?$standard_base@_WV?$string_output_adapter@_W@__crt_stdio_output@@@2@@__crt_stdio_output@@AAEHH_W@Z 1003271c f i libucrt:output.obj
 0001:00031771       ?type_case_u@?$output_processor@DV?$stream_output_adapter@D@__crt_stdio_output@@V?$format_validation_base@DV?$stream_output_adapter@D@__crt_stdio_output@@@2@@__crt_stdio_output@@AAE_NXZ 10032771 f i libucrt:output.obj
 0001:00031779       ?type_case_u@?$output_processor@DV?$stream_output_adapter@D@__crt_stdio_output@@V?$positional_parameter_base@DV?$stream_output_adapter@D@__crt_stdio_output@@@2@@__crt_stdio_output@@AAE_NXZ 10032779 f i libucrt:output.obj
 0001:00031781       ?type_case_u@?$output_processor@DV?$stream_output_adapter@D@__crt_stdio_output@@V?$standard_base@DV?$stream_output_adapter@D@__crt_stdio_output@@@2@@__crt_stdio_output@@AAE_NXZ 10032781 f i libucrt:output.obj
 0001:00031789       ?type_case_u@?$output_processor@DV?$string_output_adapter@D@__crt_stdio_output@@V?$format_validation_base@DV?$string_output_adapter@D@__crt_stdio_output@@@2@@__crt_stdio_output@@AAE_NXZ 10032789 f i libucrt:output.obj
 0001:00031791       ?type_case_u@?$output_processor@DV?$string_output_adapter@D@__crt_stdio_output@@V?$positional_parameter_base@DV?$string_output_adapter@D@__crt_stdio_output@@@2@@__crt_stdio_output@@AAE_NXZ 10032791 f i libucrt:output.obj
 0001:00031799       ?type_case_u@?$output_processor@DV?$string_output_adapter@D@__crt_stdio_output@@V?$standard_base@DV?$string_output_adapter@D@__crt_stdio_output@@@2@@__crt_stdio_output@@AAE_NXZ 10032799 f i libucrt:output.obj
 0001:000317a1       ?type_case_u@?$output_processor@_WV?$stream_output_adapter@_W@__crt_stdio_output@@V?$format_validation_base@_WV?$stream_output_adapter@_W@__crt_stdio_output@@@2@@__crt_stdio_output@@AAE_NXZ 100327a1 f i libucrt:output.obj
 0001:000317a9       ?type_case_u@?$output_processor@_WV?$stream_output_adapter@_W@__crt_stdio_output@@V?$positional_parameter_base@_WV?$stream_output_adapter@_W@__crt_stdio_output@@@2@@__crt_stdio_output@@AAE_NXZ 100327a9 f i libucrt:output.obj
 0001:000317b1       ?type_case_u@?$output_processor@_WV?$stream_output_adapter@_W@__crt_stdio_output@@V?$standard_base@_WV?$stream_output_adapter@_W@__crt_stdio_output@@@2@@__crt_stdio_output@@AAE_NXZ 100327b1 f i libucrt:output.obj
 0001:000317b9       ?type_case_u@?$output_processor@_WV?$string_output_adapter@_W@__crt_stdio_output@@V?$format_validation_base@_WV?$string_output_adapter@_W@__crt_stdio_output@@@2@@__crt_stdio_output@@AAE_NXZ 100327b9 f i libucrt:output.obj
 0001:000317c1       ?type_case_u@?$output_processor@_WV?$string_output_adapter@_W@__crt_stdio_output@@V?$positional_parameter_base@_WV?$string_output_adapter@_W@__crt_stdio_output@@@2@@__crt_stdio_output@@AAE_NXZ 100327c1 f i libucrt:output.obj
 0001:000317c9       ?type_case_u@?$output_processor@_WV?$string_output_adapter@_W@__crt_stdio_output@@V?$standard_base@_WV?$string_output_adapter@_W@__crt_stdio_output@@@2@@__crt_stdio_output@@AAE_NXZ 100327c9 f i libucrt:output.obj
 0001:000317d1       ?type_case_x@?$output_processor@DV?$stream_output_adapter@D@__crt_stdio_output@@V?$format_validation_base@DV?$stream_output_adapter@D@__crt_stdio_output@@@2@@__crt_stdio_output@@AAE_NXZ 100327d1 f i libucrt:output.obj
 0001:000317d9       ?type_case_x@?$output_processor@DV?$stream_output_adapter@D@__crt_stdio_output@@V?$positional_parameter_base@DV?$stream_output_adapter@D@__crt_stdio_output@@@2@@__crt_stdio_output@@AAE_NXZ 100327d9 f i libucrt:output.obj
 0001:000317e1       ?type_case_x@?$output_processor@DV?$stream_output_adapter@D@__crt_stdio_output@@V?$standard_base@DV?$stream_output_adapter@D@__crt_stdio_output@@@2@@__crt_stdio_output@@AAE_NXZ 100327e1 f i libucrt:output.obj
 0001:000317e9       ?type_case_x@?$output_processor@DV?$string_output_adapter@D@__crt_stdio_output@@V?$format_validation_base@DV?$string_output_adapter@D@__crt_stdio_output@@@2@@__crt_stdio_output@@AAE_NXZ 100327e9 f i libucrt:output.obj
 0001:000317f1       ?type_case_x@?$output_processor@DV?$string_output_adapter@D@__crt_stdio_output@@V?$positional_parameter_base@DV?$string_output_adapter@D@__crt_stdio_output@@@2@@__crt_stdio_output@@AAE_NXZ 100327f1 f i libucrt:output.obj
 0001:000317f9       ?type_case_x@?$output_processor@DV?$string_output_adapter@D@__crt_stdio_output@@V?$standard_base@DV?$string_output_adapter@D@__crt_stdio_output@@@2@@__crt_stdio_output@@AAE_NXZ 100327f9 f i libucrt:output.obj
 0001:00031801       ?type_case_x@?$output_processor@_WV?$stream_output_adapter@_W@__crt_stdio_output@@V?$format_validation_base@_WV?$stream_output_adapter@_W@__crt_stdio_output@@@2@@__crt_stdio_output@@AAE_NXZ 10032801 f i libucrt:output.obj
 0001:00031809       ?type_case_x@?$output_processor@_WV?$stream_output_adapter@_W@__crt_stdio_output@@V?$positional_parameter_base@_WV?$stream_output_adapter@_W@__crt_stdio_output@@@2@@__crt_stdio_output@@AAE_NXZ 10032809 f i libucrt:output.obj
 0001:00031811       ?type_case_x@?$output_processor@_WV?$stream_output_adapter@_W@__crt_stdio_output@@V?$standard_base@_WV?$stream_output_adapter@_W@__crt_stdio_output@@@2@@__crt_stdio_output@@AAE_NXZ 10032811 f i libucrt:output.obj
 0001:00031819       ?type_case_x@?$output_processor@_WV?$string_output_adapter@_W@__crt_stdio_output@@V?$format_validation_base@_WV?$string_output_adapter@_W@__crt_stdio_output@@@2@@__crt_stdio_output@@AAE_NXZ 10032819 f i libucrt:output.obj
 0001:00031821       ?type_case_x@?$output_processor@_WV?$string_output_adapter@_W@__crt_stdio_output@@V?$positional_parameter_base@_WV?$string_output_adapter@_W@__crt_stdio_output@@@2@@__crt_stdio_output@@AAE_NXZ 10032821 f i libucrt:output.obj
 0001:00031829       ?type_case_x@?$output_processor@_WV?$string_output_adapter@_W@__crt_stdio_output@@V?$standard_base@_WV?$string_output_adapter@_W@__crt_stdio_output@@@2@@__crt_stdio_output@@AAE_NXZ 10032829 f i libucrt:output.obj
 0001:00031831       ?unget@?$c_string_character_source@D@__crt_strtox@@QAEXD@Z 10032831 f i libucrt:output.obj
 0001:0003185a       ?unget@?$c_string_character_source@_W@__crt_strtox@@QAEX_W@Z 1003285a f i libucrt:output.obj
 0001:00031888       ?unset_flag@?$output_processor@DV?$stream_output_adapter@D@__crt_stdio_output@@V?$format_validation_base@DV?$stream_output_adapter@D@__crt_stdio_output@@@2@@__crt_stdio_output@@AAEXI@Z 10032888 f i libucrt:output.obj
 0001:00031899       ?unset_flag@?$output_processor@DV?$stream_output_adapter@D@__crt_stdio_output@@V?$positional_parameter_base@DV?$stream_output_adapter@D@__crt_stdio_output@@@2@@__crt_stdio_output@@AAEXI@Z 10032899 f i libucrt:output.obj
 0001:000318aa       ?unset_flag@?$output_processor@DV?$stream_output_adapter@D@__crt_stdio_output@@V?$standard_base@DV?$stream_output_adapter@D@__crt_stdio_output@@@2@@__crt_stdio_output@@AAEXI@Z 100328aa f i libucrt:output.obj
 0001:000318bb       ?unset_flag@?$output_processor@DV?$string_output_adapter@D@__crt_stdio_output@@V?$format_validation_base@DV?$string_output_adapter@D@__crt_stdio_output@@@2@@__crt_stdio_output@@AAEXI@Z 100328bb f i libucrt:output.obj
 0001:000318cc       ?unset_flag@?$output_processor@DV?$string_output_adapter@D@__crt_stdio_output@@V?$positional_parameter_base@DV?$string_output_adapter@D@__crt_stdio_output@@@2@@__crt_stdio_output@@AAEXI@Z 100328cc f i libucrt:output.obj
 0001:000318dd       ?unset_flag@?$output_processor@DV?$string_output_adapter@D@__crt_stdio_output@@V?$standard_base@DV?$string_output_adapter@D@__crt_stdio_output@@@2@@__crt_stdio_output@@AAEXI@Z 100328dd f i libucrt:output.obj
 0001:000318ee       ?unset_flag@?$output_processor@_WV?$stream_output_adapter@_W@__crt_stdio_output@@V?$format_validation_base@_WV?$stream_output_adapter@_W@__crt_stdio_output@@@2@@__crt_stdio_output@@AAEXI@Z 100328ee f i libucrt:output.obj
 0001:000318ff       ?unset_flag@?$output_processor@_WV?$stream_output_adapter@_W@__crt_stdio_output@@V?$positional_parameter_base@_WV?$stream_output_adapter@_W@__crt_stdio_output@@@2@@__crt_stdio_output@@AAEXI@Z 100328ff f i libucrt:output.obj
 0001:00031910       ?unset_flag@?$output_processor@_WV?$stream_output_adapter@_W@__crt_stdio_output@@V?$standard_base@_WV?$stream_output_adapter@_W@__crt_stdio_output@@@2@@__crt_stdio_output@@AAEXI@Z 10032910 f i libucrt:output.obj
 0001:00031921       ?unset_flag@?$output_processor@_WV?$string_output_adapter@_W@__crt_stdio_output@@V?$format_validation_base@_WV?$string_output_adapter@_W@__crt_stdio_output@@@2@@__crt_stdio_output@@AAEXI@Z 10032921 f i libucrt:output.obj
 0001:00031932       ?unset_flag@?$output_processor@_WV?$string_output_adapter@_W@__crt_stdio_output@@V?$positional_parameter_base@_WV?$string_output_adapter@_W@__crt_stdio_output@@@2@@__crt_stdio_output@@AAEXI@Z 10032932 f i libucrt:output.obj
 0001:00031943       ?unset_flag@?$output_processor@_WV?$string_output_adapter@_W@__crt_stdio_output@@V?$standard_base@_WV?$string_output_adapter@_W@__crt_stdio_output@@@2@@__crt_stdio_output@@AAEXI@Z 10032943 f i libucrt:output.obj
 0001:00031954       ?update_field_width@?$positional_parameter_base@DV?$stream_output_adapter@D@__crt_stdio_output@@@__crt_stdio_output@@IAE_NXZ 10032954 f i libucrt:output.obj
 0001:00031a28       ?update_field_width@?$positional_parameter_base@DV?$string_output_adapter@D@__crt_stdio_output@@@__crt_stdio_output@@IAE_NXZ 10032a28 f i libucrt:output.obj
 0001:00031afc       ?update_field_width@?$positional_parameter_base@_WV?$stream_output_adapter@_W@__crt_stdio_output@@@__crt_stdio_output@@IAE_NXZ 10032afc f i libucrt:output.obj
 0001:00031bd1       ?update_field_width@?$positional_parameter_base@_WV?$string_output_adapter@_W@__crt_stdio_output@@@__crt_stdio_output@@IAE_NXZ 10032bd1 f i libucrt:output.obj
 0001:00031ca6       ?update_field_width@?$standard_base@DV?$stream_output_adapter@D@__crt_stdio_output@@@__crt_stdio_output@@IAE_NXZ 10032ca6 f i libucrt:output.obj
 0001:00031cb6       ?update_field_width@?$standard_base@DV?$string_output_adapter@D@__crt_stdio_output@@@__crt_stdio_output@@IAE_NXZ 10032cb6 f i libucrt:output.obj
 0001:00031cc6       ?update_field_width@?$standard_base@_WV?$stream_output_adapter@_W@__crt_stdio_output@@@__crt_stdio_output@@IAE_NXZ 10032cc6 f i libucrt:output.obj
 0001:00031cd6       ?update_field_width@?$standard_base@_WV?$string_output_adapter@_W@__crt_stdio_output@@@__crt_stdio_output@@IAE_NXZ 10032cd6 f i libucrt:output.obj
 0001:00031cf0       ?update_locale@__crt_cached_ptd_host@@AAEXXZ 10032cf0 f i libucrt:output.obj
 0001:00031d00       ?update_locale_slow@__crt_cached_ptd_host@@AAEXXZ 10032d00 f i libucrt:output.obj
 0001:00031d5b       ?update_precision@?$positional_parameter_base@DV?$stream_output_adapter@D@__crt_stdio_output@@@__crt_stdio_output@@IAE_NXZ 10032d5b f i libucrt:output.obj
 0001:00031e2f       ?update_precision@?$positional_parameter_base@DV?$string_output_adapter@D@__crt_stdio_output@@@__crt_stdio_output@@IAE_NXZ 10032e2f f i libucrt:output.obj
 0001:00031f03       ?update_precision@?$positional_parameter_base@_WV?$stream_output_adapter@_W@__crt_stdio_output@@@__crt_stdio_output@@IAE_NXZ 10032f03 f i libucrt:output.obj
 0001:00031fd8       ?update_precision@?$positional_parameter_base@_WV?$string_output_adapter@_W@__crt_stdio_output@@@__crt_stdio_output@@IAE_NXZ 10032fd8 f i libucrt:output.obj
 0001:000320ad       ?update_precision@?$standard_base@DV?$stream_output_adapter@D@__crt_stdio_output@@@__crt_stdio_output@@IAE_NXZ 100330ad f i libucrt:output.obj
 0001:000320bd       ?update_precision@?$standard_base@DV?$string_output_adapter@D@__crt_stdio_output@@@__crt_stdio_output@@IAE_NXZ 100330bd f i libucrt:output.obj
 0001:000320cd       ?update_precision@?$standard_base@_WV?$stream_output_adapter@_W@__crt_stdio_output@@@__crt_stdio_output@@IAE_NXZ 100330cd f i libucrt:output.obj
 0001:000320dd       ?update_precision@?$standard_base@_WV?$string_output_adapter@_W@__crt_stdio_output@@@__crt_stdio_output@@IAE_NXZ 100330dd f i libucrt:output.obj
 0001:000320ed       ?valid@__crt_stdio_stream@@QBE_NXZ 100330ed f i libucrt:output.obj
 0001:000320f4       ?validate@?$c_string_character_source@D@__crt_strtox@@QBE_NXZ 100330f4 f i libucrt:output.obj
 0001:0003210f       ?validate@?$c_string_character_source@_W@__crt_strtox@@QBE_NXZ 1003310f f i libucrt:output.obj
 0001:0003212a       ?validate@?$stream_output_adapter@D@__crt_stdio_output@@QBE_NAAV__crt_cached_ptd_host@@@Z 1003312a f i libucrt:output.obj
 0001:00032162       ?validate@?$stream_output_adapter@_W@__crt_stdio_output@@QBE_NAAV__crt_cached_ptd_host@@@Z 10033162 f i libucrt:output.obj
 0001:00032193       ?validate@?$string_output_adapter@D@__crt_stdio_output@@QBE_NAAV__crt_cached_ptd_host@@@Z 10033193 f i libucrt:output.obj
 0001:000321c4       ?validate@?$string_output_adapter@_W@__crt_stdio_output@@QBE_NAAV__crt_cached_ptd_host@@@Z 100331c4 f i libucrt:output.obj
 0001:000321f5       ?validate_and_store_parameter_data@?$positional_parameter_base@DV?$stream_output_adapter@D@__crt_stdio_output@@@__crt_stdio_output@@AAE_NAAUparameter_data@12@W4parameter_type@12@DW4length_modifier@2@@Z 100331f5 f i libucrt:output.obj
 0001:00032257       ?validate_and_store_parameter_data@?$positional_parameter_base@DV?$string_output_adapter@D@__crt_stdio_output@@@__crt_stdio_output@@AAE_NAAUparameter_data@12@W4parameter_type@12@DW4length_modifier@2@@Z 10033257 f i libucrt:output.obj
 0001:000322b9       ?validate_and_store_parameter_data@?$positional_parameter_base@_WV?$stream_output_adapter@_W@__crt_stdio_output@@@__crt_stdio_output@@AAE_NAAUparameter_data@12@W4parameter_type@12@_WW4length_modifier@2@@Z 100332b9 f i libucrt:output.obj
 0001:0003231d       ?validate_and_store_parameter_data@?$positional_parameter_base@_WV?$string_output_adapter@_W@__crt_stdio_output@@@__crt_stdio_output@@AAE_NAAUparameter_data@12@W4parameter_type@12@_WW4length_modifier@2@@Z 1003331d f i libucrt:output.obj
 0001:00032381       ?validate_and_update_state_at_beginning_of_format_character@?$positional_parameter_base@DV?$stream_output_adapter@D@__crt_stdio_output@@@__crt_stdio_output@@IAE_NXZ 10033381 f i libucrt:output.obj
 0001:0003249a       ?validate_and_update_state_at_beginning_of_format_character@?$positional_parameter_base@DV?$string_output_adapter@D@__crt_stdio_output@@@__crt_stdio_output@@IAE_NXZ 1003349a f i libucrt:output.obj
 0001:000325b3       ?validate_and_update_state_at_beginning_of_format_character@?$positional_parameter_base@_WV?$stream_output_adapter@_W@__crt_stdio_output@@@__crt_stdio_output@@IAE_NXZ 100335b3 f i libucrt:output.obj
 0001:000326d6       ?validate_and_update_state_at_beginning_of_format_character@?$positional_parameter_base@_WV?$string_output_adapter@_W@__crt_stdio_output@@@__crt_stdio_output@@IAE_NXZ 100336d6 f i libucrt:output.obj
 0001:000327f9       ?validate_and_update_state_at_beginning_of_format_character@?$standard_base@DV?$stream_output_adapter@D@__crt_stdio_output@@@__crt_stdio_output@@IAE_NXZ 100337f9 f i libucrt:output.obj
 0001:000327fc       ?validate_and_update_state_at_beginning_of_format_character@?$standard_base@DV?$string_output_adapter@D@__crt_stdio_output@@@__crt_stdio_output@@IAE_NXZ 100337fc f i libucrt:output.obj
 0001:000327ff       ?validate_and_update_state_at_beginning_of_format_character@?$standard_base@_WV?$stream_output_adapter@_W@__crt_stdio_output@@@__crt_stdio_output@@IAE_NXZ 100337ff f i libucrt:output.obj
 0001:00032802       ?validate_and_update_state_at_beginning_of_format_character@?$standard_base@_WV?$string_output_adapter@_W@__crt_stdio_output@@@__crt_stdio_output@@IAE_NXZ 10033802 f i libucrt:output.obj
 0001:00032805       ?validate_and_update_state_at_end_of_format_string@?$format_validation_base@DV?$stream_output_adapter@D@__crt_stdio_output@@@__crt_stdio_output@@IAE_NXZ 10033805 f i libucrt:output.obj
 0001:00032836       ?validate_and_update_state_at_end_of_format_string@?$format_validation_base@DV?$string_output_adapter@D@__crt_stdio_output@@@__crt_stdio_output@@IAE_NXZ 10033836 f i libucrt:output.obj
 0001:00032867       ?validate_and_update_state_at_end_of_format_string@?$format_validation_base@_WV?$stream_output_adapter@_W@__crt_stdio_output@@@__crt_stdio_output@@IAE_NXZ 10033867 f i libucrt:output.obj
 0001:00032898       ?validate_and_update_state_at_end_of_format_string@?$format_validation_base@_WV?$string_output_adapter@_W@__crt_stdio_output@@@__crt_stdio_output@@IAE_NXZ 10033898 f i libucrt:output.obj
 0001:000328c9       ?validate_and_update_state_at_end_of_format_string@?$positional_parameter_base@DV?$stream_output_adapter@D@__crt_stdio_output@@@__crt_stdio_output@@IAE_NXZ 100338c9 f i libucrt:output.obj
 0001:00032988       ?validate_and_update_state_at_end_of_format_string@?$positional_parameter_base@DV?$string_output_adapter@D@__crt_stdio_output@@@__crt_stdio_output@@IAE_NXZ 10033988 f i libucrt:output.obj
 0001:00032a47       ?validate_and_update_state_at_end_of_format_string@?$positional_parameter_base@_WV?$stream_output_adapter@_W@__crt_stdio_output@@@__crt_stdio_output@@IAE_NXZ 10033a47 f i libucrt:output.obj
 0001:00032b06       ?validate_and_update_state_at_end_of_format_string@?$positional_parameter_base@_WV?$string_output_adapter@_W@__crt_stdio_output@@@__crt_stdio_output@@IAE_NXZ 10033b06 f i libucrt:output.obj
 0001:00032bc5       ?validate_and_update_state_at_end_of_format_string@?$standard_base@DV?$stream_output_adapter@D@__crt_stdio_output@@@__crt_stdio_output@@IBE_NXZ 10033bc5 f i libucrt:output.obj
 0001:00032bc8       ?validate_and_update_state_at_end_of_format_string@?$standard_base@DV?$string_output_adapter@D@__crt_stdio_output@@@__crt_stdio_output@@IBE_NXZ 10033bc8 f i libucrt:output.obj
 0001:00032bcb       ?validate_and_update_state_at_end_of_format_string@?$standard_base@_WV?$stream_output_adapter@_W@__crt_stdio_output@@@__crt_stdio_output@@IBE_NXZ 10033bcb f i libucrt:output.obj
 0001:00032bce       ?validate_and_update_state_at_end_of_format_string@?$standard_base@_WV?$string_output_adapter@_W@__crt_stdio_output@@@__crt_stdio_output@@IBE_NXZ 10033bce f i libucrt:output.obj
 0001:00032bd1       ?validate_state_for_type_case_a@?$positional_parameter_base@DV?$stream_output_adapter@D@__crt_stdio_output@@@__crt_stdio_output@@IAE_NXZ 10033bd1 f i libucrt:output.obj
 0001:00032c30       ?validate_state_for_type_case_a@?$positional_parameter_base@DV?$string_output_adapter@D@__crt_stdio_output@@@__crt_stdio_output@@IAE_NXZ 10033c30 f i libucrt:output.obj
 0001:00032c8f       ?validate_state_for_type_case_a@?$positional_parameter_base@_WV?$stream_output_adapter@_W@__crt_stdio_output@@@__crt_stdio_output@@IAE_NXZ 10033c8f f i libucrt:output.obj
 0001:00032cee       ?validate_state_for_type_case_a@?$positional_parameter_base@_WV?$string_output_adapter@_W@__crt_stdio_output@@@__crt_stdio_output@@IAE_NXZ 10033cee f i libucrt:output.obj
 0001:00032d4d       ?validate_state_for_type_case_a@?$standard_base@DV?$stream_output_adapter@D@__crt_stdio_output@@@__crt_stdio_output@@IBE_NXZ 10033d4d f i libucrt:output.obj
 0001:00032d50       ?validate_state_for_type_case_a@?$standard_base@DV?$string_output_adapter@D@__crt_stdio_output@@@__crt_stdio_output@@IBE_NXZ 10033d50 f i libucrt:output.obj
 0001:00032d53       ?validate_state_for_type_case_a@?$standard_base@_WV?$stream_output_adapter@_W@__crt_stdio_output@@@__crt_stdio_output@@IBE_NXZ 10033d53 f i libucrt:output.obj
 0001:00032d56       ?validate_state_for_type_case_a@?$standard_base@_WV?$string_output_adapter@_W@__crt_stdio_output@@@__crt_stdio_output@@IBE_NXZ 10033d56 f i libucrt:output.obj
 0001:00032d59       ?validate_stream_is_ansi_if_required@?$__acrt_stdio_char_traits@D@@SA_NQAU_iobuf@@@Z 10033d59 f i libucrt:output.obj
 0001:00032de0       ?validate_stream_is_ansi_if_required@?$__acrt_stdio_char_traits@_W@@SA_NQAU_iobuf@@@Z 10033de0 f i libucrt:output.obj
 0001:00032de3       ?wide_character_to_digit@__crt_strtox@@YAH_W@Z 10033de3 f i libucrt:output.obj
 0001:00032f84       ?wide_null_string@?$output_processor@DV?$stream_output_adapter@D@__crt_stdio_output@@V?$format_validation_base@DV?$stream_output_adapter@D@__crt_stdio_output@@@2@@__crt_stdio_output@@CAPA_WXZ 10033f84 f i libucrt:output.obj
 0001:00032f8a       ?wide_null_string@?$output_processor@DV?$stream_output_adapter@D@__crt_stdio_output@@V?$positional_parameter_base@DV?$stream_output_adapter@D@__crt_stdio_output@@@2@@__crt_stdio_output@@CAPA_WXZ 10033f8a f i libucrt:output.obj
 0001:00032f90       ?wide_null_string@?$output_processor@DV?$stream_output_adapter@D@__crt_stdio_output@@V?$standard_base@DV?$stream_output_adapter@D@__crt_stdio_output@@@2@@__crt_stdio_output@@CAPA_WXZ 10033f90 f i libucrt:output.obj
 0001:00032f96       ?wide_null_string@?$output_processor@DV?$string_output_adapter@D@__crt_stdio_output@@V?$format_validation_base@DV?$string_output_adapter@D@__crt_stdio_output@@@2@@__crt_stdio_output@@CAPA_WXZ 10033f96 f i libucrt:output.obj
 0001:00032f9c       ?wide_null_string@?$output_processor@DV?$string_output_adapter@D@__crt_stdio_output@@V?$positional_parameter_base@DV?$string_output_adapter@D@__crt_stdio_output@@@2@@__crt_stdio_output@@CAPA_WXZ 10033f9c f i libucrt:output.obj
 0001:00032fa2       ?wide_null_string@?$output_processor@DV?$string_output_adapter@D@__crt_stdio_output@@V?$standard_base@DV?$string_output_adapter@D@__crt_stdio_output@@@2@@__crt_stdio_output@@CAPA_WXZ 10033fa2 f i libucrt:output.obj
 0001:00032fa8       ?wide_null_string@?$output_processor@_WV?$stream_output_adapter@_W@__crt_stdio_output@@V?$format_validation_base@_WV?$stream_output_adapter@_W@__crt_stdio_output@@@2@@__crt_stdio_output@@CAPA_WXZ 10033fa8 f i libucrt:output.obj
 0001:00032fae       ?wide_null_string@?$output_processor@_WV?$stream_output_adapter@_W@__crt_stdio_output@@V?$positional_parameter_base@_WV?$stream_output_adapter@_W@__crt_stdio_output@@@2@@__crt_stdio_output@@CAPA_WXZ 10033fae f i libucrt:output.obj
 0001:00032fb4       ?wide_null_string@?$output_processor@_WV?$stream_output_adapter@_W@__crt_stdio_output@@V?$standard_base@_WV?$stream_output_adapter@_W@__crt_stdio_output@@@2@@__crt_stdio_output@@CAPA_WXZ 10033fb4 f i libucrt:output.obj
 0001:00032fba       ?wide_null_string@?$output_processor@_WV?$string_output_adapter@_W@__crt_stdio_output@@V?$format_validation_base@_WV?$string_output_adapter@_W@__crt_stdio_output@@@2@@__crt_stdio_output@@CAPA_WXZ 10033fba f i libucrt:output.obj
 0001:00032fc0       ?wide_null_string@?$output_processor@_WV?$string_output_adapter@_W@__crt_stdio_output@@V?$positional_parameter_base@_WV?$string_output_adapter@_W@__crt_stdio_output@@@2@@__crt_stdio_output@@CAPA_WXZ 10033fc0 f i libucrt:output.obj
 0001:00032fc6       ?wide_null_string@?$output_processor@_WV?$string_output_adapter@_W@__crt_stdio_output@@V?$standard_base@_WV?$string_output_adapter@_W@__crt_stdio_output@@@2@@__crt_stdio_output@@CAPA_WXZ 10033fc6 f i libucrt:output.obj
 0001:00032fcc       ?write_character@?$output_adapter_common@DV?$stream_output_adapter@D@__crt_stdio_output@@@__crt_stdio_output@@QBEXDQAHAAV__crt_cached_ptd_host@@@Z 10033fcc f i libucrt:output.obj
 0001:00032fee       ?write_character@?$output_adapter_common@_WV?$stream_output_adapter@_W@__crt_stdio_output@@@__crt_stdio_output@@QBEX_WQAHAAV__crt_cached_ptd_host@@@Z 10033fee f i libucrt:output.obj
 0001:00033010       ?write_character@?$string_output_adapter@D@__crt_stdio_output@@QBE_NDQAHAAV__crt_cached_ptd_host@@@Z 10034010 f i libucrt:output.obj
 0001:00033052       ?write_character@?$string_output_adapter@_W@__crt_stdio_output@@QBE_N_WQAHAAV__crt_cached_ptd_host@@@Z 10034052 f i libucrt:output.obj
 0001:00033097       ?write_character_without_count_update@?$stream_output_adapter@D@__crt_stdio_output@@QBE_NDAAV__crt_cached_ptd_host@@@Z 10034097 f i libucrt:output.obj
 0001:000330d1       ?write_character_without_count_update@?$stream_output_adapter@_W@__crt_stdio_output@@QBE_N_WAAV__crt_cached_ptd_host@@@Z 100340d1 f i libucrt:output.obj
 0001:0003310e       ?write_stored_string_tchar@?$output_processor@DV?$stream_output_adapter@D@__crt_stdio_output@@V?$format_validation_base@DV?$stream_output_adapter@D@__crt_stdio_output@@@2@@__crt_stdio_output@@AAE_ND@Z 1003410e f i libucrt:output.obj
 0001:000331b1       ?write_stored_string_tchar@?$output_processor@DV?$stream_output_adapter@D@__crt_stdio_output@@V?$positional_parameter_base@DV?$stream_output_adapter@D@__crt_stdio_output@@@2@@__crt_stdio_output@@AAE_ND@Z 100341b1 f i libucrt:output.obj
 0001:00033254       ?write_stored_string_tchar@?$output_processor@DV?$stream_output_adapter@D@__crt_stdio_output@@V?$standard_base@DV?$stream_output_adapter@D@__crt_stdio_output@@@2@@__crt_stdio_output@@AAE_ND@Z 10034254 f i libucrt:output.obj
 0001:000332f7       ?write_stored_string_tchar@?$output_processor@DV?$string_output_adapter@D@__crt_stdio_output@@V?$format_validation_base@DV?$string_output_adapter@D@__crt_stdio_output@@@2@@__crt_stdio_output@@AAE_ND@Z 100342f7 f i libucrt:output.obj
 0001:0003339a       ?write_stored_string_tchar@?$output_processor@DV?$string_output_adapter@D@__crt_stdio_output@@V?$positional_parameter_base@DV?$string_output_adapter@D@__crt_stdio_output@@@2@@__crt_stdio_output@@AAE_ND@Z 1003439a f i libucrt:output.obj
 0001:0003343d       ?write_stored_string_tchar@?$output_processor@DV?$string_output_adapter@D@__crt_stdio_output@@V?$standard_base@DV?$string_output_adapter@D@__crt_stdio_output@@@2@@__crt_stdio_output@@AAE_ND@Z 1003443d f i libucrt:output.obj
 0001:000334e0       ?write_stored_string_tchar@?$output_processor@_WV?$stream_output_adapter@_W@__crt_stdio_output@@V?$format_validation_base@_WV?$stream_output_adapter@_W@__crt_stdio_output@@@2@@__crt_stdio_output@@AAE_N_W@Z 100344e0 f i libucrt:output.obj
 0001:00033590       ?write_stored_string_tchar@?$output_processor@_WV?$stream_output_adapter@_W@__crt_stdio_output@@V?$positional_parameter_base@_WV?$stream_output_adapter@_W@__crt_stdio_output@@@2@@__crt_stdio_output@@AAE_N_W@Z 10034590 f i libucrt:output.obj
 0001:00033640       ?write_stored_string_tchar@?$output_processor@_WV?$stream_output_adapter@_W@__crt_stdio_output@@V?$standard_base@_WV?$stream_output_adapter@_W@__crt_stdio_output@@@2@@__crt_stdio_output@@AAE_N_W@Z 10034640 f i libucrt:output.obj
 0001:000336f0       ?write_stored_string_tchar@?$output_processor@_WV?$string_output_adapter@_W@__crt_stdio_output@@V?$format_validation_base@_WV?$string_output_adapter@_W@__crt_stdio_output@@@2@@__crt_stdio_output@@AAE_N_W@Z 100346f0 f i libucrt:output.obj
 0001:000337ca       ?write_stored_string_tchar@?$output_processor@_WV?$string_output_adapter@_W@__crt_stdio_output@@V?$positional_parameter_base@_WV?$string_output_adapter@_W@__crt_stdio_output@@@2@@__crt_stdio_output@@AAE_N_W@Z 100347ca f i libucrt:output.obj
 0001:000338a4       ?write_stored_string_tchar@?$output_processor@_WV?$string_output_adapter@_W@__crt_stdio_output@@V?$standard_base@_WV?$string_output_adapter@_W@__crt_stdio_output@@@2@@__crt_stdio_output@@AAE_N_W@Z 100348a4 f i libucrt:output.obj
 0001:0003397e       ?write_string@?$stream_output_adapter@D@__crt_stdio_output@@QBEXQBDHQAHAAV__crt_cached_ptd_host@@@Z 1003497e f i libucrt:output.obj
 0001:000339aa       ?write_string@?$stream_output_adapter@_W@__crt_stdio_output@@QBEXQB_WHQAHAAV__crt_cached_ptd_host@@@Z 100349aa f i libucrt:output.obj
 0001:000339d6       ?write_string@?$string_output_adapter@D@__crt_stdio_output@@QBEXQBDHQAHAAV__crt_cached_ptd_host@@@Z 100349d6 f i libucrt:output.obj
 0001:00033a3d       ?write_string@?$string_output_adapter@_W@__crt_stdio_output@@QBEXQB_WHQAHAAV__crt_cached_ptd_host@@@Z 10034a3d f i libucrt:output.obj
 0001:00033aae       ?write_string_impl@?$output_adapter_common@DV?$stream_output_adapter@D@__crt_stdio_output@@@__crt_stdio_output@@IBEXQBDHQAHAAV__crt_cached_ptd_host@@@Z 10034aae f i libucrt:output.obj
 0001:00033b2d       ?write_string_impl@?$output_adapter_common@_WV?$stream_output_adapter@_W@__crt_stdio_output@@@__crt_stdio_output@@IBEXQB_WHQAHAAV__crt_cached_ptd_host@@@Z 10034b2d f i libucrt:output.obj
 0001:00033baf       ___acrt_disable_global_locale_sync 10034baf f i libucrt:output.obj
 0001:00033bc2       ___acrt_isleadbyte_l_noupdate 10034bc2 f i libucrt:output.obj
 0001:00033be0       ___acrt_locale_get_ctype_array_value 10034be0 f i libucrt:output.obj
 0001:00033c02       ___ascii_iswalpha          10034c02 f i libucrt:output.obj
 0001:00033c25       ___ascii_toupper           10034c25 f i libucrt:output.obj
 0001:00033c3c       ___ascii_towupper          10034c3c f i libucrt:output.obj
 0001:00033c53       ___stdio_common_vfprintf   10034c53 f   libucrt:output.obj
 0001:00033cf7       ___stdio_common_vfprintf_p 10034cf7 f   libucrt:output.obj
 0001:00033d9b       ___stdio_common_vfprintf_s 10034d9b f   libucrt:output.obj
 0001:00033e3f       ___stdio_common_vfwprintf  10034e3f f   libucrt:output.obj
 0001:00033ee3       ___stdio_common_vfwprintf_p 10034ee3 f   libucrt:output.obj
 0001:00033f87       ___stdio_common_vfwprintf_s 10034f87 f   libucrt:output.obj
 0001:0003402b       ___stdio_common_vsnprintf_s 1003502b f   libucrt:output.obj
 0001:0003406f       ___stdio_common_vsnwprintf_s 1003506f f   libucrt:output.obj
 0001:000340b3       ___stdio_common_vsprintf   100350b3 f   libucrt:output.obj
 0001:000340f4       ___stdio_common_vsprintf_p 100350f4 f   libucrt:output.obj
 0001:00034135       ___stdio_common_vsprintf_s 10035135 f   libucrt:output.obj
 0001:00034176       ___stdio_common_vswprintf  10035176 f   libucrt:output.obj
 0001:000341b7       ___stdio_common_vswprintf_p 100351b7 f   libucrt:output.obj
 0001:000341f8       ___stdio_common_vswprintf_s 100351f8 f   libucrt:output.obj
 0001:00034239       __ctype_fast_check_internal 10035239 f i libucrt:output.obj
 0001:00034253       __isdigit_fast_internal    10035253 f i libucrt:output.obj
 0001:0003426d       __tolower_fast_internal    1003526d f i libucrt:output.obj
 0001:00034286       _wmemcpy                   10035286 f i libucrt:wmemcpy_s.obj
 0001:000342a1       _wmemcpy_s                 100352a1 f   libucrt:wmemcpy_s.obj
 0001:00034325       _wmemset                   10035325 f i libucrt:wmemcpy_s.obj
 0001:00034351       _free                      10035351 f   libucrt:free.obj
 0001:0003436c       ??0?$__crt_scoped_stack_ptr@_W@@QAE@U?$__crt_scoped_stack_ptr_tag@_W@@@Z 1003536c f i libucrt:wcsupr.obj
 0001:0003437c       ??0?$__crt_scoped_stack_ptr_tag@_W@@QAE@QA_W@Z 1003537c f i libucrt:wcsupr.obj
 0001:0003438c       ??0_LocaleUpdate@@QAE@QAU__crt_locale_pointers@@@Z 1003538c f i libucrt:wcsupr.obj
 0001:0003440e       ??1?$__crt_scoped_stack_ptr@_W@@QAE@XZ 1003540e f i libucrt:wcsupr.obj
 0001:00034417       ??1_LocaleUpdate@@QAE@XZ   10035417 f i libucrt:wcsupr.obj
 0001:00034427       ?GetLocaleT@_LocaleUpdate@@QAEPAU__crt_locale_pointers@@XZ 10035427 f i libucrt:wcsupr.obj
 0001:000345a4       ?get@?$__crt_scoped_stack_ptr@_W@@QBEPA_WXZ 100355a4 f i libucrt:wcsupr.obj
 0001:000345a7       __MallocaComputeSize       100355a7 f i libucrt:wcsupr.obj
 0001:000345ba       __MarkAllocaS              100355ba f i libucrt:wcsupr.obj
 0001:000345d0       __freea_crt                100355d0 f i libucrt:wcsupr.obj
 0001:000345f0       __wcsupr                   100355f0 f   libucrt:wcsupr.obj
 0001:0003465d       __wcsupr_l                 1003565d f   libucrt:wcsupr.obj
 0001:00034677       __wcsupr_s                 10035677 f   libucrt:wcsupr.obj
 0001:0003468e       __wcsupr_s_l               1003568e f   libucrt:wcsupr.obj
 0001:000346c5       _malloc                    100356c5 f   libucrt:malloc.obj
 0001:000346d0       _realloc                   100356d0 f   libucrt:realloc.obj
 0001:000346db       ??$?B$$A6GXPAXK0@Z@__crt_fast_encoded_nullptr_t@@QBEP6GXPAXK0@ZXZ 100356db f i libucrt:exit.obj
 0001:00034783       ??$__crt_fast_decode_pointer@P6GXPAXK0@Z@@YAP6GXPAXK0@ZQ6GX0K0@Z@Z 10035783 f i libucrt:exit.obj
 0001:00034799       ??$__crt_fast_encode_pointer@P6GXPAXK0@Z@@YAP6GXPAXK0@ZQ6GX0K0@Z@Z 10035799 f i libucrt:exit.obj
 0001:000347b8       ??$__crt_get_proc_address@P6GXI@Z@@YAP6GXI@ZQAUHINSTANCE__@@QBD@Z 100357b8 f i libucrt:exit.obj
 0001:0003480b       ??0?$__crt_unique_handle_t@U__crt_hmodule_traits@@@@QAE@QAUHINSTANCE__@@@Z 1003580b f i libucrt:exit.obj
 0001:0003481b       ??1?$__crt_unique_handle_t@U__crt_hmodule_traits@@@@QAE@XZ 1003581b f i libucrt:exit.obj
 0001:0003492f       ?__acrt_select_exit_lock@@YA?AW4__acrt_lock_id@@XZ 1003592f f i libucrt:exit.obj
 0001:00034933       ?__crt_fast_encode_pointer@@YA?AU__crt_fast_encoded_nullptr_t@@$$T@Z 10035933 f i libucrt:exit.obj
 0001:00034951       ?close@?$__crt_unique_handle_t@U__crt_hmodule_traits@@@@QAEXXZ 10035951 f i libucrt:exit.obj
 0001:00034968       ?close@__crt_hmodule_traits@@SA_NPAUHINSTANCE__@@@Z 10035968 f i libucrt:exit.obj
 0001:00034a45       ?get@?$__crt_unique_handle_t@U__crt_hmodule_traits@@@@QBEPAUHINSTANCE__@@XZ 10035a45 f i libucrt:exit.obj
 0001:00034a48       ?get_address_of@?$__crt_unique_handle_t@U__crt_hmodule_traits@@@@QAEPAPAUHINSTANCE__@@XZ 10035a48 f i libucrt:exit.obj
 0001:00034a4b       ?get_invalid_value@__crt_hmodule_traits@@SAPAUHINSTANCE__@@XZ 10035a4b f i libucrt:exit.obj
 0001:00034b35       __Exit                     10035b35 f   libucrt:exit.obj
 0001:00034b4b       ___acrt_initialize_thread_local_exit_callback 10035b4b f   libucrt:exit.obj
 0001:00034b5a       __c_exit                   10035b5a f   libucrt:exit.obj
 0001:00034b69       __cexit                    10035b69 f   libucrt:exit.obj
 0001:00034b78       __exit                     10035b78 f   libucrt:exit.obj
 0001:00034b8e       __is_c_termination_complete 10035b8e f   libucrt:exit.obj
 0001:00034b95       __register_thread_local_exe_atexit_callback 10035b95 f   libucrt:exit.obj
 0001:00034bbb       _exit                      10035bbb f   libucrt:exit.obj
 0001:00034bd1       _quick_exit                10035bd1 f   libucrt:exit.obj
 0001:00034be7       __set_abort_behavior       10035be7 f   libucrt:abort.obj
 0001:00034c08       _abort                     10035c08 f   libucrt:abort.obj
 0001:00034c4c       ___iswcsym                 10035c4c f i libucrt:_wctype.obj
 0001:00034c72       ___iswcsymf                10035c72 f i libucrt:_wctype.obj
 0001:00034c98       __isleadbyte_l             10035c98 f i libucrt:_wctype.obj
 0001:00034cd2       __iswalnum_l               10035cd2 f i libucrt:_wctype.obj
 0001:00034ce8       __iswalpha_l               10035ce8 f i libucrt:_wctype.obj
 0001:00034cfe       __iswblank_l               10035cfe f i libucrt:_wctype.obj
 0001:00034d1b       __iswcntrl_l               10035d1b f i libucrt:_wctype.obj
 0001:00034d2e       __iswcsym_l                10035d2e f i libucrt:_wctype.obj
 0001:00034d54       __iswcsymf_l               10035d54 f i libucrt:_wctype.obj
 0001:00034d7a       __iswdigit_l               10035d7a f i libucrt:_wctype.obj
 0001:00034d8d       __iswgraph_l               10035d8d f i libucrt:_wctype.obj
 0001:00034da3       __iswlower_l               10035da3 f i libucrt:_wctype.obj
 0001:00034db6       __iswprint_l               10035db6 f i libucrt:_wctype.obj
 0001:00034dcc       __iswpunct_l               10035dcc f i libucrt:_wctype.obj
 0001:00034ddf       __iswspace_l               10035ddf f i libucrt:_wctype.obj
 0001:00034df2       __iswupper_l               10035df2 f i libucrt:_wctype.obj
 0001:00034e05       __iswxdigit_l              10035e05 f i libucrt:_wctype.obj
 0001:00034e1b       _isleadbyte                10035e1b f i libucrt:_wctype.obj
 0001:00034e2e       _iswalnum                  10035e2e f i libucrt:_wctype.obj
 0001:00034e44       _iswalpha                  10035e44 f i libucrt:_wctype.obj
 0001:00034e5a       _iswascii                  10035e5a f i libucrt:_wctype.obj
 0001:00034e6e       _iswblank                  10035e6e f i libucrt:_wctype.obj
 0001:00034e8b       _iswcntrl                  10035e8b f i libucrt:_wctype.obj
 0001:00034e9e       _iswdigit                  10035e9e f i libucrt:_wctype.obj
 0001:00034eb1       _iswgraph                  10035eb1 f i libucrt:_wctype.obj
 0001:00034ec7       _iswlower                  10035ec7 f i libucrt:_wctype.obj
 0001:00034eda       _iswprint                  10035eda f i libucrt:_wctype.obj
 0001:00034ef0       _iswpunct                  10035ef0 f i libucrt:_wctype.obj
 0001:00034f03       _iswspace                  10035f03 f i libucrt:_wctype.obj
 0001:00034f16       _iswupper                  10035f16 f i libucrt:_wctype.obj
 0001:00034f29       _iswxdigit                 10035f29 f i libucrt:_wctype.obj
 0001:00034f3f       _wcscmp                    10035f3f f   libucrt:wcscmp.obj
 0001:00034f7f       ??B?$__crt_scoped_stack_ptr@_W@@QBE_NXZ 10035f7f f i libucrt:wcslwr.obj
 0001:000350ff       __wcslwr                   100360ff f   libucrt:wcslwr.obj
 0001:0003516c       __wcslwr_l                 1003616c f   libucrt:wcslwr.obj
 0001:00035186       __wcslwr_s                 10036186 f   libucrt:wcslwr.obj
 0001:0003519d       __wcslwr_s_l               1003619d f   libucrt:wcslwr.obj
 0001:000351d4       __wremove                  100361d4 f   libucrt:wunlink.obj
 0001:000351fc       __wunlink                  100361fc f   libucrt:wunlink.obj
 0001:00035207       ??$?RPAU__crt_stdio_stream_data@@@__crt_internal_free_policy@@QBEXQBQAU__crt_stdio_stream_data@@@Z 10036207 f i libucrt:_file.obj
 0001:00035219       ??0?$__crt_unique_heap_ptr@PAU__crt_stdio_stream_data@@U__crt_internal_free_policy@@@@QAE@QAPAU__crt_stdio_stream_data@@@Z 10036219 f i libucrt:_file.obj
 0001:00035229       ??1?$__crt_unique_heap_ptr@PAU__crt_stdio_stream_data@@U__crt_internal_free_policy@@@@QAE@XZ 10036229 f i libucrt:_file.obj
 0001:0003523b       ?detach@?$__crt_unique_heap_ptr@PAU__crt_stdio_stream_data@@U__crt_internal_free_policy@@@@QAEPAPAU__crt_stdio_stream_data@@XZ 1003623b f i libucrt:_file.obj
 0001:00035241       ?release@?$__crt_unique_heap_ptr@PAU__crt_stdio_stream_data@@U__crt_internal_free_policy@@@@QAEXXZ 10036241 f i libucrt:_file.obj
 0001:00035253       ___acrt_initialize_stdio   10036253 f   libucrt:_file.obj
 0001:0003531b       ___acrt_iob_func           1003631b f   libucrt:_file.obj
 0001:0003532b       ___acrt_uninitialize_stdio 1003632b f   libucrt:_file.obj
 0001:00035377       __get_stream_buffer_pointers 10036377 f   libucrt:_file.obj
 0001:000353bd       __lock_file                100363bd f   libucrt:_file.obj
 0001:000353d1       __unlock_file              100363d1 f   libucrt:_file.obj
 0001:00035591       _fputws                    10036591 f   libucrt:fputws.obj
 0001:00035810       ??$open_file@ABQBDABQBDABHPAU_iobuf@@@?$__crt_char_traits@D@@SAPAU_iobuf@@ABQBD0ABH$$QAPAU1@@Z 10036810 f i libucrt:fopen.obj
 0001:00035833       ??$open_file@ABQB_WABQB_WABHPAU_iobuf@@@?$__crt_char_traits@_W@@SAPAU_iobuf@@ABQB_W0ABH$$QAPAU1@@Z 10036833 f i libucrt:fopen.obj
 0001:00035856       ?unlock@__crt_stdio_stream@@QBEXXZ 10036856 f i libucrt:fopen.obj
 0001:0003585f       __fsopen                   1003685f f   libucrt:fopen.obj
 0001:0003586a       __wfopen                   1003686a f   libucrt:fopen.obj
 0001:00035881       __wfopen_s                 10036881 f   libucrt:fopen.obj
 0001:000358c8       __wfsopen                  100368c8 f   libucrt:fopen.obj
 0001:000358d3       _fopen                     100368d3 f   libucrt:fopen.obj
 0001:000358ea       _fopen_s                   100368ea f   libucrt:fopen.obj
 0001:00035931       ??$?R_W@__crt_internal_free_policy@@QBEXQB_W@Z 10036931 f i libucrt:wcsftime.obj
 0001:00035943       ??$__crt_time_is_leap_year@H@@YA_NH@Z 10036943 f i libucrt:wcsftime.obj
 0001:00035985       ??0?$__crt_unique_heap_ptr@_WU__crt_internal_free_policy@@@@QAE@QA_W@Z 10036985 f i libucrt:wcsftime.obj
 0001:00035995       ??1?$__crt_unique_heap_ptr@_WU__crt_internal_free_policy@@@@QAE@XZ 10036995 f i libucrt:wcsftime.obj
 0001:000359a7       ?__crt_get_2digit_year@@YAHH@Z 100369a7 f i libucrt:wcsftime.obj
 0001:000359be       ?__crt_get_century@@YAHH@Z 100369be f i libucrt:wcsftime.obj
 0001:00035afb       ?detach@?$__crt_unique_heap_ptr@_WU__crt_internal_free_policy@@@@QAEPA_WXZ 10036afb f i libucrt:wcsftime.obj
 0001:000364b9       ?get@?$__crt_unique_heap_ptr@_WU__crt_internal_free_policy@@@@QBEPA_WXZ 100374b9 f i libucrt:wcsftime.obj
 0001:000364bc       ?release@?$__crt_unique_heap_ptr@_WU__crt_internal_free_policy@@@@QAEXXZ 100374bc f i libucrt:wcsftime.obj
 0001:00036a3a       __W_Getdays                10037a3a f   libucrt:wcsftime.obj
 0001:00036b99       __W_Getmonths              10037b99 f   libucrt:wcsftime.obj
 0001:00036cf8       __W_Gettnames              10037cf8 f   libucrt:wcsftime.obj
 0001:000373f4       __Wcsftime                 100383f4 f   libucrt:wcsftime.obj
 0001:00037414       __Wcsftime_l               10038414 f   libucrt:wcsftime.obj
 0001:00037574       __invoke_watson_if_error   10038574 f i libucrt:wcsftime.obj
 0001:00037596       __wcsftime_l               10038596 f   libucrt:wcsftime.obj
 0001:000375b6       _wcsftime                  100385b6 f   libucrt:wcsftime.obj
 0001:000376fa       ?is_in_use@__crt_stdio_stream@@QBE_NXZ 100386fa f i libucrt:fclose.obj
 0001:00037706       __fclose_nolock            10038706 f   libucrt:fclose.obj
 0001:00037736       _fclose                    10038736 f   libucrt:fclose.obj
 0001:000379a3       _fputs                     100389a3 f   libucrt:fputs.obj
 0001:000379d7       ??$?RU__acrt_thread_parameter@@@__crt_internal_free_policy@@QBEXQBU__acrt_thread_parameter@@@Z 100389d7 f i libucrt:thread.obj
 0001:00037ae7       ??0?$__crt_unique_heap_ptr@U__acrt_thread_parameter@@U__crt_internal_free_policy@@@@QAE@QAU__acrt_thread_parameter@@@Z 10038ae7 f i libucrt:thread.obj
 0001:00037b07       ??1?$__crt_unique_heap_ptr@U__acrt_thread_parameter@@U__crt_internal_free_policy@@@@QAE@XZ 10038b07 f i libucrt:thread.obj
 0001:00037c35       ?detach@?$__crt_unique_heap_ptr@U__acrt_thread_parameter@@U__crt_internal_free_policy@@@@QAEPAU__acrt_thread_parameter@@XZ 10038c35 f i libucrt:thread.obj
 0001:00037c4b       ?release@?$__crt_unique_heap_ptr@U__acrt_thread_parameter@@U__crt_internal_free_policy@@@@QAEXXZ 10038c4b f i libucrt:thread.obj
 0001:00037c94       __beginthread              10038c94 f   libucrt:thread.obj
 0001:00037d22       __beginthreadex            10038d22 f   libucrt:thread.obj
 0001:00037da5       __endthread                10038da5 f   libucrt:thread.obj
 0001:00037dad       __endthreadex              10038dad f   libucrt:thread.obj
 0001:00037dbb       ??$?B$$A6AXH@Z@__crt_fast_encoded_nullptr_t@@QBEP6AXH@ZXZ 10038dbb f i libucrt:signal.obj
 0001:00037e4b       ??$__crt_fast_decode_pointer@P6AXH@Z@@YAP6AXH@ZQ6AXH@Z@Z 10038e4b f i libucrt:signal.obj
 0001:00037e61       ??$__crt_fast_encode_pointer@P6AXH@Z@@YAP6AXH@ZQ6AXH@Z@Z 10038e61 f i libucrt:signal.obj
 0001:00037fb5       ?initialize@?$dual_state_global@P6AXH@Z@__crt_state_management@@QAEXQ6AXH@Z@Z 10038fb5 f i libucrt:signal.obj
 0001:0003805e       ?value@?$dual_state_global@P6AXH@Z@__crt_state_management@@QAEAAP6AXH@ZXZ 1003905e f i libucrt:signal.obj
 0001:00038061       ___acrt_get_sigabrt_handler 10039061 f   libucrt:signal.obj
 0001:00038088       ___acrt_initialize_signal_handlers 10039088 f   libucrt:signal.obj
 0001:000380a6       ___fpecode                 100390a6 f   libucrt:signal.obj
 0001:000380af       ___pxcptinfoptrs           100390af f   libucrt:signal.obj
 0001:000380b8       _raise                     100390b8 f   libucrt:signal.obj
 0001:000382ab       _signal                    100392ab f   libucrt:signal.obj
 0001:0003895e       ??$gmtime_s@ABQAUtm@@ABQBJ@?$__crt_integer_traits@J@@SAHABQAUtm@@ABQBJ@Z 1003995e f i libucrt:localtime.obj
 0001:00038976       ??$gmtime_s@ABQAUtm@@ABQB_J@?$__crt_integer_traits@_J@@SAHABQAUtm@@ABQB_J@Z 10039976 f i libucrt:localtime.obj
 0001:0003898e       ??$gmtime_s@ABQAUtm@@PAJ@?$__crt_integer_traits@J@@SAHABQAUtm@@$$QAPAJ@Z 1003998e f i libucrt:localtime.obj
 0001:000389a6       ??$gmtime_s@ABQAUtm@@PA_J@?$__crt_integer_traits@_J@@SAHABQAUtm@@$$QAPA_J@Z 100399a6 f i libucrt:localtime.obj
 0001:000389be       ??$localtime_s@ABQAUtm@@ABQBJ@?$__crt_integer_traits@J@@SAHABQAUtm@@ABQBJ@Z 100399be f i libucrt:localtime.obj
 0001:000389d7       ??$localtime_s@ABQAUtm@@ABQB_J@?$__crt_integer_traits@_J@@SAHABQAUtm@@ABQB_J@Z 100399d7 f i libucrt:localtime.obj
 0001:000389f0       __localtime32              100399f0 f   libucrt:localtime.obj
 0001:00038a17       __localtime32_s            10039a17 f   libucrt:localtime.obj
 0001:00038a22       __localtime64              10039a22 f   libucrt:localtime.obj
 0001:00038a49       __localtime64_s            10039a49 f   libucrt:localtime.obj
 0001:00038d51       __time32                   10039d51 f   libucrt:time.obj
 0001:00038dae       __time64                   10039dae f   libucrt:time.obj
 0001:00038e16       __timespec32_get           10039e16 f   libucrt:time.obj
 0001:00038e21       __timespec64_get           10039e21 f   libucrt:time.obj
 0001:00038e42       __get_terminate            10039e42 f   libucrt:terminate.obj
 0001:00038e54       _set_terminate             10039e54 f   libucrt:terminate.obj
 0001:00038e74       _terminate                 10039e74 f   libucrt:terminate.obj
 0001:00038eb0       __recalloc                 10039eb0 f   libucrt:recalloc.obj
 0001:00038ebb       __recalloc_base            10039ebb f   libucrt:recalloc.obj
 0001:00038f28       ??$?B$$A6AHI@Z@__crt_fast_encoded_nullptr_t@@QBEP6AHI@ZXZ 10039f28 f i libucrt:new_handler.obj
 0001:00038f2e       ??$__crt_fast_decode_pointer@P6AHI@Z@@YAP6AHI@ZQ6AHI@Z@Z 10039f2e f i libucrt:new_handler.obj
 0001:00038f44       ??$__crt_fast_encode_pointer@P6AHI@Z@@YAP6AHI@ZQ6AHI@Z@Z 10039f44 f i libucrt:new_handler.obj
 0001:00038f63       ?_set_new_handler@@YAP6AHI@ZH@Z 10039f63 f   libucrt:new_handler.obj
 0001:00038f70       ?initialize@?$dual_state_global@P6AHI@Z@__crt_state_management@@QAEXQ6AHI@Z@Z 10039f70 f i libucrt:new_handler.obj
 0001:00038f8c       ?value@?$dual_state_global@P6AHI@Z@__crt_state_management@@QAEAAP6AHI@ZXZ 10039f8c f i libucrt:new_handler.obj
 0001:00038f8f       ___acrt_initialize_new_handler 10039f8f f   libucrt:new_handler.obj
 0001:00038f9e       __callnewh                 10039f9e f   libucrt:new_handler.obj
 0001:00038fcb       __query_new_handler        10039fcb f   libucrt:new_handler.obj
 0001:00039027       __set_new_handler          1003a027 f   libucrt:new_handler.obj
 0001:000390b5       __seh_filter_dll           1003a0b5 f   libucrt:exception_filter.obj
 0001:000390d5       __seh_filter_exe           1003a0d5 f   libucrt:exception_filter.obj
 0001:0003921b       ??$?RE@__crt_internal_free_policy@@QBEXQBE@Z 1003a21b f i libucrt:argv_parsing.obj
 0001:0003922d       ??$?RPAD@__crt_internal_free_policy@@QBEXQBQAD@Z 1003a22d f i libucrt:argv_parsing.obj
 0001:0003923f       ??$?RPA_W@__crt_internal_free_policy@@QBEXQBQA_W@Z 1003a23f f i libucrt:argv_parsing.obj
 0001:000394c4       ??$get_module_file_name@$$TAAY0BAF@DH@?$__crt_char_traits@D@@SAK$$QA$$TAAY0BAF@D$$QAH@Z 1003a4c4 f i libucrt:argv_parsing.obj
 0001:000394e0       ??$get_module_file_name@$$TAAY0BAF@_WH@?$__crt_char_traits@_W@@SAK$$QA$$TAAY0BAF@_W$$QAH@Z 1003a4e0 f i libucrt:argv_parsing.obj
 0001:0003980f       ??$set_program_name@PAD@?$__crt_char_traits@D@@SAX$$QAPAD@Z 1003a80f f i libucrt:argv_parsing.obj
 0001:00039820       ??$set_program_name@PA_W@?$__crt_char_traits@_W@@SAX$$QAPA_W@Z 1003a820 f i libucrt:argv_parsing.obj
 0001:00039851       ??0?$__crt_unique_heap_ptr@EU__crt_internal_free_policy@@@@QAE@QAE@Z 1003a851 f i libucrt:argv_parsing.obj
 0001:00039861       ??0?$__crt_unique_heap_ptr@PADU__crt_internal_free_policy@@@@QAE@QAPAD@Z 1003a861 f i libucrt:argv_parsing.obj
 0001:00039871       ??0?$__crt_unique_heap_ptr@PA_WU__crt_internal_free_policy@@@@QAE@QAPA_W@Z 1003a871 f i libucrt:argv_parsing.obj
 0001:00039881       ??1?$__crt_unique_heap_ptr@EU__crt_internal_free_policy@@@@QAE@XZ 1003a881 f i libucrt:argv_parsing.obj
 0001:00039893       ??1?$__crt_unique_heap_ptr@PADU__crt_internal_free_policy@@@@QAE@XZ 1003a893 f i libucrt:argv_parsing.obj
 0001:000398a5       ??1?$__crt_unique_heap_ptr@PA_WU__crt_internal_free_policy@@@@QAE@XZ 1003a8a5 f i libucrt:argv_parsing.obj
 0001:000398b7       ??B?$__crt_unique_heap_ptr@EU__crt_internal_free_policy@@@@QBE_NXZ 1003a8b7 f i libucrt:argv_parsing.obj
 0001:000398ea       ?detach@?$__crt_unique_heap_ptr@EU__crt_internal_free_policy@@@@QAEPAEXZ 1003a8ea f i libucrt:argv_parsing.obj
 0001:000398f0       ?detach@?$__crt_unique_heap_ptr@PADU__crt_internal_free_policy@@@@QAEPAPADXZ 1003a8f0 f i libucrt:argv_parsing.obj
 0001:000398f6       ?detach@?$__crt_unique_heap_ptr@PA_WU__crt_internal_free_policy@@@@QAEPAPA_WXZ 1003a8f6 f i libucrt:argv_parsing.obj
 0001:0003991a       ?get@?$__crt_unique_heap_ptr@EU__crt_internal_free_policy@@@@QBEPAEXZ 1003a91a f i libucrt:argv_parsing.obj
 0001:0003991d       ?get@?$__crt_unique_heap_ptr@PADU__crt_internal_free_policy@@@@QBEPAPADXZ 1003a91d f i libucrt:argv_parsing.obj
 0001:00039920       ?get@?$__crt_unique_heap_ptr@PA_WU__crt_internal_free_policy@@@@QBEPAPA_WXZ 1003a920 f i libucrt:argv_parsing.obj
 0001:00039923       ?get_address_of@?$__crt_unique_heap_ptr@PADU__crt_internal_free_policy@@@@QAEPAPAPADXZ 1003a923 f i libucrt:argv_parsing.obj
 0001:00039926       ?get_address_of@?$__crt_unique_heap_ptr@PA_WU__crt_internal_free_policy@@@@QAEPAPAPA_WXZ 1003a926 f i libucrt:argv_parsing.obj
 0001:00039941       ?is_valid@?$__crt_unique_heap_ptr@EU__crt_internal_free_policy@@@@QBE_NXZ 1003a941 f i libucrt:argv_parsing.obj
 0001:00039948       ?release@?$__crt_unique_heap_ptr@EU__crt_internal_free_policy@@@@QAEXXZ 1003a948 f i libucrt:argv_parsing.obj
 0001:0003995a       ?release@?$__crt_unique_heap_ptr@PADU__crt_internal_free_policy@@@@QAEXXZ 1003a95a f i libucrt:argv_parsing.obj
 0001:0003996c       ?release@?$__crt_unique_heap_ptr@PA_WU__crt_internal_free_policy@@@@QAEXXZ 1003a96c f i libucrt:argv_parsing.obj
 0001:00039998       ___acrt_allocate_buffer_for_argv 1003a998 f   libucrt:argv_parsing.obj
 0001:000399e7       __configure_narrow_argv    1003a9e7 f   libucrt:argv_parsing.obj
 0001:000399f2       __configure_wide_argv      1003a9f2 f   libucrt:argv_parsing.obj
 0001:000399fd       __set_pgmptr               1003a9fd f i libucrt:argv_parsing.obj
 0001:00039a0c       __set_wpgmptr              1003aa0c f i libucrt:argv_parsing.obj
 0001:00039e25       ??$get_environment_from_os@$$V@?$__crt_char_traits@D@@SAPADXZ 1003ae25 f i libucrt:environment_initialization.obj
 0001:00039e2a       ??$get_environment_from_os@$$V@?$__crt_char_traits@_W@@SAPA_WXZ 1003ae2a f i libucrt:environment_initialization.obj
 0001:00039f33       ??$set_variable_in_environment_nolock@PADH@?$__crt_char_traits@D@@SAH$$QAPAD$$QAH@Z 1003af33 f i libucrt:environment_initialization.obj
 0001:00039f4b       ??$set_variable_in_environment_nolock@PA_WH@?$__crt_char_traits@_W@@SAH$$QAPA_W$$QAH@Z 1003af4b f i libucrt:environment_initialization.obj
 0001:00039f63       ??$tcscpy_s@PADABIAAPAD@?$__crt_char_traits@D@@SAH$$QAPADABIAAPAD@Z 1003af63 f i libucrt:environment_initialization.obj
 0001:00039f81       ??$tcscpy_s@PA_WABIAAPA_W@?$__crt_char_traits@_W@@SAH$$QAPA_WABIAAPA_W@Z 1003af81 f i libucrt:environment_initialization.obj
 0001:00039f9f       ??$tcslen@AAPAD@?$__crt_char_traits@D@@SAIAAPAD@Z 1003af9f f i libucrt:environment_initialization.obj
 0001:00039fb7       ??$tcslen@AAPA_W@?$__crt_char_traits@_W@@SAIAAPA_W@Z 1003afb7 f i libucrt:environment_initialization.obj
 0001:00039fd5       ??$uninitialize@A6AXAAPAPAD@_E@?$dual_state_global@PAPAD@__crt_state_management@@QAEXA6AXAAPAPAD@_E@Z 1003afd5 f i libucrt:environment_initialization.obj
 0001:0003a02d       ??$uninitialize@A6AXAAPAPA_W@_E@?$dual_state_global@PAPA_W@__crt_state_management@@QAEXA6AXAAPAPA_W@_E@Z 1003b02d f i libucrt:environment_initialization.obj
 0001:0003a0bb       ??B?$__crt_unique_heap_ptr@PADU__crt_internal_free_policy@@@@QBE_NXZ 1003b0bb f i libucrt:environment_initialization.obj
 0001:0003a0c2       ??B?$__crt_unique_heap_ptr@PA_WU__crt_internal_free_policy@@@@QBE_NXZ 1003b0c2 f i libucrt:environment_initialization.obj
 0001:0003a0c9       ??B?$__crt_unique_heap_ptr@_WU__crt_internal_free_policy@@@@QBE_NXZ 1003b0c9 f i libucrt:environment_initialization.obj
 0001:0003a0d0       ?__crt_compute_required_transform_buffer_count@@YAIIQBD@Z 1003b0d0 f i libucrt:environment_initialization.obj
 0001:0003a0ec       ?__crt_compute_required_transform_buffer_count@@YAIIQB_W@Z 1003b0ec f i libucrt:environment_initialization.obj
 0001:0003a10a       ?__crt_transform_string@@YAIIQBDQA_WI@Z 1003b10a f i libucrt:environment_initialization.obj
 0001:0003a129       ?__crt_transform_string@@YAIIQB_WQADI@Z 1003b129 f i libucrt:environment_initialization.obj
 0001:0003a14b       ?detach@?$__crt_unique_heap_ptr@DU__crt_internal_free_policy@@@@QAEPADXZ 1003b14b f i libucrt:environment_initialization.obj
 0001:0003a175       ?initialize@?$dual_state_global@PAPAD@__crt_state_management@@QAEXQAPAD@Z 1003b175 f i libucrt:environment_initialization.obj
 0001:0003a191       ?initialize@?$dual_state_global@PAPA_W@__crt_state_management@@QAEXQAPA_W@Z 1003b191 f i libucrt:environment_initialization.obj
 0001:0003a1ad       ?is_valid@?$__crt_unique_heap_ptr@PADU__crt_internal_free_policy@@@@QBE_NXZ 1003b1ad f i libucrt:environment_initialization.obj
 0001:0003a1b4       ?is_valid@?$__crt_unique_heap_ptr@PA_WU__crt_internal_free_policy@@@@QBE_NXZ 1003b1b4 f i libucrt:environment_initialization.obj
 0001:0003a1bb       ?is_valid@?$__crt_unique_heap_ptr@_WU__crt_internal_free_policy@@@@QBE_NXZ 1003b1bb f i libucrt:environment_initialization.obj
 0001:0003a1ca       ?value@?$dual_state_global@PAPAD@__crt_state_management@@QAEAAPAPADXZ 1003b1ca f i libucrt:environment_initialization.obj
 0001:0003a1cd       ?value@?$dual_state_global@PAPA_W@__crt_state_management@@QAEAAPAPA_WXZ 1003b1cd f i libucrt:environment_initialization.obj
 0001:0003a1d0       ___dcrt_get_or_create_narrow_environment_nolock 1003b1d0 f   libucrt:environment_initialization.obj
 0001:0003a1d5       ___dcrt_get_or_create_wide_environment_nolock 1003b1d5 f   libucrt:environment_initialization.obj
 0001:0003a1da       ___dcrt_uninitialize_environments_nolock 1003b1da f   libucrt:environment_initialization.obj
 0001:0003a22b       ___p__environ              1003b22b f   libucrt:environment_initialization.obj
 0001:0003a231       ___p__wenviron             1003b231 f   libucrt:environment_initialization.obj
 0001:0003a237       __get_initial_narrow_environment 1003b237 f   libucrt:environment_initialization.obj
 0001:0003a24b       __get_initial_wide_environment 1003b24b f   libucrt:environment_initialization.obj
 0001:0003a25f       __initialize_narrow_environment 1003b25f f   libucrt:environment_initialization.obj
 0001:0003a264       __initialize_wide_environment 1003b264 f   libucrt:environment_initialization.obj
 0001:0003a269       ??$?B$$A6AXXZ@__crt_fast_encoded_nullptr_t@@QBEP6AXXZXZ 1003b269 f i libucrt:onexit.obj
 0001:0003a26f       ??$?BP6AXXZ@__crt_fast_encoded_nullptr_t@@QBEPAP6AXXZXZ 1003b26f f i libucrt:onexit.obj
 0001:0003a275       ??$?RP6AXXZ@__crt_internal_free_policy@@QBEXQBQ6AXXZ@Z 1003b275 f i libucrt:onexit.obj
 0001:0003a3b8       ??$__crt_fast_decode_pointer@P6AXXZ@@YAP6AXXZQ6AXXZ@Z 1003b3b8 f i libucrt:onexit.obj
 0001:0003a3ce       ??$__crt_fast_decode_pointer@PAP6AXXZ@@YAPAP6AXXZQAP6AXXZ@Z 1003b3ce f i libucrt:onexit.obj
 0001:0003a3e4       ??$__crt_fast_encode_pointer@P6AHXZ@@YAP6AHXZQ6AHXZ@Z 1003b3e4 f i libucrt:onexit.obj
 0001:0003a403       ??$__crt_fast_encode_pointer@P6AXXZ@@YAP6AXXZQ6AXXZ@Z 1003b403 f i libucrt:onexit.obj
 0001:0003a422       ??$__crt_fast_encode_pointer@PAP6AXXZ@@YAPAP6AXXZQAP6AXXZ@Z 1003b422 f i libucrt:onexit.obj
 0001:0003a4af       ??0?$__crt_unique_heap_ptr@P6AXXZU__crt_internal_free_policy@@@@QAE@QAP6AXXZ@Z 1003b4af f i libucrt:onexit.obj
 0001:0003a4bf       ??1?$__crt_unique_heap_ptr@P6AXXZU__crt_internal_free_policy@@@@QAE@XZ 1003b4bf f i libucrt:onexit.obj
 0001:0003a4d1       ??1scoped_global_state_reset@__crt_state_management@@QAE@XZ 1003b4d1 f i libucrt:onexit.obj
 0001:0003a6d4       ?detach@?$__crt_unique_heap_ptr@P6AXXZU__crt_internal_free_policy@@@@QAEPAP6AXXZXZ 1003b6d4 f i libucrt:onexit.obj
 0001:0003a6da       ?release@?$__crt_unique_heap_ptr@P6AXXZU__crt_internal_free_policy@@@@QAEXXZ 1003b6da f i libucrt:onexit.obj
 0001:0003a6ec       __crt_at_quick_exit        1003b6ec f   libucrt:onexit.obj
 0001:0003a702       __crt_atexit               1003b702 f   libucrt:onexit.obj
 0001:0003a718       __execute_onexit_table     1003b718 f   libucrt:onexit.obj
 0001:0003a756       __initialize_onexit_table  1003b756 f   libucrt:onexit.obj
 0001:0003a77f       __register_onexit_function 1003b77f f   libucrt:onexit.obj
 0001:0003a88e       ??$?BX@__crt_fast_encoded_nullptr_t@@QBEPAXXZ 1003b88e f i libucrt:initialization.obj
 0001:0003a894       ??$__crt_fast_encode_pointer@PAX@@YAPAXQAX@Z 1003b894 f i libucrt:initialization.obj
 0001:0003a905       ?__acrt_stdio_is_initialized@@YA_NXZ 1003b905 f i libucrt:initialization.obj
 0001:0003a910       ?initialize@?$dual_state_global@PAU__crt_locale_data@@@__crt_state_management@@QAEXQAU__crt_locale_data@@@Z 1003b910 f i libucrt:initialization.obj
 0001:0003a92c       ___acrt_initialize         1003b92c f   libucrt:initialization.obj
 0001:0003a93e       ___acrt_thread_attach      1003b93e f   libucrt:initialization.obj
 0001:0003a949       ___acrt_thread_detach      1003b949 f   libucrt:initialization.obj
 0001:0003a951       ___acrt_uninitialize       1003b951 f   libucrt:initialization.obj
 0001:0003a981       ___acrt_uninitialize_critical 1003b981 f   libucrt:initialization.obj
 0001:0003a993       ?should_round_up@__crt_strtox@@YA_N_N000@Z 1003b993 f i libucrt:fpexcept.obj
 0001:0003a9e0       __errcode                  1003b9e0 f   libucrt:fpexcept.obj
 0001:0003aa14       __except1                  1003ba14 f   libucrt:fpexcept.obj
 0001:0003aae2       __except2                  1003bae2 f   libucrt:fpexcept.obj
 0001:0003abea       __handle_exc               1003bbea f   libucrt:fpexcept.obj
 0001:0003ae63       __handle_qnan2             1003be63 f   libucrt:fpexcept.obj
 0001:0003ae70       __raise_exc                1003be70 f   libucrt:fpexcept.obj
 0001:0003ae93       __raise_exc_ex             1003be93 f   libucrt:fpexcept.obj
 0001:0003b189       __raise_excf               1003c189 f   libucrt:fpexcept.obj
 0001:0003b1ac       __set_errno_from_matherr   1003c1ac f   libucrt:fpexcept.obj
 0001:0003b1db       __umatherr                 1003c1db f   libucrt:fpexcept.obj
 0001:0003b27b       __initterm                 1003c27b f   libucrt:initterm.obj
 0001:0003b2a6       __initterm_e               1003c2a6 f   libucrt:initterm.obj
 0001:0003b32e       _strcpy_s                  1003c32e f   libucrt:strcpy_s.obj
 0001:0003b388       _calloc                    1003c388 f   libucrt:calloc.obj
 0001:0003b393       ??$is_overflow_condition@_K@__crt_strtox@@YA_NI_K@Z 1003c393 f i libucrt:atox.obj
 0001:0003b3d4       ??$make_c_string_character_source@D$$T@__crt_strtox@@YA?AV?$c_string_character_source@D@0@QBD$$T@Z 1003c3d4 f i libucrt:atox.obj
 0001:0003b3ef       ??$make_c_string_character_source@_W$$T@__crt_strtox@@YA?AV?$c_string_character_source@_W@0@QB_W$$T@Z 1003c3ef f i libucrt:atox.obj
 0001:0003b40a       ??$parse_integer@KV?$c_string_character_source@D@__crt_strtox@@$00@__crt_strtox@@YAKAAV__crt_cached_ptd_host@@V?$c_string_character_source@D@0@H_N@Z 1003c40a f i libucrt:atox.obj
 0001:0003b651       ??$parse_integer@KV?$c_string_character_source@_W@__crt_strtox@@$00@__crt_strtox@@YAKAAV__crt_cached_ptd_host@@V?$c_string_character_source@_W@0@H_N@Z 1003c651 f i libucrt:atox.obj
 0001:0003bc5b       ??$parse_integer@_KV?$c_string_character_source@D@__crt_strtox@@$00@__crt_strtox@@YA_KAAV__crt_cached_ptd_host@@V?$c_string_character_source@D@0@H_N@Z 1003cc5b f i libucrt:atox.obj
 0001:0003bf23       ??$parse_integer@_KV?$c_string_character_source@_W@__crt_strtox@@$00@__crt_strtox@@YA_KAAV__crt_cached_ptd_host@@V?$c_string_character_source@_W@0@H_N@Z 1003cf23 f i libucrt:atox.obj
 0001:0003c5a9       ??$parse_integer_from_string@JD$$T@__crt_strtox@@YAJQBD$$THQAU__crt_locale_pointers@@@Z 1003d5a9 f i libucrt:atox.obj
 0001:0003c5f0       ??$parse_integer_from_string@J_W$$T@__crt_strtox@@YAJQB_W$$THQAU__crt_locale_pointers@@@Z 1003d5f0 f i libucrt:atox.obj
 0001:0003c637       ??$parse_integer_from_string@_JD$$T@__crt_strtox@@YA_JQBD$$THQAU__crt_locale_pointers@@@Z 1003d637 f i libucrt:atox.obj
 0001:0003c684       ??$parse_integer_from_string@_J_W$$T@__crt_strtox@@YA_JQB_W$$THQAU__crt_locale_pointers@@@Z 1003d684 f i libucrt:atox.obj
 0001:0003c6d1       ?is_space@__crt_strtox@@YA_NDQAU__crt_locale_pointers@@@Z 1003d6d1 f i libucrt:atox.obj
 0001:0003c6ef       ?is_space@__crt_strtox@@YA_N_WPAU__crt_locale_pointers@@@Z 1003d6ef f i libucrt:atox.obj
 0001:0003c707       ?maximum_signed_value@__crt_strtox@@YA_J_K@Z 1003d707 f i libucrt:atox.obj
 0001:0003c710       ?minimum_signed_value@__crt_strtox@@YA_J_K@Z 1003d710 f i libucrt:atox.obj
 0001:0003c718       ___acrt_get_locale_data_prefix 1003d718 f i libucrt:atox.obj
 0001:0003c724       __atoi64                   1003d724 f   libucrt:atox.obj
 0001:0003c769       __atoi64_l                 1003d769 f   libucrt:atox.obj
 0001:0003c7af       __atoi_l                   1003d7af f   libucrt:atox.obj
 0001:0003c7ef       __atol_l                   1003d7ef f   libucrt:atox.obj
 0001:0003c82f       __atoll_l                  1003d82f f   libucrt:atox.obj
 0001:0003c875       __chvalidchk_l             1003d875 f i libucrt:atox.obj
 0001:0003c89d       __ischartype_l             1003d89d f i libucrt:atox.obj
 0001:0003c8f4       __wtoi                     1003d8f4 f   libucrt:atox.obj
 0001:0003c933       __wtoi64                   1003d933 f   libucrt:atox.obj
 0001:0003c978       __wtoi64_l                 1003d978 f   libucrt:atox.obj
 0001:0003c9be       __wtoi_l                   1003d9be f   libucrt:atox.obj
 0001:0003c9fe       __wtol                     1003d9fe f   libucrt:atox.obj
 0001:0003ca3d       __wtol_l                   1003da3d f   libucrt:atox.obj
 0001:0003ca7d       __wtoll                    1003da7d f   libucrt:atox.obj
 0001:0003cac2       __wtoll_l                  1003dac2 f   libucrt:atox.obj
 0001:0003cb08       _atoi                      1003db08 f   libucrt:atox.obj
 0001:0003cb47       _atol                      1003db47 f   libucrt:atox.obj
 0001:0003cb86       _atoll                     1003db86 f   libucrt:atox.obj
 0001:0003cbd0       _strncmp                   1003dbd0 f   libucrt:strncmp.obj
 0001:0003cc48       ??$?RU__acrt_ptd@@@__crt_internal_free_policy@@QBEXQBU__acrt_ptd@@@Z 1003dc48 f i libucrt:per_thread_data.obj
 0001:0003cf34       ??0?$__crt_unique_heap_ptr@U__acrt_ptd@@U__crt_internal_free_policy@@@@QAE@QAU__acrt_ptd@@@Z 1003df34 f i libucrt:per_thread_data.obj
 0001:0003cf44       ??1?$__crt_unique_heap_ptr@U__acrt_ptd@@U__crt_internal_free_policy@@@@QAE@XZ 1003df44 f i libucrt:per_thread_data.obj
 0001:0003cf56       ??B?$__crt_unique_heap_ptr@U__acrt_ptd@@U__crt_internal_free_policy@@@@QBE_NXZ 1003df56 f i libucrt:per_thread_data.obj
 0001:0003d0a4       ?dangerous_get_state_array@?$dual_state_global@PAU__crt_locale_data@@@__crt_state_management@@QAEPAPAU__crt_locale_data@@XZ 1003e0a4 f i libucrt:per_thread_data.obj
 0001:0003d19a       ?detach@?$__crt_unique_heap_ptr@U__acrt_ptd@@U__crt_internal_free_policy@@@@QAEPAU__acrt_ptd@@XZ 1003e19a f i libucrt:per_thread_data.obj
 0001:0003d1a0       ?get@?$__crt_unique_heap_ptr@U__acrt_ptd@@U__crt_internal_free_policy@@@@QBEPAU__acrt_ptd@@XZ 1003e1a0 f i libucrt:per_thread_data.obj
 0001:0003d385       ?is_valid@?$__crt_unique_heap_ptr@U__acrt_ptd@@U__crt_internal_free_policy@@@@QBE_NXZ 1003e385 f i libucrt:per_thread_data.obj
 0001:0003d38c       ?release@?$__crt_unique_heap_ptr@U__acrt_ptd@@U__crt_internal_free_policy@@@@QAEXXZ 1003e38c f i libucrt:per_thread_data.obj
 0001:0003d400       ?value@?$dual_state_global@PAU__crt_locale_data@@@__crt_state_management@@QAEAAPAU__crt_locale_data@@XZ 1003e400 f i libucrt:per_thread_data.obj
 0001:0003d403       ___acrt_freeptd            1003e403 f   libucrt:per_thread_data.obj
 0001:0003d42f       ___acrt_getptd             1003e42f f   libucrt:per_thread_data.obj
 0001:0003d4ea       ___acrt_getptd_head        1003e4ea f   libucrt:per_thread_data.obj
 0001:0003d580       ___acrt_getptd_noexit      1003e580 f   libucrt:per_thread_data.obj
 0001:0003d631       ___acrt_getptd_noexit_explicit 1003e631 f   libucrt:per_thread_data.obj
 0001:0003d6d4       ___acrt_initialize_ptd     1003e6d4 f   libucrt:per_thread_data.obj
 0001:0003d700       ___acrt_uninitialize_ptd   1003e700 f   libucrt:per_thread_data.obj
 0001:0003d71a       ___threadhandle            1003e71a f   libucrt:per_thread_data.obj
 0001:0003d720       ___threadid                1003e720 f   libucrt:per_thread_data.obj
 0001:0003d729       ??$?RU__crt_locale_data@@@__crt_internal_free_policy@@QBEXQBU__crt_locale_data@@@Z 1003e729 f i libucrt:wsetlocale.obj
 0001:0003d73b       ??$?RU__crt_locale_pointers@@@__crt_internal_free_policy@@QBEXQBU__crt_locale_pointers@@@Z 1003e73b f i libucrt:wsetlocale.obj
 0001:0003d74d       ??$?RU__crt_multibyte_data@@@__crt_internal_free_policy@@QBEXQBU__crt_multibyte_data@@@Z 1003e74d f i libucrt:wsetlocale.obj
 0001:0003daf6       ??0?$__crt_unique_heap_ptr@U__crt_locale_data@@U__crt_internal_free_policy@@@@QAE@QAU__crt_locale_data@@@Z 1003eaf6 f i libucrt:wsetlocale.obj
 0001:0003db06       ??0?$__crt_unique_heap_ptr@U__crt_locale_pointers@@U__crt_internal_free_policy@@@@QAE@QAU__crt_locale_pointers@@@Z 1003eb06 f i libucrt:wsetlocale.obj
 0001:0003db16       ??0?$__crt_unique_heap_ptr@U__crt_multibyte_data@@U__crt_internal_free_policy@@@@QAE@QAU__crt_multibyte_data@@@Z 1003eb16 f i libucrt:wsetlocale.obj
 0001:0003db26       ??0_expandlocale_locale_name_cache@@QAE@QA_WIQAU__crt_qualified_locale_data@@@Z 1003eb26 f i libucrt:wsetlocale.obj
 0001:0003db70       ??1?$__crt_unique_heap_ptr@U__crt_locale_data@@U__crt_internal_free_policy@@@@QAE@XZ 1003eb70 f i libucrt:wsetlocale.obj
 0001:0003db82       ??1?$__crt_unique_heap_ptr@U__crt_locale_pointers@@U__crt_internal_free_policy@@@@QAE@XZ 1003eb82 f i libucrt:wsetlocale.obj
 0001:0003db94       ??1?$__crt_unique_heap_ptr@U__crt_multibyte_data@@U__crt_internal_free_policy@@@@QAE@XZ 1003eb94 f i libucrt:wsetlocale.obj
 0001:0003dba6       ??1_expandlocale_locale_name_cache@@QAE@XZ 1003eba6 f i libucrt:wsetlocale.obj
 0001:0003dbd6       ??B?$__crt_unique_heap_ptr@U__crt_locale_data@@U__crt_internal_free_policy@@@@QBE_NXZ 1003ebd6 f i libucrt:wsetlocale.obj
 0001:0003dbdd       ??B?$__crt_unique_heap_ptr@U__crt_locale_pointers@@U__crt_internal_free_policy@@@@QBE_NXZ 1003ebdd f i libucrt:wsetlocale.obj
 0001:0003dbe4       ??B?$__crt_unique_heap_ptr@U__crt_multibyte_data@@U__crt_internal_free_policy@@@@QBE_NXZ 1003ebe4 f i libucrt:wsetlocale.obj
 0001:0003de04       ?commit_locale_name@_expandlocale_locale_name_cache@@QAEXQB_WI@Z 1003ee04 f i libucrt:wsetlocale.obj
 0001:0003de48       ?commit_locale_name_cache_already_updated@_expandlocale_locale_name_cache@@QAEXQB_WI@Z 1003ee48 f i libucrt:wsetlocale.obj
 0001:0003de7d       ?detach@?$__crt_unique_heap_ptr@U__crt_locale_data@@U__crt_internal_free_policy@@@@QAEPAU__crt_locale_data@@XZ 1003ee7d f i libucrt:wsetlocale.obj
 0001:0003de83       ?detach@?$__crt_unique_heap_ptr@U__crt_locale_pointers@@U__crt_internal_free_policy@@@@QAEPAU__crt_locale_pointers@@XZ 1003ee83 f i libucrt:wsetlocale.obj
 0001:0003de89       ?detach@?$__crt_unique_heap_ptr@U__crt_multibyte_data@@U__crt_internal_free_policy@@@@QAEPAU__crt_multibyte_data@@XZ 1003ee89 f i libucrt:wsetlocale.obj
 0001:0003de8f       ?get@?$__crt_unique_heap_ptr@U__crt_locale_data@@U__crt_internal_free_policy@@@@QBEPAU__crt_locale_data@@XZ 1003ee8f f i libucrt:wsetlocale.obj
 0001:0003de92       ?get@?$__crt_unique_heap_ptr@U__crt_locale_pointers@@U__crt_internal_free_policy@@@@QBEPAU__crt_locale_pointers@@XZ 1003ee92 f i libucrt:wsetlocale.obj
 0001:0003de95       ?get@?$__crt_unique_heap_ptr@U__crt_multibyte_data@@U__crt_internal_free_policy@@@@QBEPAU__crt_multibyte_data@@XZ 1003ee95 f i libucrt:wsetlocale.obj
 0001:0003de98       ?is_valid@?$__crt_unique_heap_ptr@U__crt_locale_data@@U__crt_internal_free_policy@@@@QBE_NXZ 1003ee98 f i libucrt:wsetlocale.obj
 0001:0003de9f       ?is_valid@?$__crt_unique_heap_ptr@U__crt_locale_pointers@@U__crt_internal_free_policy@@@@QBE_NXZ 1003ee9f f i libucrt:wsetlocale.obj
 0001:0003dea6       ?is_valid@?$__crt_unique_heap_ptr@U__crt_multibyte_data@@U__crt_internal_free_policy@@@@QBE_NXZ 1003eea6 f i libucrt:wsetlocale.obj
 0001:0003dead       ?release@?$__crt_unique_heap_ptr@U__crt_locale_data@@U__crt_internal_free_policy@@@@QAEXXZ 1003eead f i libucrt:wsetlocale.obj
 0001:0003debf       ?release@?$__crt_unique_heap_ptr@U__crt_locale_pointers@@U__crt_internal_free_policy@@@@QAEXXZ 1003eebf f i libucrt:wsetlocale.obj
 0001:0003ded1       ?release@?$__crt_unique_heap_ptr@U__crt_multibyte_data@@U__crt_internal_free_policy@@@@QAEXXZ 1003eed1 f i libucrt:wsetlocale.obj
 0001:0003dee3       ___acrt_copy_locale_name   1003eee3 f   libucrt:wsetlocale.obj
 0001:0003df43       ___acrt_set_locale_changed 1003ef43 f   libucrt:wsetlocale.obj
 0001:0003df4e       ___acrt_uninitialize_locale 1003ef4e f   libucrt:wsetlocale.obj
 0001:0003df75       ___ascii_tolower           1003ef75 f i libucrt:wsetlocale.obj
 0001:0003df8c       ___ascii_towlower          1003ef8c f i libucrt:wsetlocale.obj
 0001:0003dfa3       ___lc_lctowcs              1003efa3 f   libucrt:wsetlocale.obj
 0001:0003e013       ___lc_wcstolc              1003f013 f   libucrt:wsetlocale.obj
 0001:0003e163       __configthreadlocale       1003f163 f   libucrt:wsetlocale.obj
 0001:0003e1f4       __create_locale            1003f1f4 f   libucrt:wsetlocale.obj
 0001:0003e61e       __free_locale              1003f61e f   libucrt:wsetlocale.obj
 0001:0003e6e0       __get_current_locale       1003f6e0 f   libucrt:wsetlocale.obj
 0001:0003e77b       __wcreate_locale           1003f77b f   libucrt:wsetlocale.obj
 0001:0003e882       __wcscats                  1003f882 f   libucrt:wsetlocale.obj
 0001:0003e8c3       __wsetlocale               1003f8c3 f   libucrt:wsetlocale.obj
 0001:0003f628       ___p___mb_cur_max          10040628 f   libucrt:nlsdata.obj
 0001:0003f653       __free_base                10040653 f   libucrt:free_base.obj
 0001:0003f68d       __malloc_base              1004068d f   libucrt:malloc_base.obj
 0001:0003f6db       ?value@?$dual_state_global@PAU__crt_multibyte_data@@@__crt_state_management@@QAEAAPAU__crt_multibyte_data@@XZ 100406db f i libucrt:locale_update.obj
 0001:0003f6de       ?value_explicit@?$dual_state_global@PAU__crt_locale_data@@@__crt_state_management@@QAEAAPAU__crt_locale_data@@I@Z 100406de f i libucrt:locale_update.obj
 0001:0003f6ed       ?value_explicit@?$dual_state_global@PAU__crt_multibyte_data@@@__crt_state_management@@QAEAAPAU__crt_multibyte_data@@I@Z 100406ed f i libucrt:locale_update.obj
 0001:0003f6fc       ___acrt_should_sync_with_global_locale 100406fc f i libucrt:locale_update.obj
 0001:0003f718       ___acrt_update_locale_info 10040718 f   libucrt:locale_update.obj
 0001:0003f745       ___acrt_update_locale_info_explicit 10040745 f   libucrt:locale_update.obj
 0001:0003f776       ___acrt_update_multibyte_info 10040776 f   libucrt:locale_update.obj
 0001:0003f7a3       ___acrt_update_multibyte_info_explicit 100407a3 f   libucrt:locale_update.obj
 0001:0003f7d4       ?__acrt_fp_classify@@YA?AW4__acrt_fp_class@@ABN@Z 100407d4 f i libucrt:cvt.obj
 0001:0003f836       ?__acrt_fp_is_negative@@YA_NABN@Z 10040836 f i libucrt:cvt.obj
 0001:000401b6       ?strrchr@@YAPADQADH@Z      100411b6 f i libucrt:cvt.obj
 0001:000401c1       ___acrt_fp_format          100411c1 f   libucrt:cvt.obj
 0001:00040342       ?value_or@?$cached@H@__crt_cached_ptd_host@@QBEHH@Z 10041342 f i libucrt:wctomb.obj
 0001:00040358       __wctomb_internal          10041358 f   libucrt:wctomb.obj
 0001:000404c2       __wctomb_l                 100414c2 f   libucrt:wctomb.obj
 0001:0004051d       __wctomb_s_l               1004151d f   libucrt:wctomb.obj
 0001:00040558       _wctomb                    10041558 f   libucrt:wctomb.obj
 0001:000405a4       _wctomb_s                  100415a4 f   libucrt:wctomb.obj
 0001:000405de       __isleadbyte_fast_internal 100415de f i libucrt:mbtowc.obj
 0001:000405fc       __mbtowc_internal          100415fc f   libucrt:mbtowc.obj
 0001:0004072f       __mbtowc_l                 1004172f f   libucrt:mbtowc.obj
 0001:00040767       _mbtowc                    10041767 f   libucrt:mbtowc.obj
 0001:0004079e       ?lowio_handle@__crt_stdio_stream@@QBEHXZ 1004179e f i libucrt:fileno.obj
 0001:000407a5       __fileno                   100417a5 f   libucrt:fileno.obj
 0001:000407cc       __get_printf_count_output  100417cc f   libucrt:printf_count_output.obj
 0001:000407e1       __set_printf_count_output  100417e1 f   libucrt:printf_count_output.obj
 0001:000408cf       __fputwc_nolock            100418cf f   libucrt:fputwc.obj
 0001:00040905       __fputwc_nolock_internal   10041905 f   libucrt:fputwc.obj
 0001:00040a3d       __fputwchar                10041a3d f   libucrt:fputwc.obj
 0001:00040a57       __putwc_nolock             10041a57 f   libucrt:fputwc.obj
 0001:00040a62       _fputwc                    10041a62 f   libucrt:fputwc.obj
 0001:00040a98       _putwc                     10041a98 f   libucrt:fputwc.obj
 0001:00040aa3       _putwchar                  10041aa3 f   libucrt:fputwc.obj
 0001:00040bdb       __fputc_nolock             10041bdb f   libucrt:fputc.obj
 0001:00040c0f       __fputc_nolock_internal    10041c0f f   libucrt:fputc.obj
 0001:00040c3c       __fputchar                 10041c3c f   libucrt:fputc.obj
 0001:00040c56       __putc_nolock              10041c56 f   libucrt:fputc.obj
 0001:00040c61       _fputc                     10041c61 f   libucrt:fputc.obj
 0001:00040c95       _putc                      10041c95 f   libucrt:fputc.obj
 0001:00040ca0       _putchar                   10041ca0 f   libucrt:fputc.obj
 0001:00040cab       ?has_any_buffer@__crt_stdio_stream@@QBE_NXZ 10041cab f i libucrt:_sftbuf.obj
 0001:00040cba       ?has_any_of@__crt_stdio_stream@@QBE_NJ@Z 10041cba f i libucrt:_sftbuf.obj
 0001:00040ccf       ?has_temporary_buffer@__crt_stdio_stream@@QBE_NXZ 10041ccf f i libucrt:_sftbuf.obj
 0001:00040cdb       ?set_flags@__crt_stdio_stream@@QBE_NJ@Z 10041cdb f i libucrt:_sftbuf.obj
 0001:00040cff       ?unset_flags@__crt_stdio_stream@@QBE_NJ@Z 10041cff f i libucrt:_sftbuf.obj
 0001:00040d28       ___acrt_should_use_temporary_buffer 10041d28 f   libucrt:_sftbuf.obj
 0001:00040d63       ___acrt_stdio_begin_temporary_buffering_nolock 10041d63 f   libucrt:_sftbuf.obj
 0001:00040e0f       ___acrt_stdio_end_temporary_buffering_nolock 10041e0f f   libucrt:_sftbuf.obj
 0001:00040fd5       ___acrt_initialize_lowio   10041fd5 f   libucrt:ioinit.obj
 0001:00041035       ___acrt_uninitialize_lowio 10042035 f   libucrt:ioinit.obj
 0001:00041061       ___acrt_LCMapStringW       10042061 f   libucrt:lcmapstringw.obj
 0001:0004109f       __realloc_base             1004209f f   libucrt:realloc_base.obj
 0001:00041108       ___acrt_initialize_locks   10042108 f   libucrt:locks.obj
 0001:00041149       ___acrt_lock               10042149 f   libucrt:locks.obj
 0001:00041160       ___acrt_uninitialize_locks 10042160 f   libucrt:locks.obj
 0001:00041191       ___acrt_unlock             10042191 f   libucrt:locks.obj
 0001:000411a8       __lock_locales             100421a8 f   libucrt:locks.obj
 0001:000411b6       __unlock_locales           100421b6 f   libucrt:locks.obj
 0001:00041366       ___acrt_get_begin_thread_init_policy 10042366 f   libucrt:win_policies.obj
 0001:000413aa       ___acrt_get_developer_information_policy 100423aa f   libucrt:win_policies.obj
 0001:000413ee       ___acrt_get_process_end_policy 100423ee f   libucrt:win_policies.obj
 0001:0004141f       ___acrt_get_windowing_model_policy 1004241f f   libucrt:win_policies.obj
 0001:0004147b       __iswctype_l               1004247b f   libucrt:iswctype.obj
 0001:0004148f       _iswctype                  1004248f f   libucrt:iswctype.obj
 0001:000414f8       __calloc_base              100424f8 f   libucrt:calloc_base.obj
 0001:00041562       ??$?B$$A6GHPA_WKJ@Z@__crt_fast_encoded_nullptr_t@@QBEP6GHPA_WKJ@ZXZ 10042562 f i libucrt:winapi_thunks.obj
 0001:0004160a       ??$__crt_fast_decode_pointer@P6GHPA_WKJ@Z@@YAP6GHPA_WKJ@ZQ6GH0KJ@Z@Z 1004260a f i libucrt:winapi_thunks.obj
 0001:00041620       ??$__crt_fast_decode_pointer@PAX@@YAPAXQAX@Z 10042620 f i libucrt:winapi_thunks.obj
 0001:00041636       ??$__crt_fast_encode_pointer@P6GHPA_WKJ@Z@@YAP6GHPA_WKJ@ZQ6GH0KJ@Z@Z 10042636 f i libucrt:winapi_thunks.obj
 0001:00041cc6       _GetCurrentThreadEffectiveToken 10042cc6 f i libucrt:winapi_thunks.obj
 0001:00041cca       ___acrt_AppPolicyGetProcessTerminationMethodInternal@4 10042cca f   libucrt:winapi_thunks.obj
 0001:00041d0a       ___acrt_AppPolicyGetShowDeveloperDiagnosticInternal@4 10042d0a f   libucrt:winapi_thunks.obj
 0001:00041d4a       ___acrt_AppPolicyGetThreadInitializationTypeInternal@4 10042d4a f   libucrt:winapi_thunks.obj
 0001:00041d8a       ___acrt_AppPolicyGetWindowingModelInternal@4 10042d8a f   libucrt:winapi_thunks.obj
 0001:00041dca       ___acrt_AreFileApisANSI@0  10042dca f   libucrt:winapi_thunks.obj
 0001:00041de9       ___acrt_CompareStringEx@36 10042de9 f   libucrt:winapi_thunks.obj
 0001:00041e46       ___acrt_EnumSystemLocalesEx@16 10042e46 f   libucrt:winapi_thunks.obj
 0001:00041e9a       ___acrt_FlsAlloc@4         10042e9a f   libucrt:winapi_thunks.obj
 0001:00041ed9       ___acrt_FlsFree@4          10042ed9 f   libucrt:winapi_thunks.obj
 0001:00041f18       ___acrt_FlsGetValue@4      10042f18 f   libucrt:winapi_thunks.obj
 0001:00041f57       ___acrt_FlsSetValue@8      10042f57 f   libucrt:winapi_thunks.obj
 0001:00041f99       ___acrt_GetDateFormatEx@28 10042f99 f   libucrt:winapi_thunks.obj
 0001:00041ff2       ___acrt_GetEnabledXStateFeatures@0 10042ff2 f   libucrt:winapi_thunks.obj
 0001:00042026       ___acrt_GetLocaleInfoEx@16 10043026 f   libucrt:winapi_thunks.obj
 0001:00042065       ___acrt_GetSystemTimePreciseAsFileTime@4 10043065 f   libucrt:winapi_thunks.obj
 0001:000420a4       ___acrt_GetTimeFormatEx@24 100430a4 f   libucrt:winapi_thunks.obj
 0001:000420e9       ___acrt_GetUserDefaultLocaleName@8 100430e9 f   libucrt:winapi_thunks.obj
 0001:00042125       ___acrt_GetXStateFeaturesMask@8 10043125 f   libucrt:winapi_thunks.obj
 0001:00042165       ___acrt_InitializeCriticalSectionEx@12 10043165 f   libucrt:winapi_thunks.obj
 0001:000421b0       ___acrt_IsValidLocaleName@4 100431b0 f   libucrt:winapi_thunks.obj
 0001:000421e8       ___acrt_LCIDToLocaleName@16 100431e8 f   libucrt:winapi_thunks.obj
 0001:00042227       ___acrt_LCMapStringEx@36   10043227 f   libucrt:winapi_thunks.obj
 0001:00042284       ___acrt_LocaleNameToLCID@8 10043284 f   libucrt:winapi_thunks.obj
 0001:000422b5       ___acrt_LocateXStateFeature@12 100432b5 f   libucrt:winapi_thunks.obj
 0001:000422e4       ___acrt_MessageBoxA@16     100432e4 f   libucrt:winapi_thunks.obj
 0001:00042316       ___acrt_MessageBoxW@16     10043316 f   libucrt:winapi_thunks.obj
 0001:00042348       ___acrt_RoInitialize@4     10043348 f   libucrt:winapi_thunks.obj
 0001:00042383       ___acrt_RoUninitialize@0   10043383 f   libucrt:winapi_thunks.obj
 0001:000423b1       ___acrt_RtlGenRandom@8     100433b1 f   libucrt:winapi_thunks.obj
 0001:000423f1       ___acrt_SetThreadStackGuarantee@4 100433f1 f   libucrt:winapi_thunks.obj
 0001:0004242c       ___acrt_can_show_message_box 1004342c f   libucrt:winapi_thunks.obj
 0001:00042453       ___acrt_can_use_vista_locale_apis 10043453 f   libucrt:winapi_thunks.obj
 0001:0004245e       ___acrt_can_use_xstate_apis 1004345e f   libucrt:winapi_thunks.obj
 0001:00042469       ___acrt_eagerly_load_locale_apis 10043469 f   libucrt:winapi_thunks.obj
 0001:000424a0       ___acrt_get_parent_window  100434a0 f   libucrt:winapi_thunks.obj
 0001:00042508       ___acrt_initialize_winapi_thunks 10043508 f   libucrt:winapi_thunks.obj
 0001:0004251c       ___acrt_is_interactive     1004351c f   libucrt:winapi_thunks.obj
 0001:000425bb       ___acrt_uninitialize_winapi_thunks 100435bb f   libucrt:winapi_thunks.obj
 0001:000425f1       ??0__crt_stdio_stream@@QAE@QAU__crt_stdio_stream_data@@@Z 100435f1 f i libucrt:closeall.obj
 0001:00042601       __fcloseall                10043601 f   libucrt:closeall.obj
 0001:00042a6c       ?__acrt_stdio_reset_buffer@@YAXV__crt_stdio_stream@@@Z 10043a6c f i libucrt:fflush.obj
 0001:00042b4e       ?has_all_of@__crt_stdio_stream@@QBE_NJ@Z 10043b4e f i libucrt:fflush.obj
 0001:00042bb6       ___acrt_stdio_flush_nolock 10043bb6 f   libucrt:fflush.obj
 0001:00042c1f       __fflush_nolock            10043c1f f   libucrt:fflush.obj
 0001:00042c84       __flushall                 10043c84 f   libucrt:fflush.obj
 0001:00042c8d       _fflush                    10043c8d f   libucrt:fflush.obj
 0001:00042ce2       ?has_crt_buffer@__crt_stdio_stream@@QBE_NXZ 10043ce2 f i libucrt:_freebuf.obj
 0001:00042cee       ___acrt_stdio_free_buffer_nolock 10043cee f   libucrt:_freebuf.obj
 0001:00042d2e       ??$?RU__crt_stdio_stream_data@@@__crt_internal_free_policy@@QBEXQBU__crt_stdio_stream_data@@@Z 10043d2e f i libucrt:stream.obj
 0001:00042d40       ??0?$__crt_unique_heap_ptr@U__crt_stdio_stream_data@@U__crt_internal_free_policy@@@@QAE@QAU__crt_stdio_stream_data@@@Z 10043d40 f i libucrt:stream.obj
 0001:00042d50       ??0__crt_stdio_stream@@QAE@XZ 10043d50 f i libucrt:stream.obj
 0001:00042d56       ??1?$__crt_unique_heap_ptr@U__crt_stdio_stream_data@@U__crt_internal_free_policy@@@@QAE@XZ 10043d56 f i libucrt:stream.obj
 0001:00042d68       ?__acrt_stdio_allocate_stream@@YA?AV__crt_stdio_stream@@XZ 10043d68 f   libucrt:stream.obj
 0001:00042dd1       ?__acrt_stdio_free_stream@@YAXV__crt_stdio_stream@@@Z 10043dd1 f   libucrt:stream.obj
 0001:00042e0c       ?deallocate@__crt_stdio_stream@@QAEXXZ 10043e0c f i libucrt:stream.obj
 0001:00042e16       ?detach@?$__crt_unique_heap_ptr@U__crt_stdio_stream_data@@U__crt_internal_free_policy@@@@QAEPAU__crt_stdio_stream_data@@XZ 10043e16 f i libucrt:stream.obj
 0001:00042ede       ?lock@__crt_stdio_stream@@QBEXXZ 10043ede f i libucrt:stream.obj
 0001:00042ee7       ?release@?$__crt_unique_heap_ptr@U__crt_stdio_stream_data@@U__crt_internal_free_policy@@@@QAEXXZ 10043ee7 f i libucrt:stream.obj
 0001:00042ef9       ?try_allocate@__crt_stdio_stream@@QAE_NXZ 10043ef9 f i libucrt:stream.obj
 0001:00042f19       ??$__acrt_stdio_parse_mode@D@@YA?AU__acrt_stdio_stream_mode@@QBD@Z 10043f19 f i libucrt:openfile.obj
 0001:00043143       ??$__acrt_stdio_parse_mode@_W@@YA?AU__acrt_stdio_stream_mode@@QB_W@Z 10044143 f i libucrt:openfile.obj
 0001:000434b4       ??$tcsncmp@AAPBDAAY02$$CBDI@?$__crt_char_traits@D@@SAHAAPBDAAY02$$CBD$$QAI@Z 100444b4 f i libucrt:openfile.obj
 0001:000434d0       ??$tcsncmp@AAPB_WAAY02$$CB_WI@?$__crt_char_traits@_W@@SAHAAPB_WAAY02$$CB_W$$QAI@Z 100444d0 f i libucrt:openfile.obj
 0001:000434ec       ??$tcsnicmp@AAPBDAAY04$$CBDI@?$__crt_char_traits@D@@SAHAAPBDAAY04$$CBD$$QAI@Z 100444ec f i libucrt:openfile.obj
 0001:00043508       ??$tcsnicmp@AAPBDAAY06$$CBDI@?$__crt_char_traits@D@@SAHAAPBDAAY06$$CBD$$QAI@Z 10044508 f i libucrt:openfile.obj
 0001:00043524       ??$tcsnicmp@AAPBDAAY07$$CBDI@?$__crt_char_traits@D@@SAHAAPBDAAY07$$CBD$$QAI@Z 10044524 f i libucrt:openfile.obj
 0001:00043540       ??$tcsnicmp@AAPB_WAAY04$$CB_WI@?$__crt_char_traits@_W@@SAHAAPB_WAAY04$$CB_W$$QAI@Z 10044540 f i libucrt:openfile.obj
 0001:0004355c       ??$tcsnicmp@AAPB_WAAY06$$CB_WI@?$__crt_char_traits@_W@@SAHAAPB_WAAY06$$CB_W$$QAI@Z 1004455c f i libucrt:openfile.obj
 0001:00043578       ??$tcsnicmp@AAPB_WAAY07$$CB_WI@?$__crt_char_traits@_W@@SAHAAPB_WAAY07$$CB_W$$QAI@Z 10044578 f i libucrt:openfile.obj
 0001:00043594       ??$tsopen_s@PAHABQBDABHABHH@?$__crt_char_traits@D@@SAH$$QAPAHABQBDABH2$$QAH@Z 10044594 f i libucrt:openfile.obj
 0001:000435bc       ??$tsopen_s@PAHABQB_WABHABHH@?$__crt_char_traits@_W@@SAH$$QAPAHABQB_WABH2$$QAH@Z 100445bc f i libucrt:openfile.obj
 0001:000435e4       ?__acrt_stdio_parse_mode_D@@YA_NAAU__acrt_stdio_stream_mode@@@Z 100445e4 f i libucrt:openfile.obj
 0001:000435ff       ?__acrt_stdio_parse_mode_N@@YA_NAAU__acrt_stdio_stream_mode@@@Z 100445ff f i libucrt:openfile.obj
 0001:00043611       ?__acrt_stdio_parse_mode_R@@YA_NAAU__acrt_stdio_stream_mode@@AA_N@Z 10044611 f i libucrt:openfile.obj
 0001:0004362f       ?__acrt_stdio_parse_mode_S@@YA_NAAU__acrt_stdio_stream_mode@@AA_N@Z 1004462f f i libucrt:openfile.obj
 0001:0004364d       ?__acrt_stdio_parse_mode_T@@YA_NAAU__acrt_stdio_stream_mode@@@Z 1004464d f i libucrt:openfile.obj
 0001:0004366c       ?__acrt_stdio_parse_mode_b@@YA_NAAU__acrt_stdio_stream_mode@@@Z 1004466c f i libucrt:openfile.obj
 0001:0004368c       ?__acrt_stdio_parse_mode_c@@YA_NAAU__acrt_stdio_stream_mode@@AA_N@Z 1004468c f i libucrt:openfile.obj
 0001:000436ae       ?__acrt_stdio_parse_mode_n@@YA_NAAU__acrt_stdio_stream_mode@@AA_N@Z 100446ae f i libucrt:openfile.obj
 0001:000436d0       ?__acrt_stdio_parse_mode_plus@@YA_NAAU__acrt_stdio_stream_mode@@AA_N@Z 100446d0 f i libucrt:openfile.obj
 0001:00043706       ?__acrt_stdio_parse_mode_t@@YA_NAAU__acrt_stdio_stream_mode@@@Z 10044706 f i libucrt:openfile.obj
 0001:00043726       ?__acrt_stdio_parse_mode_x@@YA_NAAU__acrt_stdio_stream_mode@@@Z 10044726 f i libucrt:openfile.obj
 0001:00043746       __openfile                 10044746 f   libucrt:openfile.obj
 0001:00043751       __wopenfile                10044751 f   libucrt:openfile.obj
 0001:0004375c       ___ascii_wcsicmp           1004475c f   libucrt:wcsicmp.obj
 0001:00043799       __towlower_fast_internal   10044799 f i libucrt:wcsicmp.obj
 0001:000437c4       __towlower_internal        100447c4 f i libucrt:wcsicmp.obj
 0001:00043803       __wcsicmp                  10044803 f   libucrt:wcsicmp.obj
 0001:0004384c       __wcsicmp_l                1004484c f   libucrt:wcsicmp.obj
 0001:00043904       ?dangerous_get_state_array@?$dual_state_global@PAPAD@__crt_state_management@@QAEPAPAPADXZ 10044904 f i libucrt:timeset.obj
 0001:00043907       ?dangerous_get_state_array@?$dual_state_global@PAPA_W@__crt_state_management@@QAEPAPAPA_WXZ 10044907 f i libucrt:timeset.obj
 0001:0004390a       ?initialize@?$dual_state_global@H@__crt_state_management@@QAEXH@Z 1004490a f i libucrt:timeset.obj
 0001:00043926       ?initialize@?$dual_state_global@J@__crt_state_management@@QAEXJ@Z 10044926 f i libucrt:timeset.obj
 0001:00043942       ?value@?$dual_state_global@H@__crt_state_management@@QAEAAHXZ 10044942 f i libucrt:timeset.obj
 0001:00043945       ?value@?$dual_state_global@J@__crt_state_management@@QAEAAJXZ 10044945 f i libucrt:timeset.obj
 0001:00043948       ___acrt_initialize_timeset 10044948 f   libucrt:timeset.obj
 0001:0004397d       ___daylight                1004497d f   libucrt:timeset.obj
 0001:00043983       ___dstbias                 10044983 f   libucrt:timeset.obj
 0001:00043989       ___timezone                10044989 f   libucrt:timeset.obj
 0001:0004398f       ___tzname                  1004498f f   libucrt:timeset.obj
 0001:00043995       ___wide_tzname             10044995 f   libucrt:timeset.obj
 0001:0004399b       __get_daylight             1004499b f   libucrt:timeset.obj
 0001:000439c7       __get_dstbias              100449c7 f   libucrt:timeset.obj
 0001:000439f3       __get_timezone             100449f3 f   libucrt:timeset.obj
 0001:00043a1f       __get_tzname               10044a1f f   libucrt:timeset.obj
 0001:00043ad5       ??$__crt_time_elapsed_leap_years@H@@YAHH@Z 10044ad5 f i libucrt:tzset.obj
 0001:00043b0f       ?__acrt_get_utf8_acp_compatibility_codepage@@YAIXZ 10044b0f f i libucrt:tzset.obj
 0001:00043d68       ?_set_daylight@@YAXH@Z     10044d68 f i libucrt:tzset.obj
 0001:00043d79       ?_set_dstbias@@YAXJ@Z      10044d79 f i libucrt:tzset.obj
 0001:00043d8a       ?_set_timezone@@YAXJ@Z     10044d8a f i libucrt:tzset.obj
 0001:00043edb       ?dangerous_get_state_array@?$dual_state_global@J@__crt_state_management@@QAEPAJXZ 10044edb f i libucrt:tzset.obj
 0001:00044440       ___tzset                   10045440 f   libucrt:tzset.obj
 0001:0004449d       __isindst                  1004549d f   libucrt:tzset.obj
 0001:000444f1       __tzset                    100454f1 f   libucrt:tzset.obj
 0001:000446e0       __close                    100456e0 f   libucrt:close.obj
 0001:00044710       __close_internal           10045710 f   libucrt:close.obj
 0001:000447b3       __close_nolock             100457b3 f   libucrt:close.obj
 0001:000447e3       __close_nolock_internal    100457e3 f   libucrt:close.obj
 0001:000449ae       ?has_big_buffer@__crt_stdio_stream@@QBE_NXZ 100459ae f i libucrt:fwrite.obj
 0001:000449ba       __fwrite_internal          100459ba f   libucrt:fwrite.obj
 0001:00044a31       __fwrite_nolock            10045a31 f   libucrt:fwrite.obj
 0001:00044a6b       __fwrite_nolock_internal   10045a6b f   libucrt:fwrite.obj
 0001:00044c15       _fwrite                    10045c15 f   libucrt:fwrite.obj
 0001:00044c4f       ??$?RUtm@@@__crt_internal_free_policy@@QBEXQBUtm@@@Z 10045c4f f i libucrt:gmtime.obj
 0001:00044f01       ??0?$__crt_unique_heap_ptr@Utm@@U__crt_internal_free_policy@@@@QAE@QAUtm@@@Z 10045f01 f i libucrt:gmtime.obj
 0001:00044f11       ??1?$__crt_unique_heap_ptr@Utm@@U__crt_internal_free_policy@@@@QAE@XZ 10045f11 f i libucrt:gmtime.obj
 0001:0004503e       ?detach@?$__crt_unique_heap_ptr@Utm@@U__crt_internal_free_policy@@@@QAEPAUtm@@XZ 1004603e f i libucrt:gmtime.obj
 0001:00045044       ?release@?$__crt_unique_heap_ptr@Utm@@U__crt_internal_free_policy@@@@QAEXXZ 10046044 f i libucrt:gmtime.obj
 0001:00045056       ___getgmtimebuf            10046056 f   libucrt:gmtime.obj
 0001:00045094       __gmtime32                 10046094 f   libucrt:gmtime.obj
 0001:000450bb       __gmtime32_s               100460bb f   libucrt:gmtime.obj
 0001:000450c6       __gmtime64                 100460c6 f   libucrt:gmtime.obj
 0001:000450ed       __gmtime64_s               100460ed f   libucrt:gmtime.obj
 0001:000450f8       __msize                    100460f8 f   libucrt:msize.obj
 0001:00045103       __msize_base               10046103 f   libucrt:msize.obj
 0001:00045166       ??$__acrt_convert_wcs_mbs_cp@D_WV<lambda_62f6974d9771e494a5ea317cc32e971c>@@U__crt_win32_buffer_internal_dynamic_resizing@@@@YAHQBDAAV?$__crt_win32_buffer@_WU__crt_win32_buffer_internal_dynamic_resizing@@@@ABV<lambda_62f6974d9771e494a5ea317cc32e971c>@@I@Z 10046166 f i libucrt:argv_wildcards.obj
 0001:00045218       ??$__acrt_convert_wcs_mbs_cp@_WDV<lambda_28bda7af82a03b66c1cb3803a755f95d>@@U__crt_win32_buffer_internal_dynamic_resizing@@@@YAHQB_WAAV?$__crt_win32_buffer@DU__crt_win32_buffer_internal_dynamic_resizing@@@@ABV<lambda_28bda7af82a03b66c1cb3803a755f95d>@@I@Z 10046218 f i libucrt:argv_wildcards.obj
 0001:000452de       ??$__acrt_mbs_to_wcs_cp@U__crt_win32_buffer_internal_dynamic_resizing@@@@YAHQBDAAV?$__crt_win32_buffer@_WU__crt_win32_buffer_internal_dynamic_resizing@@@@I@Z 100462de f i libucrt:argv_wildcards.obj
 0001:000452fb       ??$__acrt_wcs_to_mbs_cp@U__crt_win32_buffer_internal_dynamic_resizing@@@@YAHQB_WAAV?$__crt_win32_buffer@DU__crt_win32_buffer_internal_dynamic_resizing@@@@I@Z 100462fb f i libucrt:argv_wildcards.obj
 0001:00045bad       ??$tcslen@ABQBD@?$__crt_char_traits@D@@SAIABQBD@Z 10046bad f i libucrt:argv_wildcards.obj
 0001:00045bc5       ??$tcslen@ABQB_W@?$__crt_char_traits@_W@@SAIABQB_W@Z 10046bc5 f i libucrt:argv_wildcards.obj
 0001:00045be3       ??$tcsncpy_s@AAPADIAAPADABI@?$__crt_char_traits@D@@SAHAAPAD$$QAI0ABI@Z 10046be3 f i libucrt:argv_wildcards.obj
 0001:00045c06       ??$tcsncpy_s@AAPA_WIAAPA_WABI@?$__crt_char_traits@_W@@SAHAAPA_W$$QAI0ABI@Z 10046c06 f i libucrt:argv_wildcards.obj
 0001:00045c29       ??$tcsncpy_s@PADABIABQBDABI@?$__crt_char_traits@D@@SAH$$QAPADABIABQBD1@Z 10046c29 f i libucrt:argv_wildcards.obj
 0001:00045c4c       ??$tcsncpy_s@PADIABQBDABI@?$__crt_char_traits@D@@SAH$$QAPAD$$QAIABQBDABI@Z 10046c4c f i libucrt:argv_wildcards.obj
 0001:00045c6f       ??$tcsncpy_s@PA_WABIABQB_WABI@?$__crt_char_traits@_W@@SAH$$QAPA_WABIABQB_W1@Z 10046c6f f i libucrt:argv_wildcards.obj
 0001:00045c92       ??$tcsncpy_s@PA_WIABQB_WABI@?$__crt_char_traits@_W@@SAH$$QAPA_W$$QAIABQB_WABI@Z 10046c92 f i libucrt:argv_wildcards.obj
 0001:00045cb5       ??$tcspbrk@AAPADAAY02$$CBD@?$__crt_char_traits@D@@SAPADAAPADAAY02$$CBD@Z 10046cb5 f i libucrt:argv_wildcards.obj
 0001:00045ccb       ??$tcspbrk@AAPA_WAAY02$$CB_W@?$__crt_char_traits@_W@@SAPA_WAAPA_WAAY02$$CB_W@Z 10046ccb f i libucrt:argv_wildcards.obj
 0001:00045ce1       ??0?$__crt_unique_handle_t@U__crt_findfile_traits@@@@QAE@QAX@Z 10046ce1 f i libucrt:argv_wildcards.obj
 0001:00045cf1       ??0?$__crt_win32_buffer@DU__crt_win32_buffer_internal_dynamic_resizing@@@@QAE@XZ 10046cf1 f i libucrt:argv_wildcards.obj
 0001:00045d07       ??0?$__crt_win32_buffer@_WU__crt_win32_buffer_internal_dynamic_resizing@@@@QAE@XZ 10046d07 f i libucrt:argv_wildcards.obj
 0001:00045d37       ??1?$__crt_unique_handle_t@U__crt_findfile_traits@@@@QAE@XZ 10046d37 f i libucrt:argv_wildcards.obj
 0001:00045d4e       ??1?$__crt_win32_buffer@DU__crt_win32_buffer_internal_dynamic_resizing@@@@QAE@XZ 10046d4e f i libucrt:argv_wildcards.obj
 0001:00045d53       ??1?$__crt_win32_buffer@_WU__crt_win32_buffer_internal_dynamic_resizing@@@@QAE@XZ 10046d53 f i libucrt:argv_wildcards.obj
 0001:00045db6       ??R<lambda_28bda7af82a03b66c1cb3803a755f95d>@@QBEHIQB_WQADI@Z 10046db6 f i libucrt:argv_wildcards.obj
 0001:00045df8       ??R<lambda_62f6974d9771e494a5ea317cc32e971c>@@QBEHIQBDQA_WI@Z 10046df8 f i libucrt:argv_wildcards.obj
 0001:00045e71       ?_deallocate@?$__crt_win32_buffer@DU__crt_win32_buffer_internal_dynamic_resizing@@@@AAEXXZ 10046e71 f i libucrt:argv_wildcards.obj
 0001:00045e8b       ?_deallocate@?$__crt_win32_buffer@_WU__crt_win32_buffer_internal_dynamic_resizing@@@@AAEXXZ 10046e8b f i libucrt:argv_wildcards.obj
 0001:00045ea5       ?allocate@?$__crt_win32_buffer@DU__crt_win32_buffer_internal_dynamic_resizing@@@@QAEHI@Z 10046ea5 f i libucrt:argv_wildcards.obj
 0001:00045ee1       ?allocate@?$__crt_win32_buffer@_WU__crt_win32_buffer_internal_dynamic_resizing@@@@QAEHI@Z 10046ee1 f i libucrt:argv_wildcards.obj
 0001:00045f20       ?allocate@__crt_win32_buffer_internal_dynamic_resizing@@SAHQAPAXIABV__crt_win32_buffer_empty_debug_info@@@Z 10046f20 f i libucrt:argv_wildcards.obj
 0001:00045faf       ?capacity@?$__crt_win32_buffer@DU__crt_win32_buffer_internal_dynamic_resizing@@@@QBEIXZ 10046faf f i libucrt:argv_wildcards.obj
 0001:00045fb3       ?capacity@?$__crt_win32_buffer@_WU__crt_win32_buffer_internal_dynamic_resizing@@@@QBEIXZ 10046fb3 f i libucrt:argv_wildcards.obj
 0001:00045fb7       ?close@?$__crt_unique_handle_t@U__crt_findfile_traits@@@@QAEXXZ 10046fb7 f i libucrt:argv_wildcards.obj
 0001:00045fce       ?close@__crt_findfile_traits@@SA_NPAX@Z 10046fce f i libucrt:argv_wildcards.obj
 0001:00045fe3       ?data@?$__crt_win32_buffer@DU__crt_win32_buffer_internal_dynamic_resizing@@@@QAEPADXZ 10046fe3 f i libucrt:argv_wildcards.obj
 0001:00045fe7       ?data@?$__crt_win32_buffer@_WU__crt_win32_buffer_internal_dynamic_resizing@@@@QAEPA_WXZ 10046fe7 f i libucrt:argv_wildcards.obj
 0001:00045feb       ?deallocate@__crt_win32_buffer_internal_dynamic_resizing@@SAXQAXABV__crt_win32_buffer_empty_debug_info@@@Z 10046feb f i libucrt:argv_wildcards.obj
 0001:00045ffb       ?debug_info@?$__crt_win32_buffer@DU__crt_win32_buffer_internal_dynamic_resizing@@@@QBEABV__crt_win32_buffer_empty_debug_info@@XZ 10046ffb f i libucrt:argv_wildcards.obj
 0001:00045ffe       ?debug_info@?$__crt_win32_buffer@_WU__crt_win32_buffer_internal_dynamic_resizing@@@@QBEABV__crt_win32_buffer_empty_debug_info@@XZ 10046ffe f i libucrt:argv_wildcards.obj
 0001:00046117       ?get@?$__crt_unique_handle_t@U__crt_findfile_traits@@@@QBEPAXXZ 10047117 f i libucrt:argv_wildcards.obj
 0001:0004614d       ?get_invalid_value@__crt_findfile_traits@@SAPAXXZ 1004714d f i libucrt:argv_wildcards.obj
 0001:0004619c       ?set_to_nullptr@?$__crt_win32_buffer@DU__crt_win32_buffer_internal_dynamic_resizing@@@@QAEXXZ 1004719c f i libucrt:argv_wildcards.obj
 0001:000461b3       ?set_to_nullptr@?$__crt_win32_buffer@_WU__crt_win32_buffer_internal_dynamic_resizing@@@@QAEXXZ 100471b3 f i libucrt:argv_wildcards.obj
 0001:000461ca       ?size@?$__crt_win32_buffer@DU__crt_win32_buffer_internal_dynamic_resizing@@@@QAEXI@Z 100471ca f i libucrt:argv_wildcards.obj
 0001:000461d9       ?size@?$__crt_win32_buffer@_WU__crt_win32_buffer_internal_dynamic_resizing@@@@QAEXI@Z 100471d9 f i libucrt:argv_wildcards.obj
 0001:000461fa       ?strpbrk@@YAPADQADQBD@Z    100471fa f i libucrt:argv_wildcards.obj
 0001:00046205       ?wcspbrk@@YAPA_WPA_WPB_W@Z 10047205 f i libucrt:argv_wildcards.obj
 0001:00046210       ___acrt_expand_narrow_argv_wildcards 10047210 f   libucrt:argv_wildcards.obj
 0001:0004621b       ___acrt_expand_wide_argv_wildcards 1004721b f   libucrt:argv_wildcards.obj
 0001:00046226       ??$__acrt_convert_wcs_mbs_cp@_WDV<lambda_0fec1a7b3f42a53036604e18c2d5e07e>@@U__crt_win32_buffer_no_resizing@@@@YAHQB_WAAV?$__crt_win32_buffer@DU__crt_win32_buffer_no_resizing@@@@ABV<lambda_0fec1a7b3f42a53036604e18c2d5e07e>@@I@Z 10047226 f i libucrt:getmodulefilenamea.obj
 0001:000462e8       ??$__acrt_wcs_to_mbs_cp@U__crt_win32_buffer_no_resizing@@@@YAHQB_WAAV?$__crt_win32_buffer@DU__crt_win32_buffer_no_resizing@@@@I@Z 100472e8 f i libucrt:getmodulefilenamea.obj
 0001:00046305       ??0?$__crt_win32_buffer@DU__crt_win32_buffer_no_resizing@@@@QAE@QADI@Z 10047305 f i libucrt:getmodulefilenamea.obj
 0001:00046329       ??1?$__crt_win32_buffer@DU__crt_win32_buffer_no_resizing@@@@QAE@XZ 10047329 f i libucrt:getmodulefilenamea.obj
 0001:00046334       ??R<lambda_0fec1a7b3f42a53036604e18c2d5e07e>@@QBEHIQB_WQADI@Z 10047334 f i libucrt:getmodulefilenamea.obj
 0001:00046358       ?_deallocate@?$__crt_win32_buffer@DU__crt_win32_buffer_no_resizing@@@@AAEXXZ 10047358 f i libucrt:getmodulefilenamea.obj
 0001:00046363       ?allocate@?$__crt_win32_buffer@DU__crt_win32_buffer_no_resizing@@@@QAEHI@Z 10047363 f i libucrt:getmodulefilenamea.obj
 0001:0004638a       ?allocate@__crt_win32_buffer_no_resizing@@SAHQAPAXIABV__crt_win32_buffer_empty_debug_info@@@Z 1004738a f i libucrt:getmodulefilenamea.obj
 0001:00046397       ?capacity@?$__crt_win32_buffer@DU__crt_win32_buffer_no_resizing@@@@QBEIXZ 10047397 f i libucrt:getmodulefilenamea.obj
 0001:0004639b       ?data@?$__crt_win32_buffer@DU__crt_win32_buffer_no_resizing@@@@QAEPADXZ 1004739b f i libucrt:getmodulefilenamea.obj
 0001:0004639f       ?deallocate@__crt_win32_buffer_no_resizing@@SAXQAXABV__crt_win32_buffer_empty_debug_info@@@Z 1004739f f i libucrt:getmodulefilenamea.obj
 0001:000463a2       ?debug_info@?$__crt_win32_buffer@DU__crt_win32_buffer_no_resizing@@@@QBEABV__crt_win32_buffer_empty_debug_info@@XZ 100473a2 f i libucrt:getmodulefilenamea.obj
 0001:000463a5       ?set_to_nullptr@?$__crt_win32_buffer@DU__crt_win32_buffer_no_resizing@@@@QAEXXZ 100473a5 f i libucrt:getmodulefilenamea.obj
 0001:000463b9       ?size@?$__crt_win32_buffer@DU__crt_win32_buffer_no_resizing@@@@QAEXI@Z 100473b9 f i libucrt:getmodulefilenamea.obj
 0001:000463c8       ?size@?$__crt_win32_buffer@DU__crt_win32_buffer_no_resizing@@@@QBEIXZ 100473c8 f i libucrt:getmodulefilenamea.obj
 0001:000463cc       ___acrt_GetModuleFileNameA 100473cc f   libucrt:getmodulefilenamea.obj
 0001:000464e0       ??$initialize_from_array@$$BY10BAA@E@?$dual_state_global@PAE@__crt_state_management@@QAAXAAY10BAA@E@Z 100474e0 f i libucrt:mbctype.obj
 0001:000464ef       ??$initialize_from_array@$$BY10BAB@E@?$dual_state_global@PAE@__crt_state_management@@QAAXAAY10BAB@E@Z 100474ef f i libucrt:mbctype.obj
 0001:0004660b       ?dangerous_get_state_array@?$dual_state_global@PAE@__crt_state_management@@QAEPAPAEXZ 1004760b f i libucrt:mbctype.obj
 0001:0004660e       ?dangerous_get_state_array@?$dual_state_global@PAU__crt_multibyte_data@@@__crt_state_management@@QAEPAPAU__crt_multibyte_data@@XZ 1004760e f i libucrt:mbctype.obj
 0001:00046682       ?initialize@?$dual_state_global@PAU__crt_multibyte_data@@@__crt_state_management@@QAEXQAU__crt_multibyte_data@@@Z 10047682 f i libucrt:mbctype.obj
 0001:00046aa2       ?value@?$dual_state_global@PAE@__crt_state_management@@QAEAAPAEXZ 10047aa2 f i libucrt:mbctype.obj
 0001:00046aa5       ___acrt_initialize_multibyte 10047aa5 f   libucrt:mbctype.obj
 0001:00046aed       ___acrt_update_thread_multibyte_data 10047aed f   libucrt:mbctype.obj
 0001:00046b00       ___p__mbcasemap            10047b00 f   libucrt:mbctype.obj
 0001:00046b06       ___p__mbctype              10047b06 f   libucrt:mbctype.obj
 0001:00046b0c       __getmbcp                  10047b0c f   libucrt:mbctype.obj
 0001:00046b40       __setmbcp                  10047b40 f   libucrt:mbctype.obj
 0001:00046b5f       __setmbcp_nolock           10047b5f f   libucrt:mbctype.obj
 0001:00046e38       __ismbbalnum               10047e38 f   libucrt:ismbbyte.obj
 0001:00046e53       __ismbbalnum_l             10047e53 f   libucrt:ismbbyte.obj
 0001:00046e6f       __ismbbalpha               10047e6f f   libucrt:ismbbyte.obj
 0001:00046e8a       __ismbbalpha_l             10047e8a f   libucrt:ismbbyte.obj
 0001:00046ea6       __ismbbblank               10047ea6 f   libucrt:ismbbyte.obj
 0001:00046ec9       __ismbbblank_l             10047ec9 f   libucrt:ismbbyte.obj
 0001:00046eed       __ismbbgraph               10047eed f   libucrt:ismbbyte.obj
 0001:00046f08       __ismbbgraph_l             10047f08 f   libucrt:ismbbyte.obj
 0001:00046f24       __ismbbkalnum              10047f24 f   libucrt:ismbbyte.obj
 0001:00046f3c       __ismbbkalnum_l            10047f3c f   libucrt:ismbbyte.obj
 0001:00046f55       __ismbbkana                10047f55 f   libucrt:ismbbyte.obj
 0001:00046f68       __ismbbkana_l              10047f68 f   libucrt:ismbbyte.obj
 0001:00046fb7       __ismbbkprint              10047fb7 f   libucrt:ismbbyte.obj
 0001:00046fcf       __ismbbkprint_l            10047fcf f   libucrt:ismbbyte.obj
 0001:00046fe8       __ismbbkpunct              10047fe8 f   libucrt:ismbbyte.obj
 0001:00047000       __ismbbkpunct_l            10048000 f   libucrt:ismbbyte.obj
 0001:00047019       __ismbblead                10048019 f   libucrt:ismbbyte.obj
 0001:00047031       __ismbblead_l              10048031 f   libucrt:ismbbyte.obj
 0001:0004704a       __ismbbprint               1004804a f   libucrt:ismbbyte.obj
 0001:00047065       __ismbbprint_l             10048065 f   libucrt:ismbbyte.obj
 0001:00047081       __ismbbpunct               10048081 f   libucrt:ismbbyte.obj
 0001:00047099       __ismbbpunct_l             10048099 f   libucrt:ismbbyte.obj
 0001:000470b2       __ismbbtrail               100480b2 f   libucrt:ismbbyte.obj
 0001:000470ca       __ismbbtrail_l             100480ca f   libucrt:ismbbyte.obj
 0001:000470e3       ___acrt_initialize_command_line 100480e3 f   libucrt:argv_data.obj
 0001:000470fc       ___acrt_uninitialize_command_line 100480fc f   libucrt:argv_data.obj
 0001:000470ff       ___p___argc                100480ff f   libucrt:argv_data.obj
 0001:00047105       ___p___argv                10048105 f   libucrt:argv_data.obj
 0001:0004710b       ___p___wargv               1004810b f   libucrt:argv_data.obj
 0001:00047111       ___p__acmdln               10048111 f   libucrt:argv_data.obj
 0001:00047117       ___p__pgmptr               10048117 f   libucrt:argv_data.obj
 0001:0004711d       ___p__wcmdln               1004811d f   libucrt:argv_data.obj
 0001:00047123       ___p__wpgmptr              10048123 f   libucrt:argv_data.obj
 0001:00047129       __get_pgmptr               10048129 f   libucrt:argv_data.obj
 0001:0004715a       __get_wpgmptr              1004815a f   libucrt:argv_data.obj
 0001:000471f3       ___acrt_MultiByteToWideChar 100481f3 f   libucrt:multibytetowidechar.obj
 0001:000472d4       ___acrt_WideCharToMultiByte 100482d4 f   libucrt:widechartomultibyte.obj
 0001:00047426       ___dcrt_get_narrow_environment_from_os 10048426 f   libucrt:get_environment_from_os.obj
 0001:000474c6       ___dcrt_get_wide_environment_from_os 100484c6 f   libucrt:get_environment_from_os.obj
 0001:00047c40       ??$get_or_create_environment_nolock@$$V@?$__crt_char_traits@D@@SAPAPADXZ 10048c40 f i libucrt:setenv.obj
 0001:00047c45       ??$get_or_create_environment_nolock@$$V@?$__crt_char_traits@_W@@SAPAPA_WXZ 10048c45 f i libucrt:setenv.obj
 0001:00047c4a       ??$set_environment_variable@ABQADQAD@?$__crt_char_traits@D@@SAHABQAD$$QBQAD@Z 10048c4a f i libucrt:setenv.obj
 0001:00047c62       ??$set_environment_variable@ABQA_WQA_W@?$__crt_char_traits@_W@@SAHABQA_W$$QBQA_W@Z 10048c62 f i libucrt:setenv.obj
 0001:00047c79       ??$tcschr@ABQADD@?$__crt_char_traits@D@@SAPADABQAD$$QAD@Z 10048c79 f i libucrt:setenv.obj
 0001:00047c93       ??$tcschr@ABQA_WD@?$__crt_char_traits@_W@@SAPA_WABQA_W$$QAD@Z 10048c93 f i libucrt:setenv.obj
 0001:00047cb1       ??$tcscpy_s@AAPADABIAAPAD@?$__crt_char_traits@D@@SAHAAPADABI0@Z 10048cb1 f i libucrt:setenv.obj
 0001:00047ccf       ??$tcscpy_s@AAPA_WABIAAPA_W@?$__crt_char_traits@_W@@SAHAAPA_WABI0@Z 10048ccf f i libucrt:setenv.obj
 0001:00047ced       ??$tcscpy_s@ABQADABIABQAD@?$__crt_char_traits@D@@SAHABQADABI0@Z 10048ced f i libucrt:setenv.obj
 0001:00047d0b       ??$tcscpy_s@ABQA_WABIABQA_W@?$__crt_char_traits@_W@@SAHABQA_WABI0@Z 10048d0b f i libucrt:setenv.obj
 0001:00047d29       ??$tcslen@ABQAD@?$__crt_char_traits@D@@SAIABQAD@Z 10048d29 f i libucrt:setenv.obj
 0001:00047d41       ??$tcslen@ABQA_W@?$__crt_char_traits@_W@@SAIABQA_W@Z 10048d41 f i libucrt:setenv.obj
 0001:00047d5f       ??$tcsnicoll@ABQBDAAPADABI@?$__crt_char_traits@D@@SAHABQBDAAPADABI@Z 10048d5f f i libucrt:setenv.obj
 0001:00047d7d       ??$tcsnicoll@ABQB_WAAPA_WABI@?$__crt_char_traits@_W@@SAHABQB_WAAPA_WABI@Z 10048d7d f i libucrt:setenv.obj
 0001:00047dbf       ?strchr@@YAPADQADH@Z       10048dbf f i libucrt:setenv.obj
 0001:00047dca       ?wcschr@@YAPA_WPA_W_W@Z    10048dca f i libucrt:setenv.obj
 0001:00047dd5       ___dcrt_set_variable_in_narrow_environment_nolock 10048dd5 f   libucrt:setenv.obj
 0001:00047de0       ___dcrt_set_variable_in_wide_environment_nolock 10048de0 f   libucrt:setenv.obj
 0001:00047deb       ___acrt_getheap            10048deb f   libucrt:heap_handle.obj
 0001:00047df1       ___acrt_initialize_heap    10048df1 f   libucrt:heap_handle.obj
 0001:00047e02       ___acrt_uninitialize_heap  10048e02 f   libucrt:heap_handle.obj
 0001:00047e0c       __get_heap_handle          10048e0c f   libucrt:heap_handle.obj
 0001:00047e12       ___acrt_execute_initializers 10048e12 f   libucrt:shared_initialization.obj
 0001:00047e7a       ___acrt_execute_uninitializers 10048e7a f   libucrt:shared_initialization.obj
 0001:00047eab       ??$__crt_fast_decode_pointer@P6AHPAU_exception@@@Z@@YAP6AHPAU_exception@@@ZQ6AH0@Z@Z 10048eab f i libucrt:matherr.obj
 0001:00047ec1       ??$__crt_fast_encode_pointer@P6AHPAU_exception@@@Z@@YAP6AHPAU_exception@@@ZQ6AH0@Z@Z 10048ec1 f i libucrt:matherr.obj
 0001:00047ee0       ?initialize@?$dual_state_global@P6AHPAU_exception@@@Z@__crt_state_management@@QAEXQ6AHPAU_exception@@@Z@Z 10048ee0 f i libucrt:matherr.obj
 0001:00047efc       ?value@?$dual_state_global@P6AHPAU_exception@@@Z@__crt_state_management@@QAEAAP6AHPAU_exception@@@ZXZ 10048efc f i libucrt:matherr.obj
 0001:00047eff       ___acrt_has_user_matherr   10048eff f   libucrt:matherr.obj
 0001:00047f17       ___acrt_initialize_user_matherr 10048f17 f   libucrt:matherr.obj
 0001:00047f26       ___acrt_invoke_user_matherr 10048f26 f   libucrt:matherr.obj
 0001:00047f58       ___setusermatherr          10048f58 f   libucrt:matherr.obj
 0001:00047f6d       ___fpe_flt_rounds          10048f6d f   libucrt:fegetround.obj
 0001:00047fa1       _fegetround                10048fa1 f   libucrt:fegetround.obj
 0001:00047fae       __add_exp                  10048fae f   libucrt:util.obj
 0001:00047fdd       __decomp                   10048fdd f   libucrt:util.obj
 0001:000480af       __get_exp                  100490af f   libucrt:util.obj
 0001:000480c7       __set_bexp                 100490c7 f   libucrt:util.obj
 0001:000480ee       __set_exp                  100490ee f   libucrt:util.obj
 0001:0004811b       __sptype                   1004911b f   libucrt:util.obj
 0001:00048179       ___clrfp_sse2              10049179 f   libucrt:fpctrl.obj
 0001:000481ab       ___ctrlfp_sse2             100491ab f   libucrt:fpctrl.obj
 0001:000481e6       ___fclrf_sse2              100491e6 f   libucrt:fpctrl.obj
 0001:00048203       ___get_fpsr_sse2           10049203 f   libucrt:fpctrl.obj
 0001:0004821f       ___set_fpsr_sse2           1004921f f   libucrt:fpctrl.obj
 0001:0004829f       ___set_statfp_sse2         1004929f f   libucrt:fpctrl.obj
 0001:000482ba       ___statfp_sse2             100492ba f   libucrt:fpctrl.obj
 0001:000482cf       __clrfp                    100492cf f   libucrt:fpctrl.obj
 0001:000482e0       __ctrlfp                   100492e0 f   libucrt:fpctrl.obj
 0001:0004830a       __set_statfp               1004930a f   libucrt:fpctrl.obj
 0001:00048363       __statfp                   10049363 f   libucrt:fpctrl.obj
 0001:00048373       ___pctype_func             10049373 f   libucrt:ctype.obj
 0001:00048397       ___pwctype_func            10049397 f   libucrt:ctype.obj
 0001:0004839d       __isctype                  1004939d f   libucrt:isctype.obj
 0001:000483d0       __isctype_l                100493d0 f   libucrt:isctype.obj
 0001:0004849b       ___acrt_add_locale_ref     1004949b f   libucrt:locale_refcounting.obj
 0001:00048518       ___acrt_free_locale        10049518 f   libucrt:locale_refcounting.obj
 0001:00048660       ___acrt_locale_add_lc_time_reference 10049660 f   libucrt:locale_refcounting.obj
 0001:00048689       ___acrt_locale_free_lc_time_if_unreferenced 10049689 f   libucrt:locale_refcounting.obj
 0001:000486ba       ___acrt_locale_release_lc_time_reference 100496ba f   libucrt:locale_refcounting.obj
 0001:000486e3       ___acrt_release_locale_ref 100496e3 f   libucrt:locale_refcounting.obj
 0001:00048764       ___acrt_update_thread_locale_data 10049764 f   libucrt:locale_refcounting.obj
 0001:000487e5       __updatetlocinfoEx_nolock  100497e5 f   libucrt:locale_refcounting.obj
 0001:00048835       ??$?RG@__crt_internal_free_policy@@QBEXQBG@Z 10049835 f i libucrt:initctype.obj
 0001:00048847       ??$?RJ@__crt_internal_free_policy@@QBEXQBJ@Z 10049847 f i libucrt:initctype.obj
 0001:00048859       ??0?$__crt_unique_heap_ptr@GU__crt_internal_free_policy@@@@QAE@QAG@Z 10049859 f i libucrt:initctype.obj
 0001:00048869       ??0?$__crt_unique_heap_ptr@JU__crt_internal_free_policy@@@@QAE@QAJ@Z 10049869 f i libucrt:initctype.obj
 0001:00048879       ??1?$__crt_unique_heap_ptr@GU__crt_internal_free_policy@@@@QAE@XZ 10049879 f i libucrt:initctype.obj
 0001:0004888b       ??1?$__crt_unique_heap_ptr@JU__crt_internal_free_policy@@@@QAE@XZ 1004988b f i libucrt:initctype.obj
 0001:0004889d       ?detach@?$__crt_unique_heap_ptr@GU__crt_internal_free_policy@@@@QAEPAGXZ 1004989d f i libucrt:initctype.obj
 0001:000488a3       ?detach@?$__crt_unique_heap_ptr@JU__crt_internal_free_policy@@@@QAEPAJXZ 100498a3 f i libucrt:initctype.obj
 0001:000488a9       ?release@?$__crt_unique_heap_ptr@GU__crt_internal_free_policy@@@@QAEXXZ 100498a9 f i libucrt:initctype.obj
 0001:000488bb       ?release@?$__crt_unique_heap_ptr@JU__crt_internal_free_policy@@@@QAEXXZ 100498bb f i libucrt:initctype.obj
 0001:000488cd       ____lc_codepage_func       100498cd f   libucrt:initctype.obj
 0001:000488f2       ____lc_collate_cp_func     100498f2 f   libucrt:initctype.obj
 0001:00048917       ____lc_locale_name_func    10049917 f   libucrt:initctype.obj
 0001:0004893e       ____mb_cur_max_func        1004993e f   libucrt:initctype.obj
 0001:00048963       ____mb_cur_max_l_func      10049963 f   libucrt:initctype.obj
 0001:0004897c       ___acrt_locale_initialize_ctype 1004997c f   libucrt:initctype.obj
 0001:00048dd9       ??$?RUlconv@@@__crt_internal_free_policy@@QBEXQBUlconv@@@Z 10049dd9 f i libucrt:initmon.obj
 0001:00048deb       ??0?$__crt_unique_heap_ptr@Ulconv@@U__crt_internal_free_policy@@@@QAE@QAUlconv@@@Z 10049deb f i libucrt:initmon.obj
 0001:00048dfb       ??1?$__crt_unique_heap_ptr@Ulconv@@U__crt_internal_free_policy@@@@QAE@XZ 10049dfb f i libucrt:initmon.obj
 0001:00048e0d       ?detach@?$__crt_unique_heap_ptr@Ulconv@@U__crt_internal_free_policy@@@@QAEPAUlconv@@XZ 10049e0d f i libucrt:initmon.obj
 0001:00048e13       ?release@?$__crt_unique_heap_ptr@Ulconv@@U__crt_internal_free_policy@@@@QAEXXZ 10049e13 f i libucrt:initmon.obj
 0001:00048e25       ___acrt_locale_free_monetary 10049e25 f   libucrt:initmon.obj
 0001:00048f23       ___acrt_locale_initialize_monetary 10049f23 f   libucrt:initmon.obj
 0001:00049310       ___acrt_locale_free_numeric 1004a310 f   libucrt:initnum.obj
 0001:00049379       ___acrt_locale_initialize_numeric 1004a379 f   libucrt:initnum.obj
 0001:000495c1       ??$?RU__crt_lc_time_data@@@__crt_internal_free_policy@@QBEXQBU__crt_lc_time_data@@@Z 1004a5c1 f i libucrt:inittime.obj
 0001:00049645       ??0?$__crt_unique_heap_ptr@U__crt_lc_time_data@@U__crt_internal_free_policy@@@@QAE@QAU__crt_lc_time_data@@@Z 1004a645 f i libucrt:inittime.obj
 0001:00049655       ??1?$__crt_unique_heap_ptr@U__crt_lc_time_data@@U__crt_internal_free_policy@@@@QAE@XZ 1004a655 f i libucrt:inittime.obj
 0001:00049667       ??B?$__crt_unique_heap_ptr@U__crt_lc_time_data@@U__crt_internal_free_policy@@@@QBE_NXZ 1004a667 f i libucrt:inittime.obj
 0001:0004966e       ?detach@?$__crt_unique_heap_ptr@U__crt_lc_time_data@@U__crt_internal_free_policy@@@@QAEPAU__crt_lc_time_data@@XZ 1004a66e f i libucrt:inittime.obj
 0001:00049699       ?get@?$__crt_unique_heap_ptr@U__crt_lc_time_data@@U__crt_internal_free_policy@@@@QBEPAU__crt_lc_time_data@@XZ 1004a699 f i libucrt:inittime.obj
 0001:00049984       ?is_valid@?$__crt_unique_heap_ptr@U__crt_lc_time_data@@U__crt_internal_free_policy@@@@QBE_NXZ 1004a984 f i libucrt:inittime.obj
 0001:0004998b       ?release@?$__crt_unique_heap_ptr@U__crt_lc_time_data@@U__crt_internal_free_policy@@@@QAEXXZ 1004a98b f i libucrt:inittime.obj
 0001:0004999d       ___acrt_locale_free_time   1004a99d f   libucrt:inittime.obj
 0001:00049a81       ___acrt_locale_initialize_time 1004aa81 f   libucrt:inittime.obj
 0001:00049b74       _wcscat_s                  1004ab74 f   libucrt:wcscat_s.obj
 0001:00049c6c       _wcsncat_s                 1004ac6c f   libucrt:wcsncat_s.obj
 0001:00049c77       _wcscspn                   1004ac77 f   libucrt:wcscspn.obj
 0001:00049cd0       _wcspbrk                   1004acd0 f   libucrt:wcspbrk.obj
 0001:00049d1e       ___acrt_GetStringTypeA     1004ad1e f   libucrt:getstringtypea.obj
 0001:0004a569       ___acrt_get_qualified_locale 1004b569 f   libucrt:get_qualified_locale.obj
 0001:0004aeeb       ___acrt_get_qualified_locale_downlevel 1004beeb f   libucrt:getqloc_downlevel.obj
 0001:0004b0e0       _localeconv                1004c0e0 f   libucrt:localeconv.obj
 0001:0004b108       __query_new_mode           1004c108 f   libucrt:new_mode.obj
 0001:0004b10f       __set_new_mode             1004c10f f   libucrt:new_mode.obj
 0001:0004b1dd       ___acrt_fp_strflt_to_string 1004c1dd f   libucrt:_fptostr.obj
 0001:0004c4f0       ??0big_integer@__crt_strtox@@QAE@ABU01@@Z 1004d4f0 f i libucrt:cfout.obj
 0001:0004c530       ??0big_integer@__crt_strtox@@QAE@XZ 1004d530 f i libucrt:cfout.obj
 0001:0004c570       ??4big_integer@__crt_strtox@@QAEAAU01@ABU01@@Z 1004d570 f i libucrt:cfout.obj
 0001:0004c5b0       ??8__crt_strtox@@YA_NABUbig_integer@0@0@Z 1004d5b0 f i libucrt:cfout.obj
 0001:0004c5f0       ??9__crt_strtox@@YA_NABUbig_integer@0@0@Z 1004d5f0 f i libucrt:cfout.obj
 0001:0004c630       ?add_carry@__crt_strtox@@YAIAAIII@Z 1004d630 f i libucrt:cfout.obj
 0001:0004c650       ?add_multiply_carry@__crt_strtox@@YAIAAIIII@Z 1004d650 f i libucrt:cfout.obj
 0001:0004c680       ?bit_scan_reverse@__crt_strtox@@YAII@Z 1004d680 f i libucrt:cfout.obj
 0001:0004c6a0       ?count_sequential_high_zeroes@__crt_strtox@@YAII@Z 1004d6a0 f i libucrt:cfout.obj
 0001:0004c6c0       ?divide@__crt_strtox@@YA_KAAUbig_integer@1@ABU21@@Z 1004d6c0 f i libucrt:cfout.obj
 0001:0004cb50       ?is_zero@__crt_strtox@@YA_NABUbig_integer@1@@Z 1004db50 f i libucrt:cfout.obj
 0001:0004cb60       ?make_big_integer@__crt_strtox@@YA?AUbig_integer@1@_K@Z 1004db60 f i libucrt:cfout.obj
 0001:0004cb80       ?make_big_integer_power_of_two@__crt_strtox@@YA?AUbig_integer@1@I@Z 1004db80 f i libucrt:cfout.obj
 0001:0004cbd0       ?multiply@__crt_strtox@@YA_NAAUbig_integer@1@ABU21@@Z 1004dbd0 f i libucrt:cfout.obj
 0001:0004cf20       ?multiply@__crt_strtox@@YA_NAAUbig_integer@1@I@Z 1004df20 f i libucrt:cfout.obj
 0001:0004cff0       ?multiply_64_32@__crt_strtox@@YA_K_KI@Z 1004dff0 f i libucrt:cfout.obj
 0001:0004d010       ?multiply_by_power_of_ten@__crt_strtox@@YA_NAAUbig_integer@1@I@Z 1004e010 f i libucrt:cfout.obj
 0001:0004d550       ?multiply_core@__crt_strtox@@YAIQAIII@Z 1004e550 f i libucrt:cfout.obj
 0001:0004d590       ?shift_left@__crt_strtox@@YA_NAAUbig_integer@1@I@Z 1004e590 f i libucrt:cfout.obj
 0001:0004d6bf       ___acrt_fltout             1004e6bf f   libucrt:cfout.obj
 0001:0004ec79       ?__c32rtomb_utf8@__crt_mbstring@@YAIPAD_UPAU_Mbstatet@@AAV__crt_cached_ptd_host@@@Z 1004fc79 f   libucrt:c32rtomb.obj
 0001:0004ed29       _c32rtomb                  1004fd29 f   libucrt:c32rtomb.obj
 0001:0004ed8c       ?__mbrtowc_utf8@__crt_mbstring@@YAIPA_WPBDIPAU_Mbstatet@@AAV__crt_cached_ptd_host@@@Z 1004fd8c f   libucrt:mbrtowc.obj
 0001:0004edcf       ?__mbsrtowcs_utf8@__crt_mbstring@@YAIPA_WPAPBDIPAU_Mbstatet@@AAV__crt_cached_ptd_host@@@Z 1004fdcf f   libucrt:mbrtowc.obj
 0001:0004f30d       _btowc                     1005030d f   libucrt:mbrtowc.obj
 0001:0004f37e       _mbrlen                    1005037e f   libucrt:mbrtowc.obj
 0001:0004f3c6       _mbrtowc                   100503c6 f   libucrt:mbrtowc.obj
 0001:0004f42d       _mbsrtowcs                 1005042d f   libucrt:mbrtowc.obj
 0001:0004f467       _mbsrtowcs_s               10050467 f   libucrt:mbrtowc.obj
 0001:0004f8c2       ___acrt_stdio_flush_and_write_narrow_nolock 100508c2 f   libucrt:_flsbuf.obj
 0001:0004f8cd       ___acrt_stdio_flush_and_write_wide_nolock 100508cd f   libucrt:_flsbuf.obj
 0001:0004f8d8       __isatty                   100508d8 f   libucrt:isatty.obj
 0001:0004f92e       ??$?RU__crt_lowio_handle_data@@@__crt_internal_free_policy@@QBEXQBU__crt_lowio_handle_data@@@Z 1005092e f i libucrt:osfinfo.obj
 0001:0004f940       ??0?$__crt_unique_heap_ptr@U__crt_lowio_handle_data@@U__crt_internal_free_policy@@@@QAE@QAU__crt_lowio_handle_data@@@Z 10050940 f i libucrt:osfinfo.obj
 0001:0004f950       ??1?$__crt_unique_heap_ptr@U__crt_lowio_handle_data@@U__crt_internal_free_policy@@@@QAE@XZ 10050950 f i libucrt:osfinfo.obj
 0001:0004f962       ??B?$__crt_unique_heap_ptr@U__crt_lowio_handle_data@@U__crt_internal_free_policy@@@@QBE_NXZ 10050962 f i libucrt:osfinfo.obj
 0001:0004f969       ?detach@?$__crt_unique_heap_ptr@U__crt_lowio_handle_data@@U__crt_internal_free_policy@@@@QAEPAU__crt_lowio_handle_data@@XZ 10050969 f i libucrt:osfinfo.obj
 0001:0004f96f       ?get@?$__crt_unique_heap_ptr@U__crt_lowio_handle_data@@U__crt_internal_free_policy@@@@QBEPAU__crt_lowio_handle_data@@XZ 1005096f f i libucrt:osfinfo.obj
 0001:0004f972       ?is_valid@?$__crt_unique_heap_ptr@U__crt_lowio_handle_data@@U__crt_internal_free_policy@@@@QBE_NXZ 10050972 f i libucrt:osfinfo.obj
 0001:0004f979       ?release@?$__crt_unique_heap_ptr@U__crt_lowio_handle_data@@U__crt_internal_free_policy@@@@QAEXXZ 10050979 f i libucrt:osfinfo.obj
 0001:0004f98b       ___acrt_lowio_create_handle_array 1005098b f   libucrt:osfinfo.obj
 0001:0004fa06       ___acrt_lowio_destroy_handle_array 10050a06 f   libucrt:osfinfo.obj
 0001:0004fa3b       ___acrt_lowio_ensure_fh_exists 10050a3b f   libucrt:osfinfo.obj
 0001:0004fad9       ___acrt_lowio_lock_fh      10050ad9 f   libucrt:osfinfo.obj
 0001:0004fafc       ___acrt_lowio_set_os_handle 10050afc f   libucrt:osfinfo.obj
 0001:0004fb8e       ___acrt_lowio_unlock_fh    10050b8e f   libucrt:osfinfo.obj
 0001:0004fbb1       __alloc_osfhnd             10050bb1 f   libucrt:osfinfo.obj
 0001:0004fcc4       __free_osfhnd              10050cc4 f   libucrt:osfinfo.obj
 0001:0004fd55       __get_osfhandle            10050d55 f   libucrt:osfinfo.obj
 0001:0004fdbf       __open_osfhandle           10050dbf f   libucrt:osfinfo.obj
 0001:0004fed5       ___acrt_GetStringTypeW     10050ed5 f   libucrt:getstringtypew.obj
 0001:0004ff75       ___acrt_DownlevelLCIDToLocaleName 10050f75 f   libucrt:lcidtoname_downlevel.obj
 0001:00050018       ___acrt_DownlevelLocaleNameToLCID 10051018 f   libucrt:lcidtoname_downlevel.obj
 0001:000501a7       __commit                   100511a7 f   libucrt:commit.obj
 0001:00050a21       __utf8_no_of_trailbytes    10051a21 f i libucrt:write.obj
 0001:00050a32       __write                    10051a32 f   libucrt:write.obj
 0001:00050a69       __write_internal           10051a69 f   libucrt:write.obj
 0001:00050b71       __write_nolock             10051b71 f   libucrt:write.obj
 0001:00050d71       ___ascii_wcsnicmp          10051d71 f   libucrt:wcsnicmp.obj
 0001:00050dc0       __wcsnicmp                 10051dc0 f   libucrt:wcsnicmp.obj
 0001:00050e0c       __wcsnicmp_l               10051e0c f   libucrt:wcsnicmp.obj
 0001:00050edf       __strnicmp                 10051edf f   libucrt:strnicmp.obj
 0001:00050f4c       __strnicmp_l               10051f4c f   libucrt:strnicmp.obj
 0001:00051301       ??$tsopen_nolock@PAHABQAHABQBDABHABHABHABH@?$__crt_char_traits@D@@SAH$$QAPAHABQAHABQBDABH333@Z 10052301 f i libucrt:open.obj
 0001:00051333       ??$tsopen_nolock@PAHABQAHABQB_WABHABHABHABH@?$__crt_char_traits@_W@@SAH$$QAPAHABQAHABQB_WABH333@Z 10052333 f i libucrt:open.obj
 0001:00051365       ??$tsopen_nolock@PAHPAHABQBDABHHABHH@?$__crt_char_traits@D@@SAH$$QAPAH0ABQBDABH$$QAH23@Z 10052365 f i libucrt:open.obj
 0001:00051397       ??$tsopen_nolock@PAHPAHABQB_WABHHABHH@?$__crt_char_traits@_W@@SAH$$QAPAH0ABQB_WABH$$QAH23@Z 10052397 f i libucrt:open.obj
 0001:000519bc       __open                     100529bc f   libucrt:open.obj
 0001:000519d4       __sopen                    100529d4 f   libucrt:open.obj
 0001:00051a07       __sopen_dispatch           10052a07 f   libucrt:open.obj
 0001:00051a12       __sopen_nolock             10052a12 f   libucrt:open.obj
 0001:00051a80       __sopen_s                  10052a80 f   libucrt:open.obj
 0001:00051aa0       __wopen                    10052aa0 f   libucrt:open.obj
 0001:00051ab8       __wsopen                   10052ab8 f   libucrt:open.obj
 0001:00051aeb       __wsopen_dispatch          10052aeb f   libucrt:open.obj
 0001:00051af6       __wsopen_nolock            10052af6 f   libucrt:open.obj
 0001:00051e20       __wsopen_s                 10052e20 f   libucrt:open.obj
 0001:00051e40       ___p__commode              10052e40 f   libucrt:ncommode.obj
 0001:00051e46       __towlower_l               10052e46 f   libucrt:towlower.obj
 0001:00051f1f       _towlower                  10052f1f f   libucrt:towlower.obj
 0001:00051f32       ??$parse_integer_from_string@JDPAPAD@__crt_strtox@@YAJQBDQAPADHQAU__crt_locale_pointers@@@Z 10052f32 f i libucrt:strtox.obj
 0001:00051f79       ??$parse_integer_from_string@J_WPAPA_W@__crt_strtox@@YAJQB_WQAPA_WHQAU__crt_locale_pointers@@@Z 10052f79 f i libucrt:strtox.obj
 0001:00051fc0       ??$parse_integer_from_string@KDPAPAD@__crt_strtox@@YAKQBDQAPADHQAU__crt_locale_pointers@@@Z 10052fc0 f i libucrt:strtox.obj
 0001:00052007       ??$parse_integer_from_string@K_WPAPA_W@__crt_strtox@@YAKQB_WQAPA_WHQAU__crt_locale_pointers@@@Z 10053007 f i libucrt:strtox.obj
 0001:0005204e       ??$parse_integer_from_string@_JDPAPAD@__crt_strtox@@YA_JQBDQAPADHQAU__crt_locale_pointers@@@Z 1005304e f i libucrt:strtox.obj
 0001:0005209b       ??$parse_integer_from_string@_J_WPAPA_W@__crt_strtox@@YA_JQB_WQAPA_WHQAU__crt_locale_pointers@@@Z 1005309b f i libucrt:strtox.obj
 0001:000520e8       ??$parse_integer_from_string@_KDPAPAD@__crt_strtox@@YA_KQBDQAPADHQAU__crt_locale_pointers@@@Z 100530e8 f i libucrt:strtox.obj
 0001:00052135       ??$parse_integer_from_string@_K_WPAPA_W@__crt_strtox@@YA_KQB_WQAPA_WHQAU__crt_locale_pointers@@@Z 10053135 f i libucrt:strtox.obj
 0001:00052182       __strtoi64                 10053182 f   libucrt:strtox.obj
 0001:000521ce       __strtoi64_l               100531ce f   libucrt:strtox.obj
 0001:0005221b       __strtoimax_l              1005321b f   libucrt:strtox.obj
 0001:00052268       __strtol_l                 10053268 f   libucrt:strtox.obj
 0001:000522af       __strtoll_l                100532af f   libucrt:strtox.obj
 0001:000522fc       __strtoui64                100532fc f   libucrt:strtox.obj
 0001:00052348       __strtoui64_l              10053348 f   libucrt:strtox.obj
 0001:00052395       __strtoul_l                10053395 f   libucrt:strtox.obj
 0001:000523dc       __strtoull_l               100533dc f   libucrt:strtox.obj
 0001:00052429       __strtoumax_l              10053429 f   libucrt:strtox.obj
 0001:00052476       __wcstoi64                 10053476 f   libucrt:strtox.obj
 0001:000524c2       __wcstoi64_l               100534c2 f   libucrt:strtox.obj
 0001:0005250f       __wcstoimax_l              1005350f f   libucrt:strtox.obj
 0001:0005255c       __wcstol_l                 1005355c f   libucrt:strtox.obj
 0001:000525a3       __wcstoll_l                100535a3 f   libucrt:strtox.obj
 0001:000525f0       __wcstoui64                100535f0 f   libucrt:strtox.obj
 0001:0005263c       __wcstoui64_l              1005363c f   libucrt:strtox.obj
 0001:00052689       __wcstoul_l                10053689 f   libucrt:strtox.obj
 0001:000526d0       __wcstoull_l               100536d0 f   libucrt:strtox.obj
 0001:0005271d       __wcstoumax_l              1005371d f   libucrt:strtox.obj
 0001:0005276a       _strtoimax                 1005376a f   libucrt:strtox.obj
 0001:000527b6       _strtol                    100537b6 f   libucrt:strtox.obj
 0001:000527fc       _strtoll                   100537fc f   libucrt:strtox.obj
 0001:00052848       _strtoul                   10053848 f   libucrt:strtox.obj
 0001:0005288e       _strtoull                  1005388e f   libucrt:strtox.obj
 0001:000528da       _strtoumax                 100538da f   libucrt:strtox.obj
 0001:00052926       _wcstoimax                 10053926 f   libucrt:strtox.obj
 0001:00052972       _wcstol                    10053972 f   libucrt:strtox.obj
 0001:000529b8       _wcstoll                   100539b8 f   libucrt:strtox.obj
 0001:00052a04       _wcstoul                   10053a04 f   libucrt:strtox.obj
 0001:00052a4a       _wcstoull                  10053a4a f   libucrt:strtox.obj
 0001:00052a96       _wcstoumax                 10053a96 f   libucrt:strtox.obj
 0001:00053109       ??$tcscpy_s@AAPADABIABQBD@?$__crt_char_traits@D@@SAHAAPADABIABQBD@Z 10054109 f i libucrt:getenv.obj
 0001:00053127       ??$tcscpy_s@AAPA_WABIABQB_W@?$__crt_char_traits@_W@@SAHAAPA_WABIABQB_W@Z 10054127 f i libucrt:getenv.obj
 0001:00053145       ??$tcscpy_s@ABQADABIABQBD@?$__crt_char_traits@D@@SAHABQADABIABQBD@Z 10054145 f i libucrt:getenv.obj
 0001:00053163       ??$tcscpy_s@ABQA_WABIABQB_W@?$__crt_char_traits@_W@@SAHABQA_WABIABQB_W@Z 10054163 f i libucrt:getenv.obj
 0001:00053181       ??$tcsnicoll@AAPADABQBDABI@?$__crt_char_traits@D@@SAHAAPADABQBDABI@Z 10054181 f i libucrt:getenv.obj
 0001:0005319f       ??$tcsnicoll@AAPA_WABQB_WABI@?$__crt_char_traits@_W@@SAHAAPA_WABQB_WABI@Z 1005419f f i libucrt:getenv.obj
 0001:000531bd       ??$tcsnlen@ABQBDH@?$__crt_char_traits@D@@SAIABQBD$$QAH@Z 100541bd f i libucrt:getenv.obj
 0001:000531d5       ??$tcsnlen@ABQB_WH@?$__crt_char_traits@_W@@SAIABQB_W$$QAH@Z 100541d5 f i libucrt:getenv.obj
 0001:000531ed       __dupenv_s                 100541ed f   libucrt:getenv.obj
 0001:0005320b       __wdupenv_s                1005420b f   libucrt:getenv.obj
 0001:00053229       __wgetenv                  10054229 f   libucrt:getenv.obj
 0001:00053234       __wgetenv_s                10054234 f   libucrt:getenv.obj
 0001:0005323f       _getenv                    1005423f f   libucrt:getenv.obj
 0001:0005324a       _getenv_s                  1005424a f   libucrt:getenv.obj
 0001:00053320       _qsort                     10054320 f   libucrt:qsort.obj
 0001:000538c5       _strncpy_s                 100548c5 f   libucrt:strncpy_s.obj
 0001:000538d0       _strpbrk                   100548d0 f   libucrt:strpbrk.obj
 0001:00053910       __mbsdec                   10054910 f   libucrt:mbsdec.obj
 0001:00053927       __mbsdec_l                 10054927 f   libucrt:mbsdec.obj
 0001:00053ba2       ___acrt_LCMapStringA       10054ba2 f   libucrt:lcmapstringa.obj
 0001:00053bfa       __wcsnicoll                10054bfa f   libucrt:wcsnicol.obj
 0001:00053c67       __wcsnicoll_l              10054c67 f   libucrt:wcsnicol.obj
 0001:00053d27       __strnicoll                10054d27 f   libucrt:strnicol.obj
 0001:00053d50       __strnicoll_l              10054d50 f   libucrt:strnicol.obj
 0001:00053e18       ___acrt_SetEnvironmentVariableA 10054e18 f   libucrt:setenvironmentvariablea.obj
 0001:00053ead       ??$__acrt_fenv_shift_bits@W4__acrt_fenv_abstract_control@@@@YA?AW4__acrt_fenv_abstract_control@@W40@0I@Z 10054ead f i libucrt:_fenvutils.obj
 0001:00053ebf       ??$__acrt_fenv_shift_bits@W4__acrt_fenv_abstract_status@@@@YA?AW4__acrt_fenv_abstract_status@@W40@0I@Z 10054ebf f i libucrt:_fenvutils.obj
 0001:00053ed1       ??$__acrt_fenv_translate_bit@W4__acrt_fenv_abstract_control@@W4__acrt_fenv_machine_sse_control@@@@YA?AW4__acrt_fenv_abstract_control@@W4__acrt_fenv_machine_sse_control@@0W40@1@Z 10054ed1 f i libucrt:_fenvutils.obj
 0001:00053ee9       ??$__acrt_fenv_translate_bit@W4__acrt_fenv_abstract_control@@W4__acrt_fenv_machine_x87_control@@@@YA?AW4__acrt_fenv_abstract_control@@W4__acrt_fenv_machine_x87_control@@0W40@1@Z 10054ee9 f i libucrt:_fenvutils.obj
 0001:00053f01       ??$__acrt_fenv_translate_bit@W4__acrt_fenv_abstract_status@@W4__acrt_fenv_machine_sse_status@@@@YA?AW4__acrt_fenv_abstract_status@@W4__acrt_fenv_machine_sse_status@@0W40@1@Z 10054f01 f i libucrt:_fenvutils.obj
 0001:00053f16       ??$__acrt_fenv_translate_bit@W4__acrt_fenv_abstract_status@@W4__acrt_fenv_machine_x87_status@@@@YA?AW4__acrt_fenv_abstract_status@@W4__acrt_fenv_machine_x87_status@@0W40@1@Z 10054f16 f i libucrt:_fenvutils.obj
 0001:00053f2b       ??$__acrt_fenv_translate_bit@W4__acrt_fenv_machine_sse_control@@W4__acrt_fenv_abstract_control@@@@YA?AW4__acrt_fenv_machine_sse_control@@W4__acrt_fenv_abstract_control@@0W40@1@Z 10054f2b f i libucrt:_fenvutils.obj
 0001:00053f42       ??$__acrt_fenv_translate_bit@W4__acrt_fenv_machine_sse_status@@W4__acrt_fenv_abstract_status@@@@YA?AW4__acrt_fenv_machine_sse_status@@W4__acrt_fenv_abstract_status@@0W40@1@Z 10054f42 f i libucrt:_fenvutils.obj
 0001:00053f57       ??$__acrt_fenv_translate_bit@W4__acrt_fenv_machine_x87_control@@W4__acrt_fenv_abstract_control@@@@YA?AW4__acrt_fenv_machine_x87_control@@W4__acrt_fenv_abstract_control@@0W40@1@Z 10054f57 f i libucrt:_fenvutils.obj
 0001:00053f6e       ??$__acrt_fenv_translate_bit@W4__acrt_fenv_machine_x87_status@@W4__acrt_fenv_abstract_status@@@@YA?AW4__acrt_fenv_machine_x87_status@@W4__acrt_fenv_abstract_status@@0W40@1@Z 10054f6e f i libucrt:_fenvutils.obj
 0001:00053f83       ??$__acrt_fenv_unshift_bits@W4__acrt_fenv_abstract_control@@@@YA?AW4__acrt_fenv_abstract_control@@W40@0I@Z 10054f83 f i libucrt:_fenvutils.obj
 0001:00053f95       ??$__acrt_fenv_unshift_bits@W4__acrt_fenv_abstract_status@@@@YA?AW4__acrt_fenv_abstract_status@@W40@0I@Z 10054f95 f i libucrt:_fenvutils.obj
 0001:00054392       ??I@YA?AW4__acrt_fenv_abstract_control@@W40@0@Z 10055392 f i libucrt:_fenvutils.obj
 0001:0005439f       ??I@YA?AW4__acrt_fenv_abstract_status@@W40@0@Z 1005539f f i libucrt:_fenvutils.obj
 0001:000543ac       ??I@YA?AW4__acrt_fenv_machine_sse_control@@W40@0@Z 100553ac f i libucrt:_fenvutils.obj
 0001:000543b9       ??I@YA?AW4__acrt_fenv_machine_sse_status@@W40@0@Z 100553b9 f i libucrt:_fenvutils.obj
 0001:000543c6       ??I@YA?AW4__acrt_fenv_machine_x87_control@@W40@0@Z 100553c6 f i libucrt:_fenvutils.obj
 0001:000543d3       ??I@YA?AW4__acrt_fenv_machine_x87_status@@W40@0@Z 100553d3 f i libucrt:_fenvutils.obj
 0001:000543e0       ??U@YA?AW4__acrt_fenv_abstract_control@@W40@0@Z 100553e0 f i libucrt:_fenvutils.obj
 0001:000543ed       ??U@YA?AW4__acrt_fenv_abstract_status@@W40@0@Z 100553ed f i libucrt:_fenvutils.obj
 0001:000543fa       ??U@YA?AW4__acrt_fenv_machine_sse_control@@W40@0@Z 100553fa f i libucrt:_fenvutils.obj
 0001:00054407       ??U@YA?AW4__acrt_fenv_machine_x87_control@@W40@0@Z 10055407 f i libucrt:_fenvutils.obj
 0001:00054414       ??_5@YAAAW4__acrt_fenv_abstract_control@@AAW40@W40@@Z 10055414 f i libucrt:_fenvutils.obj
 0001:00054423       ??_5@YAAAW4__acrt_fenv_abstract_status@@AAW40@W40@@Z 10055423 f i libucrt:_fenvutils.obj
 0001:00054432       ??_5@YAAAW4__acrt_fenv_machine_sse_control@@AAW40@W40@@Z 10055432 f i libucrt:_fenvutils.obj
 0001:00054443       ??_5@YAAAW4__acrt_fenv_machine_sse_status@@AAW40@W40@@Z 10055443 f i libucrt:_fenvutils.obj
 0001:00054452       ??_5@YAAAW4__acrt_fenv_machine_x87_control@@AAW40@W40@@Z 10055452 f i libucrt:_fenvutils.obj
 0001:00054463       ??_5@YAAAW4__acrt_fenv_machine_x87_status@@AAW40@W40@@Z 10055463 f i libucrt:_fenvutils.obj
 0001:00054472       ?__acrt_fenv_shift_abstract_sse_control@@YA?AW4__acrt_fenv_abstract_control@@W41@@Z 10055472 f i libucrt:_fenvutils.obj
 0001:0005448f       ?__acrt_fenv_shift_abstract_sse_status@@YA?AW4__acrt_fenv_abstract_status@@W41@@Z 1005548f f i libucrt:_fenvutils.obj
 0001:0005449f       ?__acrt_fenv_shift_abstract_x87_control@@YA?AW4__acrt_fenv_abstract_control@@W41@@Z 1005549f f i libucrt:_fenvutils.obj
 0001:000544bc       ?__acrt_fenv_shift_abstract_x87_status@@YA?AW4__acrt_fenv_abstract_status@@W41@@Z 100554bc f i libucrt:_fenvutils.obj
 0001:000544cc       ?__acrt_fenv_unshift_abstract_sse_control@@YA?AW4__acrt_fenv_abstract_control@@W41@@Z 100554cc f i libucrt:_fenvutils.obj
 0001:000544eb       ?__acrt_fenv_unshift_abstract_sse_status@@YA?AW4__acrt_fenv_abstract_status@@W41@@Z 100554eb f i libucrt:_fenvutils.obj
 0001:000544fb       ?__acrt_fenv_unshift_abstract_x87_control@@YA?AW4__acrt_fenv_abstract_control@@W41@@Z 100554fb f i libucrt:_fenvutils.obj
 0001:0005451a       ?__acrt_fenv_unshift_abstract_x87_status@@YA?AW4__acrt_fenv_abstract_status@@W41@@Z 1005551a f i libucrt:_fenvutils.obj
 0001:00054a2d       ___acrt_fenv_expand_round_control 10055a2d f   libucrt:_fenvutils.obj
 0001:00054a63       ___acrt_fenv_get_common_round_control 10055a63 f   libucrt:_fenvutils.obj
 0001:00054a85       ___acrt_fenv_get_control   10055a85 f   libucrt:_fenvutils.obj
 0001:00054b05       ___acrt_fenv_get_fp_status_word_from_exception_mask 10055b05 f   libucrt:_fenvutils.obj
 0001:00054b1f       ___acrt_fenv_get_status    10055b1f f   libucrt:_fenvutils.obj
 0001:00054bc9       ___acrt_fenv_set_control   10055bc9 f   libucrt:_fenvutils.obj
 0001:00054c44       ___acrt_fenv_set_status    10055c44 f   libucrt:_fenvutils.obj
 0001:00054e25       ___acrt_GetLocaleInfoA     10055e25 f   libucrt:getlocaleinfoa.obj
 0001:00055495       __i64toa                   10056495 f   libucrt:xtoa.obj
 0001:000554d6       __i64toa_s                 100564d6 f   libucrt:xtoa.obj
 0001:00055515       __i64tow                   10056515 f   libucrt:xtoa.obj
 0001:00055556       __i64tow_s                 10056556 f   libucrt:xtoa.obj
 0001:00055595       __itoa                     10056595 f   libucrt:xtoa.obj
 0001:000555ca       __itoa_s                   100565ca f   libucrt:xtoa.obj
 0001:000555fd       __itow                     100565fd f   libucrt:xtoa.obj
 0001:00055632       __itow_s                   10056632 f   libucrt:xtoa.obj
 0001:00055665       __ltoa                     10056665 f   libucrt:xtoa.obj
 0001:0005569a       __ltoa_s                   1005669a f   libucrt:xtoa.obj
 0001:000556cd       __ltow                     100566cd f   libucrt:xtoa.obj
 0001:00055702       __ltow_s                   10056702 f   libucrt:xtoa.obj
 0001:00055735       __ui64toa                  10056735 f   libucrt:xtoa.obj
 0001:00055757       __ui64toa_s                10056757 f   libucrt:xtoa.obj
 0001:00055777       __ui64tow                  10056777 f   libucrt:xtoa.obj
 0001:00055799       __ui64tow_s                10056799 f   libucrt:xtoa.obj
 0001:000557b9       __ultoa                    100567b9 f   libucrt:xtoa.obj
 0001:000557d8       __ultoa_s                  100567d8 f   libucrt:xtoa.obj
 0001:000557f5       __ultow                    100567f5 f   libucrt:xtoa.obj
 0001:00055814       __ultow_s                  10056814 f   libucrt:xtoa.obj
 0001:00055831       __controlfp_s              10056831 f   libucrt:contrlfp.obj
 0001:00055890       _fegetenv                  10056890 f   libucrt:fegetenv.obj
 0001:000558ad       _fesetenv                  100568ad f   libucrt:fesetenv.obj
 0001:000558f8       _feholdexcept              100568f8 f   libucrt:feholdexcept.obj
 0001:00055950       __CIlog10                  10056950 f   libucrt:log10_impl.obj
 0001:0005598b       __CIlog10_default          1005698b f   libucrt:log10_impl.obj
 0001:0005599f       __log10_default            1005699f     libucrt:log10_impl.obj
 0001:00055a60       _ceil                      10056a60 f   libucrt:ceil_pentium4.obj
 0001:00055aa0       __ceil_pentium4            10056aa0 f   libucrt:ceil_pentium4.obj
 0001:00055b7d       ?reset_and_return@__crt_mbstring@@YAIIPAU_Mbstatet@@@Z 10056b7d f   libucrt:common_utf8.obj
 0001:00055b91       ?return_illegal_sequence@__crt_mbstring@@YAIPAU_Mbstatet@@AAV__crt_cached_ptd_host@@@Z 10056b91 f   libucrt:common_utf8.obj
 0001:00055bb3       ?__mbrtoc32_utf8@__crt_mbstring@@YAIPA_UPBDIPAU_Mbstatet@@AAV__crt_cached_ptd_host@@@Z 10056bb3 f   libucrt:mbrtoc32.obj
 0001:00055d71       _mbrtoc32                  10056d71 f   libucrt:mbrtoc32.obj
 0001:00056183       __lseek                    10057183 f   libucrt:lseek.obj
 0001:000561ba       __lseek_internal           100571ba f   libucrt:lseek.obj
 0001:000561c5       __lseek_nolock             100571c5 f   libucrt:lseek.obj
 0001:000561fc       __lseek_nolock_internal    100571fc f   libucrt:lseek.obj
 0001:00056207       __lseeki64                 10057207 f   libucrt:lseek.obj
 0001:00056247       __lseeki64_internal        10057247 f   libucrt:lseek.obj
 0001:00056265       __lseeki64_nolock          10057265 f   libucrt:lseek.obj
 0001:000562a5       __lseeki64_nolock_internal 100572a5 f   libucrt:lseek.obj
 0001:000562c3       ___acrt_stdio_allocate_buffer_nolock 100572c3 f   libucrt:_getbuf.obj
 0001:000563bd       ___acrt_report_runtime_error 100573bd f   libucrt:report_runtime_error.obj
 0001:000564d2       __query_app_type           100574d2 f   libucrt:report_runtime_error.obj
 0001:000564d8       __set_app_type             100574d8 f   libucrt:report_runtime_error.obj
 0001:000565c8       __putwch                   100575c8 f   libucrt:putwch.obj
 0001:000565f5       __putwch_nolock            100575f5 f   libucrt:putwch.obj
 0001:00056627       __putwch_nolock_internal   10057627 f   libucrt:putwch.obj
 0001:00056b5f       __read                     10057b5f f   libucrt:read.obj
 0001:00056c73       __read_nolock              10057c73 f   libucrt:read.obj
 0001:00057020       ___ascii_strnicmp          10058020 f   libucrt:_strnicm.obj
 0001:00057081       ??$__crt_interlocked_read@H@@YAHPDH@Z 10058081 f i libucrt:setmode.obj
 0001:0005708e       __get_fmode                1005808e f   libucrt:setmode.obj
 0001:000570bb       __set_fmode                100580bb f   libucrt:setmode.obj
 0001:000570f8       __setmode                  100580f8 f   libucrt:setmode.obj
 0001:00057209       __setmode_nolock           10058209 f   libucrt:setmode.obj
 0001:000573d4       ??0__crt_seek_guard@@QAE@H_J@Z 100583d4 f i libucrt:chsize.obj
 0001:00057421       ??1__crt_seek_guard@@QAE@XZ 10058421 f i libucrt:chsize.obj
 0001:00057545       ?check@?$cached@K@__crt_cached_ptd_host@@QBE_NK@Z 10058545 f i libucrt:chsize.obj
 0001:00057561       __chsize                   10058561 f   libucrt:chsize.obj
 0001:0005757d       __chsize_nolock            1005857d f   libucrt:chsize.obj
 0001:000575b4       __chsize_nolock_internal   100585b4 f   libucrt:chsize.obj
 0001:00057757       __chsize_s                 10058757 f   libucrt:chsize.obj
 0001:0005778e       __umask                    1005878e f   libucrt:umask.obj
 0001:000577b1       __umask_s                  100587b1 f   libucrt:umask.obj
 0001:000577ec       ___strncnt                 100587ec f   libucrt:strncnt.obj
 0001:00057808       ___acrt_CompareStringW     10058808 f   libucrt:comparestringw.obj
 0001:00057b0c       ___acrt_CompareStringA     10058b0c f   libucrt:comparestringa.obj
 0001:00057c95       ___control87_2             10058c95 f   libucrt:ieee87.obj
 0001:0005812d       ___fpreset_sse2            1005912d f   libucrt:ieee87.obj
 0001:00058303       __clearfp                  10059303 f   libucrt:ieee87.obj
 0001:000583e1       __control87                100593e1 f   libucrt:ieee87.obj
 0001:000586e2       __controlfp                100596e2 f   libucrt:ieee87.obj
 0001:000586fc       __fpreset                  100596fc f   libucrt:ieee87.obj
 0001:000587d2       __set_controlfp            100597d2 f   libucrt:ieee87.obj
 0001:00058845       __statusfp                 10059845 f   libucrt:ieee87.obj
 0001:000588e0       __statusfp2                100598e0 f   libucrt:ieee87.obj
 0001:00058943       ___acrt_initialize_sse2    10059943 f   libucrt:mathfcns.obj
 0001:00058953       __set_SSE2_enable          10059953 f   libucrt:mathfcns.obj
 0001:00058980       __CIlog10_pentium4         10059980 f   libucrt:log10_pentium4.obj
 0001:00058998       __log10_pentium4           10059998     libucrt:log10_pentium4.obj
 0001:00058c30       __fFEXP                    10059c30 f   libucrt:87tran.obj
 0001:00058c87       __rtinfpopse               10059c87     libucrt:87tran.obj
 0001:00058c89       __rtinfnpopse              10059c89     libucrt:87tran.obj
 0001:00058c99       __fFLN                     10059c99     libucrt:87tran.obj
 0001:00058d4e       __rtinfpop                 10059d4e     libucrt:87tran.obj
 0001:00058d50       __rtinfnpop                10059d50     libucrt:87tran.obj
 0001:00058d60       __rtforexpinf              10059d60 f   libucrt:87tran.obj
 0001:00058d6d       __ffexpm1                  10059d6d     libucrt:87tran.obj
 0001:00058e20       __trandisp1                10059e20 f   libucrt:87disp.obj
 0001:00058e95       __trandisp2                10059e95 f   libucrt:87disp.obj
 0001:00058f2f       __rttospopde               10059f2f     libucrt:87disp.obj
 0001:00058f34       __rttospop                 10059f34     libucrt:87disp.obj
 0001:00058f40       __rtnospop                 10059f40 f   libucrt:87disp.obj
 0001:00058f50       __rttosnpop                10059f50 f   libucrt:87disp.obj
 0001:00058f51       __rtnospopde               10059f51     libucrt:87disp.obj
 0001:00058f58       __rtzeropop                10059f58     libucrt:87disp.obj
 0001:00058f5a       __rtzeronpop               10059f5a     libucrt:87disp.obj
 0001:00058f60       __rtzerospop               10059f60 f   libucrt:87disp.obj
 0001:00058f6d       __rtonepop                 10059f6d     libucrt:87disp.obj
 0001:00058f70       __rtonenpop                10059f70 f   libucrt:87disp.obj
 0001:00058f80       __tosnan1                  10059f80 f   libucrt:87disp.obj
 0001:00058fb0       __nosnan2                  10059fb0 f   libucrt:87disp.obj
 0001:00058fc0       __tosnan2                  10059fc0 f   libucrt:87disp.obj
 0001:00058ff0       __nan2                     10059ff0 f   libucrt:87disp.obj
 0001:00059030       __rtindfpop                1005a030 f   libucrt:87disp.obj
 0001:00059032       __rtindfnpop               1005a032     libucrt:87disp.obj
 0001:00059043       __rttosnpopde              1005a043     libucrt:87disp.obj
 0001:00059050       __rtatan2inf               1005a050 f   libucrt:87disp.obj
 0001:0005906d       __rtchsifneg               1005a06d     libucrt:87disp.obj
 0001:00059074       ___setfflag                1005a074 f   libucrt:fp_flags.obj
 0001:00059090       __twoToTOS                 1005a090 f   libucrt:common.obj
 0001:000590a5       __load_CW                  1005a0a5 f   libucrt:common.obj
 0001:000590bc       __convertTOStoQNaN         1005a0bc f   libucrt:common.obj
 0001:000590d5       __fload_withFB             1005a0d5 f   libucrt:common.obj
 0001:00059118       __checkTOS_withFB          1005a118 f   libucrt:common.obj
 0001:0005912e       __fast_exit                1005a12e f   libucrt:common.obj
 0001:0005913b       __math_exit                1005a13b f   libucrt:common.obj
 0001:00059165       __check_overflow_exit      1005a165 f   libucrt:common.obj
 0001:00059179       __check_range_exit         1005a179 f   libucrt:common.obj
 0001:00059220       __startTwoArgErrorHandling 1005a220 f   libucrt:genexcep.obj
 0001:00059237       __startOneArgErrorHandling 1005a237 f   libucrt:genexcep.obj
 0001:00059273       ___libm_error_support      1005a273 f   libucrt:libm_error.obj
 0001:00059467       ___libm_setusermatherr     1005a467 f   libucrt:libm_error.obj
 0001:0005948e       __ceil_default             1005a48e f   libucrt:ceil.obj
 0001:00059543       __set_error_mode           1005a543 f   libucrt:set_error_mode.obj
 0001:0005967d       ??$message_box@$$TABQBDABQBDK@?$__crt_char_traits@D@@SAH$$QA$$TABQBD1$$QAK@Z 1005a67d f i libucrt:crtmbox.obj
 0001:0005969d       ??$message_box@$$TABQB_WABQB_WK@?$__crt_char_traits@_W@@SAH$$QA$$TABQB_W1$$QAK@Z 1005a69d f i libucrt:crtmbox.obj
 0001:000596bd       ??$message_box@PAUHWND__@@ABQBDABQBDABI@?$__crt_char_traits@D@@SAH$$QAPAUHWND__@@ABQBD1ABI@Z 1005a6bd f i libucrt:crtmbox.obj
 0001:000596dd       ??$message_box@PAUHWND__@@ABQB_WABQB_WABI@?$__crt_char_traits@_W@@SAH$$QAPAUHWND__@@ABQB_W1ABI@Z 1005a6dd f i libucrt:crtmbox.obj
 0001:000596fd       ??$output_debug_string@ABQBD@?$__crt_char_traits@D@@SAXABQBD@Z 1005a6fd f i libucrt:crtmbox.obj
 0001:0005970e       ??$output_debug_string@ABQB_W@?$__crt_char_traits@_W@@SAXABQB_W@Z 1005a70e f i libucrt:crtmbox.obj
 0001:00059720       ___acrt_show_narrow_message_box 1005a720 f   libucrt:crtmbox.obj
 0001:0005972b       ___acrt_show_wide_message_box 1005a72b f   libucrt:crtmbox.obj
 0001:000597e6       ___dcrt_lowio_ensure_console_output_initialized 1005a7e6 f   libucrt:initcon.obj
 0001:00059805       ___dcrt_terminate_console_output 1005a805 f   libucrt:initcon.obj
 0001:0005981c       ___dcrt_write_console      1005a81c f   libucrt:initcon.obj
 0001:00059871       ?dangerous_get_state_array@?$dual_state_global@H@__crt_state_management@@QAEPAHXZ 1005a871 f i libucrt:txtmode.obj
 0001:00059874       ___acrt_initialize_fmode   1005a874 f   libucrt:txtmode.obj
 0001:0005988a       ___p__fmode                1005a88a f   libucrt:txtmode.obj
 0001:00059890       __d_inttype                1005a890 f   libucrt:powhlp.obj
 0001:000598f8       __powhlp                   1005a8f8 f   libucrt:powhlp.obj
 0001:00059a23       __87except                 1005aa23 f   libucrt:87except.obj
 0001:00059b2d       __frnd                     1005ab2d f   libucrt:frnd.obj
 0001:00059b41       ___acrt_OutputDebugStringA@4 1005ab41 f   libucrt:outputdebugstringa.obj
 0001:00059bb0       __chgsign                  1005abb0 f   libucrt:ieeemisc.obj
 0001:00059bd8       __chgsignf                 1005abd8 f   libucrt:ieeemisc.obj
 0001:00059bf9       __copysign                 1005abf9 f   libucrt:ieeemisc.obj
 0001:00059c1c       __copysignf                1005ac1c f   libucrt:ieeemisc.obj
 0001:00059c38       __finite                   1005ac38 f   libucrt:ieeemisc.obj
 0001:00059c52       __fpclass                  1005ac52 f   libucrt:ieeemisc.obj
 0001:00059cf6       __isnan                    1005acf6 f   libucrt:ieeemisc.obj
 0001:00059d2c       __logb                     1005ad2c f   libucrt:ieeemisc.obj
 0001:00059dfb       __nextafter                1005adfb f   libucrt:ieeemisc.obj
 0001:00059e1a       __scalb                    1005ae1a f   libucrt:ieeemisc.obj
 0001:0005a0df       __mbstowcs_l               1005b0df f   libucrt:mbstowcs.obj
 0001:0005a117       __mbstowcs_s_l             1005b117 f   libucrt:mbstowcs.obj
 0001:0005a155       _mbstowcs                  1005b155 f   libucrt:mbstowcs.obj
 0001:0005a18c       _mbstowcs_s                1005b18c f   libucrt:mbstowcs.obj
 0001:0005a1c9       _ldexp                     1005b1c9 f   libucrt:ldexp.obj
 0001:0005a3bb       _nextafter                 1005b3bb f   libucrt:nextafter.obj
 0001:0005a3da       _nexttoward                1005b3da f   libucrt:nexttoward.obj
 0001:0005a5c5       __d_int                    1005b5c5 f   libucrt:_test.obj
 0001:0005a6cb       __dtest                    1005b6cb f   libucrt:_test.obj
 0001:0005a72f       __fd_int                   1005b72f f   libucrt:_test.obj
 0001:0005a7fc       __fdtest                   1005b7fc f   libucrt:_test.obj
 0001:0005a84a       __fperrraise               1005b84a f   libucrt:_test.obj
 0001:0005a86b       __ld_int                   1005b86b f   libucrt:_test.obj
 0001:0005a876       __ldtest                   1005b876 f   libucrt:_test.obj
 0001:0005a881       __dclass                   1005b881 f   libucrt:nan.obj
 0001:0005a892       __dpcomp                   1005b892 f   libucrt:nan.obj
 0001:0005a8e8       __dsign                    1005b8e8 f   libucrt:nan.obj
 0001:0005a8f8       _nan                       1005b8f8 f   libucrt:nan.obj
 0001:0005a8ff       __ldclass                  1005b8ff f   libucrt:nanl.obj
 0001:0005a910       __ldpcomp                  1005b910 f   libucrt:nanl.obj
 0001:0005a966       __ldsign                   1005b966 f   libucrt:nanl.obj
 0001:0005a976       _nanl                      1005b976 f   libucrt:nanl.obj
 0001:0005a97d       ??_4@YAAAW4__acrt_fenv_abstract_status@@AAW40@W40@@Z 1005b97d f i libucrt:fegetexceptflag.obj
 0001:0005a98c       _fegetexceptflag           1005b98c f   libucrt:fegetexceptflag.obj
 0001:0005a9bd       ??S@YA?AW4__acrt_fenv_abstract_status@@W40@@Z 1005b9bd f i libucrt:fesetexceptflag.obj
 0001:0005a9c9       _fesetexceptflag           1005b9c9 f   libucrt:fesetexceptflag.obj
 0001:0005aa29       _fetestexcept              1005ba29 f   libucrt:fetestexcept.obj
 0001:0005aa49       _IsDebuggerPresent@0       1005ba49 f   kernel32:KERNEL32.dll
 0001:0005aa4f       _SetEvent@4                1005ba4f f   kernel32:KERNEL32.dll
 0001:0005aa55       _ResetEvent@4              1005ba55 f   kernel32:KERNEL32.dll
 0001:0005aa5b       _WaitForSingleObjectEx@12  1005ba5b f   kernel32:KERNEL32.dll
 0001:0005aa61       _CreateEventW@16           1005ba61 f   kernel32:KERNEL32.dll
 0001:0005aa67       _UnhandledExceptionFilter@4 1005ba67 f   kernel32:KERNEL32.dll
 0001:0005aa6d       _IsProcessorFeaturePresent@4 1005ba6d f   kernel32:KERNEL32.dll
 0001:0005aa73       _GetStartupInfoW@4         1005ba73 f   kernel32:KERNEL32.dll
 0001:0005aa79       _QueryPerformanceCounter@4 1005ba79 f   kernel32:KERNEL32.dll
 0001:0005aa7f       _GetSystemTimeAsFileTime@4 1005ba7f f   kernel32:KERNEL32.dll
 0001:0005aa85       _InitializeSListHead@4     1005ba85 f   kernel32:KERNEL32.dll
 0001:0005aa8b       _RtlUnwind@16              1005ba8b f   kernel32:KERNEL32.dll
 0001:0005aa91       _InterlockedPushEntrySList@8 1005ba91 f   kernel32:KERNEL32.dll
 0001:0005aa97       _InterlockedFlushSList@4   1005ba97 f   kernel32:KERNEL32.dll
 0001:0005aa9d       _EncodePointer@4           1005ba9d f   kernel32:KERNEL32.dll
 0001:0005aaa3       _TlsAlloc@0                1005baa3 f   kernel32:KERNEL32.dll
 0001:0005aaa9       _TlsGetValue@4             1005baa9 f   kernel32:KERNEL32.dll
 0001:0005aaaf       _TlsSetValue@8             1005baaf f   kernel32:KERNEL32.dll
 0001:0005aab5       _TlsFree@4                 1005bab5 f   kernel32:KERNEL32.dll
 0001:0005aabb       _ExitProcess@4             1005babb f   kernel32:KERNEL32.dll
 0001:0005aac1       _GetModuleHandleExW@12     1005bac1 f   kernel32:KERNEL32.dll
 0001:0005aac7       _CreateThread@24           1005bac7 f   kernel32:KERNEL32.dll
 0001:0005aacd       _ExitThread@4              1005bacd f   kernel32:KERNEL32.dll
 0001:0005aad3       _FreeLibraryAndExitThread@8 1005bad3 f   kernel32:KERNEL32.dll
 0001:0005aad9       _SetConsoleCtrlHandler@8   1005bad9 f   kernel32:KERNEL32.dll
 0001:0005aadf       _GetCurrentThread@0        1005badf f   kernel32:KERNEL32.dll
 0001:0005aae5       _GetStdHandle@4            1005bae5 f   kernel32:KERNEL32.dll
 0001:0005aaeb       _GetFileType@4             1005baeb f   kernel32:KERNEL32.dll
 0001:0005aaf1       _GetDateFormatW@24         1005baf1 f   kernel32:KERNEL32.dll
 0001:0005aaf7       _GetTimeFormatW@24         1005baf7 f   kernel32:KERNEL32.dll
 0001:0005aafd       _CompareStringW@24         1005bafd f   kernel32:KERNEL32.dll
 0001:0005ab03       _LCMapStringW@24           1005bb03 f   kernel32:KERNEL32.dll
 0001:0005ab09       _GetLocaleInfoW@16         1005bb09 f   kernel32:KERNEL32.dll
 0001:0005ab0f       _IsValidLocale@8           1005bb0f f   kernel32:KERNEL32.dll
 0001:0005ab15       _GetUserDefaultLCID@0      1005bb15 f   kernel32:KERNEL32.dll
 0001:0005ab1b       _EnumSystemLocalesW@8      1005bb1b f   kernel32:KERNEL32.dll
 0001:0005ab21       _GetTimeZoneInformation@4  1005bb21 f   kernel32:KERNEL32.dll
 0001:0005ab27       _FindClose@4               1005bb27 f   kernel32:KERNEL32.dll
 0001:0005ab2d       _FindFirstFileExW@24       1005bb2d f   kernel32:KERNEL32.dll
 0001:0005ab33       _FindNextFileW@8           1005bb33 f   kernel32:KERNEL32.dll
 0001:0005ab39       _IsValidCodePage@4         1005bb39 f   kernel32:KERNEL32.dll
 0001:0005ab3f       _GetACP@0                  1005bb3f f   kernel32:KERNEL32.dll
 0001:0005ab45       _GetOEMCP@0                1005bb45 f   kernel32:KERNEL32.dll
 0001:0005ab4b       _GetCPInfo@8               1005bb4b f   kernel32:KERNEL32.dll
 0001:0005ab51       _GetCommandLineA@0         1005bb51 f   kernel32:KERNEL32.dll
 0001:0005ab57       _GetCommandLineW@0         1005bb57 f   kernel32:KERNEL32.dll
 0001:0005ab5d       _GetEnvironmentStringsW@0  1005bb5d f   kernel32:KERNEL32.dll
 0001:0005ab63       _FreeEnvironmentStringsW@4 1005bb63 f   kernel32:KERNEL32.dll
 0001:0005ab69       _SetEnvironmentVariableW@8 1005bb69 f   kernel32:KERNEL32.dll
 0001:0005ab6f       _GetStringTypeW@16         1005bb6f f   kernel32:KERNEL32.dll
 0001:0005ab75       _GetFileSizeEx@8           1005bb75 f   kernel32:KERNEL32.dll
 0001:0005ab7b       _SetFilePointerEx@20       1005bb7b f   kernel32:KERNEL32.dll
 0001:0005ab81       _SetStdHandle@8            1005bb81 f   kernel32:KERNEL32.dll
 0001:0005ab87       _FlushFileBuffers@4        1005bb87 f   kernel32:KERNEL32.dll
 0001:0005ab8d       _WriteFile@20              1005bb8d f   kernel32:KERNEL32.dll
 0001:0005ab93       _GetConsoleOutputCP@0      1005bb93 f   kernel32:KERNEL32.dll
 0001:0005ab99       _GetConsoleMode@8          1005bb99 f   kernel32:KERNEL32.dll
 0001:0005ab9f       _ReadFile@20               1005bb9f f   kernel32:KERNEL32.dll
 0001:0005aba5       _ReadConsoleW@20           1005bba5 f   kernel32:KERNEL32.dll
 0001:0005abab       _SetEndOfFile@4            1005bbab f   kernel32:KERNEL32.dll
 0001:0005abb1       _WriteConsoleW@20          1005bbb1 f   kernel32:KERNEL32.dll
 0001:0005abc0       __FindPESection            1005bbc0 f   LIBCMT:pesect.obj
 0001:0005ac10       __IsNonwritableInCurrentImage 1005bc10 f   LIBCMT:pesect.obj
 0001:0005acd0       __ValidateImageBase        1005bcd0 f   LIBCMT:pesect.obj
 0001:0005ad10       __aulldvrm                 1005bd10 f   LIBCMT:ulldvrm.obj
 0001:0005adb0       __alloca_probe_16          1005bdb0 f   LIBCMT:alloca16.obj
 0001:0005adc6       __alloca_probe_8           1005bdc6     LIBCMT:alloca16.obj
 0001:0005addc       __except_handler4_noexcept 1005bddc f   LIBCMT:chandler4_noexcept.obj
 0001:0005ae30       __allrem                   1005be30 f   LIBCMT:llrem.obj
 0001:0005aef0       __alldvrm                  1005bef0 f   LIBCMT:lldvrm.obj
 0001:0005afd0       __aulldiv                  1005bfd0 f   LIBCMT:ulldiv.obj
 0001:0005b040       __ftol2_sse_excpt          1005c040 f   LIBCMT:ftol2.obj
 0001:0005b050       __ftol2_sse                1005c050 f   LIBCMT:ftol2.obj
 0001:0005b060       __ftoi2                    1005c060 f   LIBCMT:ftol2.obj
 0001:0005b0e0       __ftoui2                   1005c0e0 f   LIBCMT:ftol2.obj
 0001:0005b190       __ftol2                    1005c190 f   LIBCMT:ftol2.obj
 0001:0005b240       __ftoul2                   1005c240 f   LIBCMT:ftol2.obj
 0001:0005b2f9       __initialize_default_precision 1005c2f9 f   LIBCMT:default_precision.obj
 0001:0005b320       _strrchr                   1005c320 f   libvcruntime:strrchr.obj
 0001:0005b460       _strchr                    1005c460 f   libvcruntime:strchr.obj
 0001:0005b4ce       ___from_strstr_to_strchr   1005c4ce     libvcruntime:strchr.obj
 0001:0005b58b       _wcschr                    1005c58b f   libvcruntime:wcschr.obj
 0001:0005b652       __filter_x86_sse2_floating_point_exception 1005c652 f   LIBCMT:x86_exception_filter.obj
 0001:0005b652       __filter_x86_sse2_floating_point_exception_default 1005c652 f   LIBCMT:x86_exception_filter.obj
 0001:0005c5d1       ??__FstrHeap@?1??GetInstance@CAtlStringMgr@ATL@@SAPAUIAtlStringMgr@2@XZ@YAXXZ 1005d5d1 f i GenericHTTPClient.obj
 0001:0005c5db       ??__FstrMgr@?1??GetInstance@CAtlStringMgr@ATL@@SAPAUIAtlStringMgr@2@XZ@YAXXZ 1005d5db f i GenericHTTPClient.obj
 0002:00000000       __imp__RegQueryInfoKeyW@48 1005e000     advapi32:ADVAPI32.dll
 0002:00000004       __imp__RegEnumKeyExW@32    1005e004     advapi32:ADVAPI32.dll
 0002:00000008       __imp__RegDeleteValueW@8   1005e008     advapi32:ADVAPI32.dll
 0002:0000000c       __imp__RegDeleteKeyW@8     1005e00c     advapi32:ADVAPI32.dll
 0002:00000010       __imp__RegCreateKeyExW@36  1005e010     advapi32:ADVAPI32.dll
 0002:00000014       __imp__RegSetValueExW@24   1005e014     advapi32:ADVAPI32.dll
 0002:00000018       __imp__RegOpenKeyW@12      1005e018     advapi32:ADVAPI32.dll
 0002:0000001c       __imp__RegCreateKeyW@12    1005e01c     advapi32:ADVAPI32.dll
 0002:00000020       __imp__RegQueryValueExW@24 1005e020     advapi32:ADVAPI32.dll
 0002:00000024       __imp__RegOpenKeyExW@20    1005e024     advapi32:ADVAPI32.dll
 0002:00000028       __imp__RegCloseKey@4       1005e028     advapi32:ADVAPI32.dll
 0002:0000002c       \177ADVAPI32_NULL_THUNK_DATA 1005e02c     advapi32:ADVAPI32.dll
 0002:00000030       __imp__GetOEMCP@0          1005e030     kernel32:KERNEL32.dll
 0002:00000034       __imp__GetACP@0            1005e034     kernel32:KERNEL32.dll
 0002:00000038       __imp__IsValidCodePage@4   1005e038     kernel32:KERNEL32.dll
 0002:0000003c       __imp__FindNextFileW@8     1005e03c     kernel32:KERNEL32.dll
 0002:00000040       __imp__FindFirstFileExW@24 1005e040     kernel32:KERNEL32.dll
 0002:00000044       __imp__CreateFileW@28      1005e044     kernel32:KERNEL32.dll
 0002:00000048       __imp__GetFileSize@8       1005e048     kernel32:KERNEL32.dll
 0002:0000004c       __imp__DecodePointer@4     1005e04c     kernel32:KERNEL32.dll
 0002:00000050       __imp__CloseHandle@4       1005e050     kernel32:KERNEL32.dll
 0002:00000054       __imp__RaiseException@16   1005e054     kernel32:KERNEL32.dll
 0002:00000058       __imp__GetLastError@0      1005e058     kernel32:KERNEL32.dll
 0002:0000005c       __imp__HeapDestroy@4       1005e05c     kernel32:KERNEL32.dll
 0002:00000060       __imp__HeapAlloc@12        1005e060     kernel32:KERNEL32.dll
 0002:00000064       __imp__HeapReAlloc@16      1005e064     kernel32:KERNEL32.dll
 0002:00000068       __imp__HeapFree@12         1005e068     kernel32:KERNEL32.dll
 0002:0000006c       __imp__HeapSize@12         1005e06c     kernel32:KERNEL32.dll
 0002:00000070       __imp__GetProcessHeap@0    1005e070     kernel32:KERNEL32.dll
 0002:00000074       __imp__InitializeCriticalSectionEx@12 1005e074     kernel32:KERNEL32.dll
 0002:00000078       __imp__DeleteCriticalSection@4 1005e078     kernel32:KERNEL32.dll
 0002:0000007c       __imp__CreateFileMappingW@24 1005e07c     kernel32:KERNEL32.dll
 0002:00000080       __imp__MapViewOfFile@20    1005e080     kernel32:KERNEL32.dll
 0002:00000084       __imp__UnmapViewOfFile@4   1005e084     kernel32:KERNEL32.dll
 0002:00000088       __imp__FindResourceExW@16  1005e088     kernel32:KERNEL32.dll
 0002:0000008c       __imp__LoadResource@8      1005e08c     kernel32:KERNEL32.dll
 0002:00000090       __imp__LockResource@4      1005e090     kernel32:KERNEL32.dll
 0002:00000094       __imp__SizeofResource@8    1005e094     kernel32:KERNEL32.dll
 0002:00000098       __imp__FindResourceW@12    1005e098     kernel32:KERNEL32.dll
 0002:0000009c       __imp__MultiByteToWideChar@24 1005e09c     kernel32:KERNEL32.dll
 0002:000000a0       __imp__WideCharToMultiByte@32 1005e0a0     kernel32:KERNEL32.dll
 0002:000000a4       __imp__DeleteFileW@4       1005e0a4     kernel32:KERNEL32.dll
 0002:000000a8       __imp__GetTempPathW@8      1005e0a8     kernel32:KERNEL32.dll
 0002:000000ac       __imp__GetCurrentProcess@0 1005e0ac     kernel32:KERNEL32.dll
 0002:000000b0       __imp__GetCurrentProcessId@0 1005e0b0     kernel32:KERNEL32.dll
 0002:000000b4       __imp__GetCurrentThreadId@0 1005e0b4     kernel32:KERNEL32.dll
 0002:000000b8       __imp__OpenThread@12       1005e0b8     kernel32:KERNEL32.dll
 0002:000000bc       __imp__SuspendThread@4     1005e0bc     kernel32:KERNEL32.dll
 0002:000000c0       __imp__ResumeThread@4      1005e0c0     kernel32:KERNEL32.dll
 0002:000000c4       __imp__GetCPInfo@8         1005e0c4     kernel32:KERNEL32.dll
 0002:000000c8       __imp__GetThreadContext@8  1005e0c8     kernel32:KERNEL32.dll
 0002:000000cc       __imp__GetProcAddress@8    1005e0cc     kernel32:KERNEL32.dll
 0002:000000d0       __imp__LoadLibraryW@4      1005e0d0     kernel32:KERNEL32.dll
 0002:000000d4       __imp__LocalFree@4         1005e0d4     kernel32:KERNEL32.dll
 0002:000000d8       __imp__FormatMessageW@28   1005e0d8     kernel32:KERNEL32.dll
 0002:000000dc       __imp__CreateToolhelp32Snapshot@8 1005e0dc     kernel32:KERNEL32.dll
 0002:000000e0       __imp__Thread32First@8     1005e0e0     kernel32:KERNEL32.dll
 0002:000000e4       __imp__Thread32Next@8      1005e0e4     kernel32:KERNEL32.dll
 0002:000000e8       __imp__OutputDebugStringW@4 1005e0e8     kernel32:KERNEL32.dll
 0002:000000ec       __imp__SetUnhandledExceptionFilter@4 1005e0ec     kernel32:KERNEL32.dll
 0002:000000f0       __imp__SetLastError@4      1005e0f0     kernel32:KERNEL32.dll
 0002:000000f4       __imp__SetErrorMode@4      1005e0f4     kernel32:KERNEL32.dll
 0002:000000f8       __imp__EnterCriticalSection@4 1005e0f8     kernel32:KERNEL32.dll
